GAS LISTING /tmp/cckeors0.s 			page 1


   1              		.file	"main.cpp"
   2              		.option pic
   3              		.option norelax
   4              		.text
   5              	.Ltext0:
   6              		.section	.rodata.str1.8,"aMS",@progbits,1
   7              		.align	3
   8              	.LC0:
   9 0000 75736572 		.string	"userMain() started.\n"
   9      4D61696E 
   9      28292073 
   9      74617274 
   9      65642E0A 
  10 0015 000000   		.align	3
  11              	.LC1:
  12 0018 75736572 		.string	"userMain() ended.\n"
  12      4D61696E 
  12      28292065 
  12      6E646564 
  12      2E0A00
  13              		.text
  14              		.align	2
  15              		.globl	_Z16userMain_wrapperPv
  17              	_Z16userMain_wrapperPv:
  18              	.LFB36:
  19              		.file 1 "src/main.cpp"
   1:src/main.cpp  **** #include "../h/syscall_c.h"
   2:src/main.cpp  **** #include "../h/riscv.hpp"
   3:src/main.cpp  **** #include "../test/printing.hpp"
   4:src/main.cpp  **** 
   5:src/main.cpp  **** bool finished_main = false;
   6:src/main.cpp  **** extern void userMain();
   7:src/main.cpp  **** 
   8:src/main.cpp  **** void userMain_wrapper(void*){
  20              		.loc 1 8 29
  21              		.cfi_startproc
  22 0000 130101FF 		addi	sp,sp,-16
  23              		.cfi_def_cfa_offset 16
  24 0004 23341100 		sd	ra,8(sp)
  25 0008 23308100 		sd	s0,0(sp)
  26              		.cfi_offset 1, -8
  27              		.cfi_offset 8, -16
  28 000c 13040101 		addi	s0,sp,16
  29              		.cfi_def_cfa 8, 0
   9:src/main.cpp  ****     printString("userMain() started.\n");
  30              		.loc 1 9 5
  31              		.loc 1 9 16 is_stmt 0
  32 0010 17050000 		lla	a0,.LC0
  32      13050500 
  33 0018 97000000 		call	_Z11printStringPKc@plt
  33      E7800000 
  34              	.LVL0:
  10:src/main.cpp  ****     userMain();
  35              		.loc 1 10 5 is_stmt 1
  36              		.loc 1 10 13 is_stmt 0
  37 0020 97000000 		call	_Z8userMainv@plt
  37      E7800000 
GAS LISTING /tmp/cckeors0.s 			page 2


  38              	.LVL1:
  11:src/main.cpp  ****     printString("userMain() ended.\n");
  39              		.loc 1 11 5 is_stmt 1
  40              		.loc 1 11 16 is_stmt 0
  41 0028 17050000 		lla	a0,.LC1
  41      13050500 
  42 0030 97000000 		call	_Z11printStringPKc@plt
  42      E7800000 
  43              	.LVL2:
  12:src/main.cpp  ****     finished_main = true;
  44              		.loc 1 12 5 is_stmt 1
  45              		.loc 1 12 19 is_stmt 0
  46 0038 93071000 		li	a5,1
  47 003c 17070000 		sb	a5,.LANCHOR0,a4
  47      2300F700 
  13:src/main.cpp  **** }
  48              		.loc 1 13 1
  49 0044 83308100 		ld	ra,8(sp)
  50              		.cfi_restore 1
  51 0048 03340100 		ld	s0,0(sp)
  52              		.cfi_restore 8
  53              		.cfi_def_cfa 2, 16
  54 004c 13010101 		addi	sp,sp,16
  55              		.cfi_def_cfa_offset 0
  56 0050 67800000 		jr	ra
  57              		.cfi_endproc
  58              	.LFE36:
  60              		.align	2
  61              		.globl	_Z4idlePv
  63              	_Z4idlePv:
  64              	.LFB37:
  14:src/main.cpp  **** 
  15:src/main.cpp  **** void idle(void*){
  65              		.loc 1 15 17 is_stmt 1
  66              		.cfi_startproc
  16:src/main.cpp  ****     while(RiscV::get_user_mode()) thread_dispatch();
  67              		.loc 1 16 5
  68              		.loc 1 16 31
  69              	.LBB23:
  70              	.LBB24:
  71              		.file 2 "src/../h/riscv.hpp"
   1:src/../h/riscv.hpp **** #ifndef PROJECT_BASE_V1_1_RISCV_HPP
   2:src/../h/riscv.hpp **** #define PROJECT_BASE_V1_1_RISCV_HPP
   3:src/../h/riscv.hpp **** 
   4:src/../h/riscv.hpp **** #include "../lib/hw.h"
   5:src/../h/riscv.hpp **** #include "../h/MemoryAllocator.hpp"
   6:src/../h/riscv.hpp **** #include "../h/syscall_c.h"
   7:src/../h/riscv.hpp **** #include "../h/sem.hpp"
   8:src/../h/riscv.hpp **** #include "../h/SleepingThreadsList.hpp"
   9:src/../h/riscv.hpp **** 
  10:src/../h/riscv.hpp **** class SleepingThreadsList;
  11:src/../h/riscv.hpp **** class RiscV{
  12:src/../h/riscv.hpp **** private:
  13:src/../h/riscv.hpp ****     static bool user_mode;
  14:src/../h/riscv.hpp ****     static SleepingThreadsList list_of_sleeping_threads;
  15:src/../h/riscv.hpp **** 
  16:src/../h/riscv.hpp ****     static void handleEcallInterrupt();
GAS LISTING /tmp/cckeors0.s 			page 3


  17:src/../h/riscv.hpp ****     static void handleTimerInterrupt();
  18:src/../h/riscv.hpp ****     static void handleExternalInterrupt();
  19:src/../h/riscv.hpp **** public:
  20:src/../h/riscv.hpp ****     enum SSTATUS_MASK{
  21:src/../h/riscv.hpp ****         SSTATUS_SIE = (1 << 1),
  22:src/../h/riscv.hpp ****         SSTATUS_SPIE = (1 << 5),
  23:src/../h/riscv.hpp ****         SSTATUS_SPP = (1 << 8)
  24:src/../h/riscv.hpp ****     };
  25:src/../h/riscv.hpp **** 
  26:src/../h/riscv.hpp ****     enum SIP_MASK{
  27:src/../h/riscv.hpp ****         SIP_SSIP = (1 << 1),
  28:src/../h/riscv.hpp ****         SIP_STIP = (1 << 5),
  29:src/../h/riscv.hpp ****         SIP_SEIP = (1 << 9)
  30:src/../h/riscv.hpp ****     };
  31:src/../h/riscv.hpp **** 
  32:src/../h/riscv.hpp ****     static void popSppSpie();
  33:src/../h/riscv.hpp **** 
  34:src/../h/riscv.hpp ****     static void w_stvec(uint64);
  35:src/../h/riscv.hpp **** 
  36:src/../h/riscv.hpp ****     static uint64 r_sepc();
  37:src/../h/riscv.hpp ****     static void w_sepc(uint64);
  38:src/../h/riscv.hpp **** 
  39:src/../h/riscv.hpp ****     static uint64 r_sstatus();
  40:src/../h/riscv.hpp ****     static void w_sstatus(uint64);
  41:src/../h/riscv.hpp ****     static void ms_sstatus(uint64 mask);
  42:src/../h/riscv.hpp ****     static void mc_sstatus(uint64 mask);
  43:src/../h/riscv.hpp **** 
  44:src/../h/riscv.hpp ****     static uint64 r_a0();
  45:src/../h/riscv.hpp **** 
  46:src/../h/riscv.hpp ****     static uint64 r_scause();
  47:src/../h/riscv.hpp **** 
  48:src/../h/riscv.hpp ****     static void mc_sip(uint64 mask);
  49:src/../h/riscv.hpp **** 
  50:src/../h/riscv.hpp ****     static bool get_user_mode() { return user_mode; }
  72              		.loc 2 50 35
  73              		.loc 2 50 42 is_stmt 0
  74 0054 97070000 		la	a5,_ZN5RiscV9user_modeE
  74      83B70700 
  75 005c 83C70700 		lbu	a5,0(a5)
  76              	.LBE24:
  77              	.LBE23:
  78              		.loc 1 16 31
  79 0060 638E0702 		beqz	a5,.L11
  15:src/main.cpp  ****     while(RiscV::get_user_mode()) thread_dispatch();
  80              		.loc 1 15 17
  81 0064 130101FF 		addi	sp,sp,-16
  82              		.cfi_def_cfa_offset 16
  83 0068 23341100 		sd	ra,8(sp)
  84 006c 23308100 		sd	s0,0(sp)
  85              		.cfi_offset 1, -8
  86              		.cfi_offset 8, -16
  87 0070 13040101 		addi	s0,sp,16
  88              		.cfi_def_cfa 8, 0
  89              	.L7:
  90              		.loc 1 16 35 is_stmt 1 discriminator 1
  91              		.loc 1 16 50 is_stmt 0 discriminator 1
  92 0074 97000000 		call	_Z15thread_dispatchv@plt
GAS LISTING /tmp/cckeors0.s 			page 4


  92      E7800000 
  93              	.LVL3:
  94              		.loc 1 16 5 is_stmt 1 discriminator 1
  95              		.loc 1 16 31 discriminator 1
  96              	.LBB26:
  97              	.LBB25:
  98              		.loc 2 50 35 discriminator 1
  99              		.loc 2 50 42 is_stmt 0 discriminator 1
 100 007c 97070000 		la	a5,_ZN5RiscV9user_modeE
 100      83B70700 
 101 0084 83C70700 		lbu	a5,0(a5)
 102              	.LBE25:
 103              	.LBE26:
 104              		.loc 1 16 31 discriminator 1
 105 0088 E39607FE 		bnez	a5,.L7
  17:src/main.cpp  **** }
 106              		.loc 1 17 1
 107 008c 83308100 		ld	ra,8(sp)
 108              		.cfi_restore 1
 109 0090 03340100 		ld	s0,0(sp)
 110              		.cfi_restore 8
 111              		.cfi_def_cfa 2, 16
 112 0094 13010101 		addi	sp,sp,16
 113              		.cfi_def_cfa_offset 0
 114 0098 67800000 		jr	ra
 115              	.L11:
 116 009c 67800000 		ret
 117              		.cfi_endproc
 118              	.LFE37:
 120              		.section	.rodata.str1.8
 121 002b 00000000 		.align	3
 121      00
 122              	.LC2:
 123 0030 55534552 		.string	"USER MODE STARTED.\n"
 123      204D4F44 
 123      45205354 
 123      41525445 
 123      442E0A00 
 124 0044 00000000 		.align	3
 125              	.LC3:
 126 0048 55534552 		.string	"USER MODE ENDED.\n"
 126      204D4F44 
 126      4520454E 
 126      4445442E 
 126      0A00
 127              		.text
 128              		.align	2
 129              		.globl	main
 131              	main:
 132              	.LFB38:
  18:src/main.cpp  **** 
  19:src/main.cpp  **** int main(){
 133              		.loc 1 19 11 is_stmt 1
 134              		.cfi_startproc
 135 00a0 130101FC 		addi	sp,sp,-64
 136              		.cfi_def_cfa_offset 64
 137 00a4 233C1102 		sd	ra,56(sp)
GAS LISTING /tmp/cckeors0.s 			page 5


 138 00a8 23388102 		sd	s0,48(sp)
 139 00ac 23349102 		sd	s1,40(sp)
 140              		.cfi_offset 1, -8
 141              		.cfi_offset 8, -16
 142              		.cfi_offset 9, -24
 143 00b0 13040104 		addi	s0,sp,64
 144              		.cfi_def_cfa 8, 0
  20:src/main.cpp  ****     RiscV::w_stvec(((uint64) &RiscV::interruptRoutine) | 1);
 145              		.loc 1 20 5
 146              		.loc 1 20 19 is_stmt 0
 147 00b4 97070000 		la	a5,_ZN5RiscV16interruptRoutineEv
 147      83B70700 
 148 00bc 93E71700 		ori	a5,a5,1
 149              	.LVL4:
 150              	.LBB27:
 151              	.LBB28:
  51:src/../h/riscv.hpp ****     static void set_user_mode(bool value) { user_mode = value; }
  52:src/../h/riscv.hpp **** 
  53:src/../h/riscv.hpp ****     static void interruptRoutine();
  54:src/../h/riscv.hpp **** };
  55:src/../h/riscv.hpp **** 
  56:src/../h/riscv.hpp **** inline void RiscV::w_stvec(uint64 val) {
  57:src/../h/riscv.hpp ****     __asm__ volatile ("csrw stvec, %0" : : "r"(val));
 152              		.loc 2 57 5 is_stmt 1
 153              		.loc 2 57 53 is_stmt 0
 154              	#APP
 155              	# 57 "src/../h/riscv.hpp" 1
  58              	}
 156              		csrw stvec, a5
 157              	# 0 "" 2
 158              	.LVL5:
 159              	#NO_APP
 160              	.LBE28:
 161              	.LBE27:
  21:src/main.cpp  **** 
  22:src/main.cpp  ****     TCB *main_t = nullptr, *idle_t = nullptr, *t1 = nullptr;
 162              		.loc 1 22 5 is_stmt 1
 163              		.loc 1 22 10 is_stmt 0
 164 00c4 233C04FC 		sd	zero,-40(s0)
 165              		.loc 1 22 29
 166 00c8 233804FC 		sd	zero,-48(s0)
 167              		.loc 1 22 48
 168 00cc 233404FC 		sd	zero,-56(s0)
  23:src/main.cpp  **** 
  24:src/main.cpp  ****     thread_create(&main_t, nullptr, nullptr);
 169              		.loc 1 24 5 is_stmt 1
 170              		.loc 1 24 18 is_stmt 0
 171 00d0 13060000 		li	a2,0
 172 00d4 93050000 		li	a1,0
 173 00d8 130584FD 		addi	a0,s0,-40
 174 00dc 97000000 		call	_Z13thread_createPP3TCBPFvPvES2_@plt
 174      E7800000 
 175              	.LVL6:
  25:src/main.cpp  ****     TCB::running = main_t;
 176              		.loc 1 25 5 is_stmt 1
 177              		.loc 1 25 18 is_stmt 0
 178 00e4 97070000 		la	a5,_ZN3TCB7runningE
GAS LISTING /tmp/cckeors0.s 			page 6


 178      83B70700 
 179 00ec 033784FD 		ld	a4,-40(s0)
 180 00f0 23B0E700 		sd	a4,0(a5)
  26:src/main.cpp  **** 
  27:src/main.cpp  ****     RiscV::ms_sstatus(RiscV::SSTATUS_MASK::SSTATUS_SIE);
 181              		.loc 1 27 5 is_stmt 1
 182              	.LVL7:
 183              	.LBB29:
 184              	.LBB30:
  59:src/../h/riscv.hpp **** 
  60:src/../h/riscv.hpp **** inline uint64 RiscV::r_sepc() {
  61:src/../h/riscv.hpp ****     uint64 volatile sepc;
  62:src/../h/riscv.hpp ****     __asm__ volatile ("csrr %[sepc], sepc" : [sepc] "=r"(sepc));
  63:src/../h/riscv.hpp **** 
  64:src/../h/riscv.hpp ****     return sepc;
  65:src/../h/riscv.hpp **** }
  66:src/../h/riscv.hpp **** 
  67:src/../h/riscv.hpp **** inline void RiscV::w_sepc(uint64 sepc){
  68:src/../h/riscv.hpp ****     __asm__ volatile ("csrw sepc, %[sepc]" : : [sepc] "r"(sepc));
  69:src/../h/riscv.hpp **** }
  70:src/../h/riscv.hpp **** 
  71:src/../h/riscv.hpp **** inline uint64 RiscV::r_sstatus() {
  72:src/../h/riscv.hpp ****     uint64 volatile sstatus;
  73:src/../h/riscv.hpp ****     __asm__ volatile ("csrr %[sstatus], sstatus" : [sstatus] "=r"(sstatus));
  74:src/../h/riscv.hpp **** 
  75:src/../h/riscv.hpp ****     return sstatus;
  76:src/../h/riscv.hpp **** }
  77:src/../h/riscv.hpp **** 
  78:src/../h/riscv.hpp **** inline void RiscV::w_sstatus(uint64 sstatus) {
  79:src/../h/riscv.hpp ****     __asm__ volatile ("csrw sstatus, %[sstatus]" : : [sstatus] "r"(sstatus));
  80:src/../h/riscv.hpp **** }
  81:src/../h/riscv.hpp **** 
  82:src/../h/riscv.hpp **** inline void RiscV::ms_sstatus(uint64 mask){
  83:src/../h/riscv.hpp ****     __asm__ volatile("csrs sstatus, %[mask]" : : [mask] "r"(mask));
 185              		.loc 2 83 5
 186              		.loc 2 83 67 is_stmt 0
 187 00f4 93072000 		li	a5,2
 188              	#APP
 189              	# 83 "src/../h/riscv.hpp" 1
  84              	}
 190              		csrs sstatus, a5
 191              	# 0 "" 2
 192              	.LVL8:
 193              	#NO_APP
 194              	.LBE30:
 195              	.LBE29:
  28:src/main.cpp  ****     printString("USER MODE STARTED.\n");
 196              		.loc 1 28 5 is_stmt 1
 197              		.loc 1 28 16 is_stmt 0
 198 00fc 17050000 		lla	a0,.LC2
 198      13050500 
 199 0104 97000000 		call	_Z11printStringPKc@plt
 199      E7800000 
 200              	.LVL9:
  29:src/main.cpp  ****     RiscV::set_user_mode(true);
 201              		.loc 1 29 5 is_stmt 1
 202              	.LBB31:
GAS LISTING /tmp/cckeors0.s 			page 7


 203              	.LBB32:
  51:src/../h/riscv.hpp **** 
 204              		.loc 2 51 45
  51:src/../h/riscv.hpp **** 
 205              		.loc 2 51 55 is_stmt 0
 206 010c 97070000 		la	a5,_ZN5RiscV9user_modeE
 206      83B70700 
 207 0114 13071000 		li	a4,1
 208 0118 2380E700 		sb	a4,0(a5)
 209              	.LVL10:
 210              	.LBE32:
 211              	.LBE31:
  30:src/main.cpp  **** 
  31:src/main.cpp  ****     thread_create(&idle_t, &idle, nullptr);
 212              		.loc 1 31 5 is_stmt 1
 213              		.loc 1 31 18 is_stmt 0
 214 011c 13060000 		li	a2,0
 215 0120 97050000 		lla	a1,_Z4idlePv
 215      93850500 
 216 0128 130504FD 		addi	a0,s0,-48
 217 012c 97000000 		call	_Z13thread_createPP3TCBPFvPvES2_@plt
 217      E7800000 
 218              	.LVL11:
  32:src/main.cpp  ****     thread_create(&t1, &userMain_wrapper, nullptr);
 219              		.loc 1 32 5 is_stmt 1
 220              		.loc 1 32 18 is_stmt 0
 221 0134 13060000 		li	a2,0
 222 0138 97050000 		lla	a1,_Z16userMain_wrapperPv
 222      93850500 
 223 0140 130584FC 		addi	a0,s0,-56
 224 0144 97000000 		call	_Z13thread_createPP3TCBPFvPvES2_@plt
 224      E7800000 
 225              	.LVL12:
 226              	.L14:
  33:src/main.cpp  **** 
  34:src/main.cpp  ****     while(!finished_main){
 227              		.loc 1 34 5 is_stmt 1
 228              		.loc 1 34 11
 229 014c 97070000 		lbu	a5,.LANCHOR0
 229      83C70700 
 230 0154 63980700 		bnez	a5,.L13
  35:src/main.cpp  ****         thread_dispatch();
 231              		.loc 1 35 9
 232              		.loc 1 35 24 is_stmt 0
 233 0158 97000000 		call	_Z15thread_dispatchv@plt
 233      E7800000 
 234              	.LVL13:
 235 0160 6FF0DFFE 		j	.L14
 236              	.L13:
  36:src/main.cpp  ****     }
  37:src/main.cpp  **** 
  38:src/main.cpp  ****     RiscV::set_user_mode(false);
 237              		.loc 1 38 5 is_stmt 1
 238              	.LVL14:
 239              	.LBB33:
 240              	.LBB34:
  51:src/../h/riscv.hpp **** 
GAS LISTING /tmp/cckeors0.s 			page 8


 241              		.loc 2 51 45
  51:src/../h/riscv.hpp **** 
 242              		.loc 2 51 55 is_stmt 0
 243 0164 97070000 		la	a5,_ZN5RiscV9user_modeE
 243      83B70700 
 244 016c 23800700 		sb	zero,0(a5)
 245              	.LVL15:
 246              	.LBE34:
 247              	.LBE33:
  39:src/main.cpp  ****     printString("USER MODE ENDED.\n");
 248              		.loc 1 39 5 is_stmt 1
 249              		.loc 1 39 16 is_stmt 0
 250 0170 17050000 		lla	a0,.LC3
 250      13050500 
 251 0178 97000000 		call	_Z11printStringPKc@plt
 251      E7800000 
 252              	.LVL16:
  40:src/main.cpp  ****     RiscV::mc_sstatus(RiscV::SSTATUS_MASK::SSTATUS_SIE);
 253              		.loc 1 40 5 is_stmt 1
 254              	.LBB35:
 255              	.LBB36:
  85:src/../h/riscv.hpp **** 
  86:src/../h/riscv.hpp **** inline void RiscV::mc_sstatus(uint64 mask){
  87:src/../h/riscv.hpp ****     __asm__ volatile("csrc sstatus, %[mask]" : : [mask] "r"(mask));
 256              		.loc 2 87 5
 257              		.loc 2 87 67 is_stmt 0
 258 0180 93072000 		li	a5,2
 259              	#APP
 260              	# 87 "src/../h/riscv.hpp" 1
  88              	}
 261              		csrc sstatus, a5
 262              	# 0 "" 2
 263              	.LVL17:
 264              	#NO_APP
 265              	.LBE36:
 266              	.LBE35:
  41:src/main.cpp  **** 
  42:src/main.cpp  ****     thread_join(idle_t);
 267              		.loc 1 42 5 is_stmt 1
 268              		.loc 1 42 16 is_stmt 0
 269 0188 033504FD 		ld	a0,-48(s0)
 270 018c 97000000 		call	_Z11thread_joinP3TCB@plt
 270      E7800000 
 271              	.LVL18:
  43:src/main.cpp  **** 
  44:src/main.cpp  ****     delete main_t;
 272              		.loc 1 44 5 is_stmt 1
 273              		.loc 1 44 12 is_stmt 0
 274 0194 833484FD 		ld	s1,-40(s0)
 275              		.loc 1 44 18
 276 0198 63800402 		beqz	s1,.L15
 277              	.LVL19:
 278              	.LBB37:
 279              	.LBB38:
 280              		.file 3 "src/../h/../h/../h/tcb.hpp"
   1:src/../h/../h/../h/tcb.hpp **** #ifndef PROJECT_BASE_V1_1_TCB_HPP
   2:src/../h/../h/../h/tcb.hpp **** #define PROJECT_BASE_V1_1_TCB_HPP
GAS LISTING /tmp/cckeors0.s 			page 9


   3:src/../h/../h/../h/tcb.hpp **** 
   4:src/../h/../h/../h/tcb.hpp **** #include "../lib/hw.h"
   5:src/../h/../h/../h/tcb.hpp **** #include "../h/scheduler.hpp"
   6:src/../h/../h/../h/tcb.hpp **** #include "../h/riscv.hpp"
   7:src/../h/../h/../h/tcb.hpp **** 
   8:src/../h/../h/../h/tcb.hpp **** class TCB{
   9:src/../h/../h/../h/tcb.hpp **** private:
  10:src/../h/../h/../h/tcb.hpp ****     struct Context{
  11:src/../h/../h/../h/tcb.hpp ****         uint64 sp, ra;
  12:src/../h/../h/../h/tcb.hpp ****     };
  13:src/../h/../h/../h/tcb.hpp **** 
  14:src/../h/../h/../h/tcb.hpp ****     using Body = void(*)(void*);
  15:src/../h/../h/../h/tcb.hpp ****     Body body;
  16:src/../h/../h/../h/tcb.hpp ****     void* args;
  17:src/../h/../h/../h/tcb.hpp **** 
  18:src/../h/../h/../h/tcb.hpp ****     uint64* stack;
  19:src/../h/../h/../h/tcb.hpp ****     Context context;
  20:src/../h/../h/../h/tcb.hpp **** 
  21:src/../h/../h/../h/tcb.hpp ****     time_t time_slice;
  22:src/../h/../h/../h/tcb.hpp ****     int id;
  23:src/../h/../h/../h/tcb.hpp ****     bool finished, blocked, sleeping, main, user_mode;
  24:src/../h/../h/../h/tcb.hpp **** 
  25:src/../h/../h/../h/tcb.hpp ****     TCB(Body body, void* args, uint64 time_slice, uint64* stack) :
  26:src/../h/../h/../h/tcb.hpp ****         body(body),
  27:src/../h/../h/../h/tcb.hpp ****         args(args),
  28:src/../h/../h/../h/tcb.hpp ****         stack(body != nullptr ? stack : nullptr),
  29:src/../h/../h/../h/tcb.hpp ****         context({(uint64) &thread_wrapper, stack != nullptr ? reinterpret_cast<uint64>(&stack[DEFAU
  30:src/../h/../h/../h/tcb.hpp ****         time_slice(time_slice),
  31:src/../h/../h/../h/tcb.hpp ****         id(ID),
  32:src/../h/../h/../h/tcb.hpp ****         finished(false),
  33:src/../h/../h/../h/tcb.hpp ****         blocked(false),
  34:src/../h/../h/../h/tcb.hpp ****         sleeping(false),
  35:src/../h/../h/../h/tcb.hpp ****         main(body == nullptr){
  36:src/../h/../h/../h/tcb.hpp **** 
  37:src/../h/../h/../h/tcb.hpp ****         if(body != nullptr){
  38:src/../h/../h/../h/tcb.hpp ****             Scheduler::put(this);
  39:src/../h/../h/../h/tcb.hpp ****         }
  40:src/../h/../h/../h/tcb.hpp **** 
  41:src/../h/../h/../h/tcb.hpp ****     }
  42:src/../h/../h/../h/tcb.hpp **** 
  43:src/../h/../h/../h/tcb.hpp ****     static time_t time_slice_counter;
  44:src/../h/../h/../h/tcb.hpp **** 
  45:src/../h/../h/../h/tcb.hpp ****     static void contextSwitch(Context* old_context, Context* new_context);
  46:src/../h/../h/../h/tcb.hpp ****     static void thread_wrapper();
  47:src/../h/../h/../h/tcb.hpp ****     static void dispatch();
  48:src/../h/../h/../h/tcb.hpp **** public:
  49:src/../h/../h/../h/tcb.hpp ****     friend class RiscV;
  50:src/../h/../h/../h/tcb.hpp ****     friend class sem;
  51:src/../h/../h/../h/tcb.hpp **** 
  52:src/../h/../h/../h/tcb.hpp ****     static int ID;
  53:src/../h/../h/../h/tcb.hpp ****     static TCB* running;
  54:src/../h/../h/../h/tcb.hpp ****     static TCB* create_thread(TCB** handle, Body body, void* args, uint64* stack);
  55:src/../h/../h/../h/tcb.hpp ****     static void yield();
  56:src/../h/../h/../h/tcb.hpp ****     static void join(TCB*);
  57:src/../h/../h/../h/tcb.hpp ****     static void outputThreadBody(void*);
  58:src/../h/../h/../h/tcb.hpp **** 
  59:src/../h/../h/../h/tcb.hpp **** //    void start(){
GAS LISTING /tmp/cckeors0.s 			page 10


  60:src/../h/../h/../h/tcb.hpp **** //        Scheduler::put(this);
  61:src/../h/../h/../h/tcb.hpp **** //    }
  62:src/../h/../h/../h/tcb.hpp **** 
  63:src/../h/../h/../h/tcb.hpp ****     bool is_finished() const { return finished; }
  64:src/../h/../h/../h/tcb.hpp ****     void set_finished(bool f) { this->finished = f; }
  65:src/../h/../h/../h/tcb.hpp **** 
  66:src/../h/../h/../h/tcb.hpp ****     bool is_sleeping() const { return sleeping; }
  67:src/../h/../h/../h/tcb.hpp ****     void set_sleeping(bool s) { this->sleeping = s; }
  68:src/../h/../h/../h/tcb.hpp **** 
  69:src/../h/../h/../h/tcb.hpp ****     bool is_blocked() const { return blocked; }
  70:src/../h/../h/../h/tcb.hpp ****     void set_blocked(bool b) { this->blocked = b; }
  71:src/../h/../h/../h/tcb.hpp **** 
  72:src/../h/../h/../h/tcb.hpp ****     bool is_main() const { return main; }
  73:src/../h/../h/../h/tcb.hpp ****     int get_id() const { return id; }
  74:src/../h/../h/../h/tcb.hpp ****     uint64 get_time_slice() const { return time_slice; }
  75:src/../h/../h/../h/tcb.hpp **** 
  76:src/../h/../h/../h/tcb.hpp ****     bool get_user_mode () const { return user_mode; }
  77:src/../h/../h/../h/tcb.hpp ****     void set_user_mode (bool value) { user_mode = value; }
  78:src/../h/../h/../h/tcb.hpp **** 
  79:src/../h/../h/../h/tcb.hpp ****     ~TCB(){
  80:src/../h/../h/../h/tcb.hpp ****         delete[] stack;
 281              		.loc 3 80 9 is_stmt 1
 282              		.loc 3 80 18 is_stmt 0
 283 019c 03B50401 		ld	a0,16(s1)
 284              		.loc 3 80 23
 285 01a0 63060500 		beqz	a0,.L16
 286              		.loc 3 80 18
 287 01a4 97000000 		call	_ZdaPv@plt
 287      E7800000 
 288              	.LVL20:
 289              	.L16:
 290              	.LBE38:
 291              	.LBE37:
 292              		.loc 1 44 12
 293 01ac 13850400 		mv	a0,s1
 294 01b0 97000000 		call	_ZdlPv@plt
 294      E7800000 
 295              	.LVL21:
 296              	.L15:
  45:src/main.cpp  ****     delete idle_t;
 297              		.loc 1 45 5 is_stmt 1
 298              		.loc 1 45 12 is_stmt 0
 299 01b8 833404FD 		ld	s1,-48(s0)
 300              		.loc 1 45 18
 301 01bc 63800402 		beqz	s1,.L17
 302              	.LVL22:
 303              	.LBB39:
 304              	.LBB40:
 305              		.loc 3 80 9 is_stmt 1
 306              		.loc 3 80 18 is_stmt 0
 307 01c0 03B50401 		ld	a0,16(s1)
 308              		.loc 3 80 23
 309 01c4 63060500 		beqz	a0,.L18
 310              		.loc 3 80 18
 311 01c8 97000000 		call	_ZdaPv@plt
 311      E7800000 
 312              	.LVL23:
GAS LISTING /tmp/cckeors0.s 			page 11


 313              	.L18:
 314              	.LBE40:
 315              	.LBE39:
 316              		.loc 1 45 12
 317 01d0 13850400 		mv	a0,s1
 318 01d4 97000000 		call	_ZdlPv@plt
 318      E7800000 
 319              	.LVL24:
 320              	.L17:
  46:src/main.cpp  ****     delete t1;
 321              		.loc 1 46 5 is_stmt 1
 322              		.loc 1 46 12 is_stmt 0
 323 01dc 833484FC 		ld	s1,-56(s0)
 324              		.loc 1 46 14
 325 01e0 63800402 		beqz	s1,.L19
 326              	.LVL25:
 327              	.LBB41:
 328              	.LBB42:
 329              		.loc 3 80 9 is_stmt 1
 330              		.loc 3 80 18 is_stmt 0
 331 01e4 03B50401 		ld	a0,16(s1)
 332              		.loc 3 80 23
 333 01e8 63060500 		beqz	a0,.L20
 334              		.loc 3 80 18
 335 01ec 97000000 		call	_ZdaPv@plt
 335      E7800000 
 336              	.LVL26:
 337              	.L20:
 338              	.LBE42:
 339              	.LBE41:
 340              		.loc 1 46 12
 341 01f4 13850400 		mv	a0,s1
 342 01f8 97000000 		call	_ZdlPv@plt
 342      E7800000 
 343              	.LVL27:
 344              	.L19:
  47:src/main.cpp  **** 
  48:src/main.cpp  ****     return 0;
 345              		.loc 1 48 5 is_stmt 1
  49:src/main.cpp  **** }...
 346              		.loc 1 49 1 is_stmt 0
 347 0200 13050000 		li	a0,0
 348 0204 83308103 		ld	ra,56(sp)
 349              		.cfi_restore 1
 350 0208 03340103 		ld	s0,48(sp)
 351              		.cfi_restore 8
 352              		.cfi_def_cfa 2, 64
 353 020c 83348102 		ld	s1,40(sp)
 354              		.cfi_restore 9
 355 0210 13010104 		addi	sp,sp,64
 356              		.cfi_def_cfa_offset 0
 357 0214 67800000 		jr	ra
 358              		.cfi_endproc
 359              	.LFE38:
 361              		.globl	finished_main
 362              		.bss
 363              		.set	.LANCHOR0,. + 0
GAS LISTING /tmp/cckeors0.s 			page 12


 366              	finished_main:
 367 0000 00       		.zero	1
 368              		.text
 369              	.Letext0:
 370              		.file 4 "src/../h/../lib/hw.h"
 371              		.file 5 "src/../h/syscall_c.h"
 372              		.file 6 "src/../h/../h/SleepingThreadsList.hpp"
 373              		.file 7 "src/../test/printing.hpp"
GAS LISTING /tmp/cckeors0.s 			page 13


DEFINED SYMBOLS
                            *ABS*:0000000000000000 main.cpp
     /tmp/cckeors0.s:17     .text:0000000000000000 _Z16userMain_wrapperPv
     /tmp/cckeors0.s:21     .text:0000000000000000 .L0 
     /tmp/cckeors0.s:22     .text:0000000000000000 .L0 
     /tmp/cckeors0.s:23     .text:0000000000000004 .L0 
     /tmp/cckeors0.s:26     .text:000000000000000c .L0 
     /tmp/cckeors0.s:27     .text:000000000000000c .L0 
     /tmp/cckeors0.s:29     .text:0000000000000010 .L0 
     /tmp/cckeors0.s:31     .text:0000000000000010 .L0 
     /tmp/cckeors0.s:32     .text:0000000000000010 .L0 
     /tmp/cckeors0.s:36     .text:0000000000000020 .L0 
     /tmp/cckeors0.s:37     .text:0000000000000020 .L0 
     /tmp/cckeors0.s:40     .text:0000000000000028 .L0 
     /tmp/cckeors0.s:41     .text:0000000000000028 .L0 
     /tmp/cckeors0.s:45     .text:0000000000000038 .L0 
     /tmp/cckeors0.s:46     .text:0000000000000038 .L0 
     /tmp/cckeors0.s:49     .text:0000000000000044 .L0 
     /tmp/cckeors0.s:50     .text:0000000000000048 .L0 
     /tmp/cckeors0.s:52     .text:000000000000004c .L0 
     /tmp/cckeors0.s:53     .text:000000000000004c .L0 
     /tmp/cckeors0.s:55     .text:0000000000000050 .L0 
     /tmp/cckeors0.s:57     .text:0000000000000054 .L0 
     /tmp/cckeors0.s:63     .text:0000000000000054 _Z4idlePv
     /tmp/cckeors0.s:66     .text:0000000000000054 .L0 
     /tmp/cckeors0.s:67     .text:0000000000000054 .L0 
     /tmp/cckeors0.s:68     .text:0000000000000054 .L0 
     /tmp/cckeors0.s:72     .text:0000000000000054 .L0 
     /tmp/cckeors0.s:73     .text:0000000000000054 .L0 
     /tmp/cckeors0.s:74     .text:0000000000000054 .L0 
     /tmp/cckeors0.s:79     .text:0000000000000060 .L0 
     /tmp/cckeors0.s:81     .text:0000000000000064 .L0 
     /tmp/cckeors0.s:82     .text:0000000000000068 .L0 
     /tmp/cckeors0.s:85     .text:0000000000000070 .L0 
     /tmp/cckeors0.s:86     .text:0000000000000070 .L0 
     /tmp/cckeors0.s:88     .text:0000000000000074 .L0 
     /tmp/cckeors0.s:91     .text:0000000000000074 .L0 
     /tmp/cckeors0.s:92     .text:0000000000000074 .L0 
     /tmp/cckeors0.s:95     .text:000000000000007c .L0 
     /tmp/cckeors0.s:98     .text:000000000000007c .L0 
     /tmp/cckeors0.s:99     .text:000000000000007c .L0 
     /tmp/cckeors0.s:100    .text:000000000000007c .L0 
     /tmp/cckeors0.s:105    .text:0000000000000088 .L0 
     /tmp/cckeors0.s:107    .text:000000000000008c .L0 
     /tmp/cckeors0.s:108    .text:0000000000000090 .L0 
     /tmp/cckeors0.s:110    .text:0000000000000094 .L0 
     /tmp/cckeors0.s:111    .text:0000000000000094 .L0 
     /tmp/cckeors0.s:113    .text:0000000000000098 .L0 
     /tmp/cckeors0.s:117    .text:00000000000000a0 .L0 
     /tmp/cckeors0.s:131    .text:00000000000000a0 main
     /tmp/cckeors0.s:134    .text:00000000000000a0 .L0 
     /tmp/cckeors0.s:135    .text:00000000000000a0 .L0 
     /tmp/cckeors0.s:136    .text:00000000000000a4 .L0 
     /tmp/cckeors0.s:140    .text:00000000000000b0 .L0 
     /tmp/cckeors0.s:141    .text:00000000000000b0 .L0 
     /tmp/cckeors0.s:142    .text:00000000000000b0 .L0 
     /tmp/cckeors0.s:144    .text:00000000000000b4 .L0 
GAS LISTING /tmp/cckeors0.s 			page 14


     /tmp/cckeors0.s:146    .text:00000000000000b4 .L0 
     /tmp/cckeors0.s:147    .text:00000000000000b4 .L0 
     /tmp/cckeors0.s:153    .text:00000000000000c0 .L0 
  src/../h/riscv.hpp:57     .text:00000000000000c0 .L0 
     /tmp/cckeors0.s:163    .text:00000000000000c4 .L0 
     /tmp/cckeors0.s:164    .text:00000000000000c4 .L0 
     /tmp/cckeors0.s:166    .text:00000000000000c8 .L0 
     /tmp/cckeors0.s:168    .text:00000000000000cc .L0 
     /tmp/cckeors0.s:170    .text:00000000000000d0 .L0 
     /tmp/cckeors0.s:171    .text:00000000000000d0 .L0 
     /tmp/cckeors0.s:177    .text:00000000000000e4 .L0 
     /tmp/cckeors0.s:178    .text:00000000000000e4 .L0 
     /tmp/cckeors0.s:185    .text:00000000000000f4 .L0 
     /tmp/cckeors0.s:186    .text:00000000000000f4 .L0 
     /tmp/cckeors0.s:187    .text:00000000000000f4 .L0 
     /tmp/cckeors0.s:197    .text:00000000000000fc .L0 
     /tmp/cckeors0.s:198    .text:00000000000000fc .L0 
     /tmp/cckeors0.s:204    .text:000000000000010c .L0 
     /tmp/cckeors0.s:205    .text:000000000000010c .L0 
     /tmp/cckeors0.s:206    .text:000000000000010c .L0 
     /tmp/cckeors0.s:213    .text:000000000000011c .L0 
     /tmp/cckeors0.s:214    .text:000000000000011c .L0 
     /tmp/cckeors0.s:220    .text:0000000000000134 .L0 
     /tmp/cckeors0.s:221    .text:0000000000000134 .L0 
     /tmp/cckeors0.s:228    .text:000000000000014c .L0 
     /tmp/cckeors0.s:229    .text:000000000000014c .L0 
     /tmp/cckeors0.s:232    .text:0000000000000158 .L0 
     /tmp/cckeors0.s:233    .text:0000000000000158 .L0 
     /tmp/cckeors0.s:241    .text:0000000000000164 .L0 
     /tmp/cckeors0.s:242    .text:0000000000000164 .L0 
     /tmp/cckeors0.s:243    .text:0000000000000164 .L0 
     /tmp/cckeors0.s:249    .text:0000000000000170 .L0 
     /tmp/cckeors0.s:250    .text:0000000000000170 .L0 
     /tmp/cckeors0.s:256    .text:0000000000000180 .L0 
     /tmp/cckeors0.s:257    .text:0000000000000180 .L0 
     /tmp/cckeors0.s:258    .text:0000000000000180 .L0 
     /tmp/cckeors0.s:268    .text:0000000000000188 .L0 
     /tmp/cckeors0.s:269    .text:0000000000000188 .L0 
     /tmp/cckeors0.s:273    .text:0000000000000194 .L0 
     /tmp/cckeors0.s:274    .text:0000000000000194 .L0 
     /tmp/cckeors0.s:276    .text:0000000000000198 .L0 
     /tmp/cckeors0.s:282    .text:000000000000019c .L0 
     /tmp/cckeors0.s:283    .text:000000000000019c .L0 
     /tmp/cckeors0.s:285    .text:00000000000001a0 .L0 
     /tmp/cckeors0.s:287    .text:00000000000001a4 .L0 
     /tmp/cckeors0.s:293    .text:00000000000001ac .L0 
     /tmp/cckeors0.s:298    .text:00000000000001b8 .L0 
     /tmp/cckeors0.s:299    .text:00000000000001b8 .L0 
     /tmp/cckeors0.s:301    .text:00000000000001bc .L0 
     /tmp/cckeors0.s:306    .text:00000000000001c0 .L0 
     /tmp/cckeors0.s:307    .text:00000000000001c0 .L0 
     /tmp/cckeors0.s:309    .text:00000000000001c4 .L0 
     /tmp/cckeors0.s:311    .text:00000000000001c8 .L0 
     /tmp/cckeors0.s:317    .text:00000000000001d0 .L0 
     /tmp/cckeors0.s:322    .text:00000000000001dc .L0 
     /tmp/cckeors0.s:323    .text:00000000000001dc .L0 
     /tmp/cckeors0.s:325    .text:00000000000001e0 .L0 
GAS LISTING /tmp/cckeors0.s 			page 15


     /tmp/cckeors0.s:330    .text:00000000000001e4 .L0 
     /tmp/cckeors0.s:331    .text:00000000000001e4 .L0 
     /tmp/cckeors0.s:333    .text:00000000000001e8 .L0 
     /tmp/cckeors0.s:335    .text:00000000000001ec .L0 
     /tmp/cckeors0.s:341    .text:00000000000001f4 .L0 
     /tmp/cckeors0.s:346    .text:0000000000000200 .L0 
     /tmp/cckeors0.s:347    .text:0000000000000200 .L0 
     /tmp/cckeors0.s:349    .text:0000000000000208 .L0 
     /tmp/cckeors0.s:351    .text:000000000000020c .L0 
     /tmp/cckeors0.s:352    .text:000000000000020c .L0 
     /tmp/cckeors0.s:354    .text:0000000000000210 .L0 
     /tmp/cckeors0.s:356    .text:0000000000000214 .L0 
     /tmp/cckeors0.s:358    .text:0000000000000218 .L0 
     /tmp/cckeors0.s:366    .bss:0000000000000000 finished_main
     /tmp/cckeors0.s:363    .bss:0000000000000000 .LANCHOR0
     /tmp/cckeors0.s:374    .text:0000000000000218 .L0 
     /tmp/cckeors0.s:8      .rodata.str1.8:0000000000000000 .LC0
     /tmp/cckeors0.s:32     .text:0000000000000010 .L0 
     /tmp/cckeors0.s:11     .rodata.str1.8:0000000000000018 .LC1
     /tmp/cckeors0.s:41     .text:0000000000000028 .L0 
     /tmp/cckeors0.s:47     .text:000000000000003c .L0 
     /tmp/cckeors0.s:74     .text:0000000000000054 .L0 
     /tmp/cckeors0.s:100    .text:000000000000007c .L0 
     /tmp/cckeors0.s:147    .text:00000000000000b4 .L0 
     /tmp/cckeors0.s:178    .text:00000000000000e4 .L0 
     /tmp/cckeors0.s:122    .rodata.str1.8:0000000000000030 .LC2
     /tmp/cckeors0.s:198    .text:00000000000000fc .L0 
     /tmp/cckeors0.s:206    .text:000000000000010c .L0 
     /tmp/cckeors0.s:215    .text:0000000000000120 .L0 
     /tmp/cckeors0.s:222    .text:0000000000000138 .L0 
     /tmp/cckeors0.s:229    .text:000000000000014c .L0 
     /tmp/cckeors0.s:243    .text:0000000000000164 .L0 
     /tmp/cckeors0.s:125    .rodata.str1.8:0000000000000048 .LC3
     /tmp/cckeors0.s:250    .text:0000000000000170 .L0 
     /tmp/cckeors0.s:115    .text:000000000000009c .L11
     /tmp/cckeors0.s:89     .text:0000000000000074 .L7
     /tmp/cckeors0.s:236    .text:0000000000000164 .L13
     /tmp/cckeors0.s:226    .text:000000000000014c .L14
     /tmp/cckeors0.s:296    .text:00000000000001b8 .L15
     /tmp/cckeors0.s:289    .text:00000000000001ac .L16
     /tmp/cckeors0.s:320    .text:00000000000001dc .L17
     /tmp/cckeors0.s:313    .text:00000000000001d0 .L18
     /tmp/cckeors0.s:344    .text:0000000000000200 .L19
     /tmp/cckeors0.s:337    .text:00000000000001f4 .L20
     /tmp/cckeors0.s:1787   .debug_abbrev:0000000000000000 .Ldebug_abbrev0
     /tmp/cckeors0.s:3112   .debug_str:0000000000000848 .LASF160
     /tmp/cckeors0.s:2936   .debug_str:00000000000002e4 .LASF161
     /tmp/cckeors0.s:3016   .debug_str:0000000000000568 .LASF162
     /tmp/cckeors0.s:5      .text:0000000000000000 .Ltext0
     /tmp/cckeors0.s:369    .text:0000000000000218 .Letext0
     /tmp/cckeors0.s:2848   .debug_line:0000000000000000 .Ldebug_line0
     /tmp/cckeors0.s:2970   .debug_str:0000000000000427 .LASF0
     /tmp/cckeors0.s:2984   .debug_str:000000000000047a .LASF1
     /tmp/cckeors0.s:3062   .debug_str:00000000000006c8 .LASF2
     /tmp/cckeors0.s:3068   .debug_str:00000000000006f9 .LASF4
     /tmp/cckeors0.s:2974   .debug_str:0000000000000440 .LASF3
     /tmp/cckeors0.s:2864   .debug_str:0000000000000085 .LASF5
GAS LISTING /tmp/cckeors0.s 			page 16


     /tmp/cckeors0.s:3042   .debug_str:0000000000000652 .LASF6
     /tmp/cckeors0.s:3034   .debug_str:00000000000005fe .LASF7
     /tmp/cckeors0.s:2978   .debug_str:0000000000000457 .LASF8
     /tmp/cckeors0.s:2944   .debug_str:0000000000000310 .LASF9
     /tmp/cckeors0.s:2948   .debug_str:000000000000033d .LASF10
     /tmp/cckeors0.s:2884   .debug_str:0000000000000120 .LASF11
     /tmp/cckeors0.s:2934   .debug_str:00000000000002d5 .LASF12
     /tmp/cckeors0.s:2900   .debug_str:000000000000019d .LASF13
     /tmp/cckeors0.s:2882   .debug_str:0000000000000110 .LASF14
     /tmp/cckeors0.s:3094   .debug_str:00000000000007c5 .LASF15
     /tmp/cckeors0.s:2924   .debug_str:0000000000000271 .LASF16
     /tmp/cckeors0.s:3082   .debug_str:000000000000075a .LASF17
     /tmp/cckeors0.s:3182   .debug_str:0000000000000acb .LASF18
     /tmp/cckeors0.s:2942   .debug_str:0000000000000307 .LASF19
     /tmp/cckeors0.s:3080   .debug_str:000000000000074c .LASF20
     /tmp/cckeors0.s:3048   .debug_str:0000000000000677 .LASF21
     /tmp/cckeors0.s:2914   .debug_str:000000000000021e .LASF22
     /tmp/cckeors0.s:3066   .debug_str:00000000000006ed .LASF23
     /tmp/cckeors0.s:2888   .debug_str:0000000000000134 .LASF24
     /tmp/cckeors0.s:2894   .debug_str:0000000000000168 .LASF25
     /tmp/cckeors0.s:3010   .debug_str:0000000000000552 .LASF26
     /tmp/cckeors0.s:3102   .debug_str:00000000000007f7 .LASF27
     /tmp/cckeors0.s:3164   .debug_str:0000000000000a4a .LASF28
     /tmp/cckeors0.s:2976   .debug_str:0000000000000452 .LASF29
     /tmp/cckeors0.s:3006   .debug_str:0000000000000535 .LASF30
     /tmp/cckeors0.s:3100   .debug_str:00000000000007ef .LASF79
     /tmp/cckeors0.s:3030   .debug_str:00000000000005ed .LASF31
     /tmp/cckeors0.s:2852   .debug_str:0000000000000018 .LASF32
     /tmp/cckeors0.s:3174   .debug_str:0000000000000a95 .LASF33
     /tmp/cckeors0.s:3078   .debug_str:0000000000000746 .LASF34
     /tmp/cckeors0.s:3120   .debug_str:0000000000000943 .LASF35
     /tmp/cckeors0.s:3056   .debug_str:00000000000006ab .LASF36
     /tmp/cckeors0.s:3098   .debug_str:00000000000007e6 .LASF37
     /tmp/cckeors0.s:3024   .debug_str:000000000000059f .LASF38
     /tmp/cckeors0.s:2908   .debug_str:00000000000001e9 .LASF39
     /tmp/cckeors0.s:3176   .debug_str:0000000000000a9a .LASF40
     /tmp/cckeors0.s:2980   .debug_str:000000000000046a .LASF41
     /tmp/cckeors0.s:3070   .debug_str:0000000000000700 .LASF93
     /tmp/cckeors0.s:3178   .debug_str:0000000000000a9f .LASF99
     /tmp/cckeors0.s:3172   .debug_str:0000000000000a87 .LASF163
     /tmp/cckeors0.s:2858   .debug_str:0000000000000047 .LASF164
     /tmp/cckeors0.s:2920   .debug_str:000000000000024a .LASF42
     /tmp/cckeors0.s:2856   .debug_str:000000000000002d .LASF44
     /tmp/cckeors0.s:2918   .debug_str:0000000000000241 .LASF43
     /tmp/cckeors0.s:2892   .debug_str:0000000000000155 .LASF45
     /tmp/cckeors0.s:3108   .debug_str:0000000000000833 .LASF46
     /tmp/cckeors0.s:3142   .debug_str:00000000000009b7 .LASF51
     /tmp/cckeors0.s:2952   .debug_str:000000000000035c .LASF53
     /tmp/cckeors0.s:2988   .debug_str:00000000000004aa .LASF107
     /tmp/cckeors0.s:3114   .debug_str:000000000000090c .LASF109
     /tmp/cckeors0.s:3106   .debug_str:000000000000082e .LASF47
     /tmp/cckeors0.s:2938   .debug_str:00000000000002f1 .LASF49
     /tmp/cckeors0.s:3170   .debug_str:0000000000000a76 .LASF48
     /tmp/cckeors0.s:2946   .debug_str:0000000000000320 .LASF50
     /tmp/cckeors0.s:3032   .debug_str:00000000000005f2 .LASF55
     /tmp/cckeors0.s:3008   .debug_str:000000000000053a .LASF57
     /tmp/cckeors0.s:3138   .debug_str:00000000000009a3 .LASF52
GAS LISTING /tmp/cckeors0.s 			page 17


     /tmp/cckeors0.s:2906   .debug_str:00000000000001d1 .LASF54
     /tmp/cckeors0.s:3038   .debug_str:000000000000061a .LASF56
     /tmp/cckeors0.s:2912   .debug_str:0000000000000206 .LASF58
     /tmp/cckeors0.s:3154   .debug_str:00000000000009fa .LASF59
     /tmp/cckeors0.s:2898   .debug_str:0000000000000185 .LASF60
     /tmp/cckeors0.s:3160   .debug_str:0000000000000a1b .LASF61
     /tmp/cckeors0.s:2872   .debug_str:00000000000000c5 .LASF62
     /tmp/cckeors0.s:2972   .debug_str:0000000000000434 .LASF63
     /tmp/cckeors0.s:2990   .debug_str:00000000000004b0 .LASF64
     /tmp/cckeors0.s:2876   .debug_str:00000000000000e9 .LASF65
     /tmp/cckeors0.s:3076   .debug_str:0000000000000733 .LASF66
     /tmp/cckeors0.s:3134   .debug_str:0000000000000997 .LASF67
     /tmp/cckeors0.s:2994   .debug_str:00000000000004d5 .LASF68
     /tmp/cckeors0.s:3116   .debug_str:000000000000091c .LASF69
     /tmp/cckeors0.s:2996   .debug_str:00000000000004e7 .LASF70
     /tmp/cckeors0.s:2992   .debug_str:00000000000004c7 .LASF71
     /tmp/cckeors0.s:3090   .debug_str:000000000000079d .LASF72
     /tmp/cckeors0.s:3044   .debug_str:0000000000000659 .LASF73
     /tmp/cckeors0.s:3180   .debug_str:0000000000000ab2 .LASF74
     /tmp/cckeors0.s:3050   .debug_str:0000000000000683 .LASF75
     /tmp/cckeors0.s:2860   .debug_str:000000000000006f .LASF76
     /tmp/cckeors0.s:3000   .debug_str:0000000000000516 .LASF77
     /tmp/cckeors0.s:2998   .debug_str:0000000000000502 .LASF78
     /tmp/cckeors0.s:3126   .debug_str:000000000000095a .LASF80
     /tmp/cckeors0.s:3058   .debug_str:00000000000006b6 .LASF81
     /tmp/cckeors0.s:2982   .debug_str:0000000000000474 .LASF82
     /tmp/cckeors0.s:2886   .debug_str:000000000000012f .LASF83
     /tmp/cckeors0.s:3088   .debug_str:0000000000000798 .LASF84
     /tmp/cckeors0.s:3014   .debug_str:0000000000000563 .LASF85
     /tmp/cckeors0.s:2986   .debug_str:000000000000048d .LASF86
     /tmp/cckeors0.s:3158   .debug_str:0000000000000a0c .LASF87
     /tmp/cckeors0.s:2964   .debug_str:00000000000003e3 .LASF88
     /tmp/cckeors0.s:3046   .debug_str:0000000000000667 .LASF89
     /tmp/cckeors0.s:3104   .debug_str:0000000000000802 .LASF90
     /tmp/cckeors0.s:2868   .debug_str:0000000000000097 .LASF91
     /tmp/cckeors0.s:3040   .debug_str:0000000000000626 .LASF92
     /tmp/cckeors0.s:3162   .debug_str:0000000000000a26 .LASF94
     /tmp/cckeors0.s:3122   .debug_str:000000000000094b .LASF95
     /tmp/cckeors0.s:2874   .debug_str:00000000000000dc .LASF165
     /tmp/cckeors0.s:2930   .debug_str:00000000000002b6 .LASF96
     /tmp/cckeors0.s:3110   .debug_str:000000000000083b .LASF97
     /tmp/cckeors0.s:2966   .debug_str:000000000000040e .LASF98
     /tmp/cckeors0.s:2926   .debug_str:0000000000000287 .LASF100
     /tmp/cckeors0.s:2880   .debug_str:00000000000000fb .LASF101
     /tmp/cckeors0.s:3084   .debug_str:0000000000000770 .LASF102
     /tmp/cckeors0.s:3096   .debug_str:00000000000007d1 .LASF103
     /tmp/cckeors0.s:2954   .debug_str:0000000000000383 .LASF104
     /tmp/cckeors0.s:3118   .debug_str:000000000000092b .LASF105
     /tmp/cckeors0.s:3026   .debug_str:00000000000005a7 .LASF106
     /tmp/cckeors0.s:2960   .debug_str:00000000000003c7 .LASF108
     /tmp/cckeors0.s:2850   .debug_str:0000000000000000 .LASF110
     /tmp/cckeors0.s:3012   .debug_str:000000000000055b .LASF111
     /tmp/cckeors0.s:2910   .debug_str:00000000000001f2 .LASF112
     /tmp/cckeors0.s:3132   .debug_str:0000000000000990 .LASF115
     /tmp/cckeors0.s:2916   .debug_str:000000000000022e .LASF117
     /tmp/cckeors0.s:3018   .debug_str:0000000000000585 .LASF113
     /tmp/cckeors0.s:2904   .debug_str:00000000000001be .LASF114
GAS LISTING /tmp/cckeors0.s 			page 18


     /tmp/cckeors0.s:3146   .debug_str:00000000000009cf .LASF116
     /tmp/cckeors0.s:3128   .debug_str:000000000000095f .LASF118
     /tmp/cckeors0.s:3144   .debug_str:00000000000009c5 .LASF119
     /tmp/cckeors0.s:2928   .debug_str:00000000000002a0 .LASF120
     /tmp/cckeors0.s:2866   .debug_str:000000000000008c .LASF121
     /tmp/cckeors0.s:2922   .debug_str:0000000000000259 .LASF122
     /tmp/cckeors0.s:3060   .debug_str:00000000000006bd .LASF123
     /tmp/cckeors0.s:2890   .debug_str:000000000000013d .LASF124
     /tmp/cckeors0.s:3152   .debug_str:00000000000009f5 .LASF125
     /tmp/cckeors0.s:2962   .debug_str:00000000000003d2 .LASF126
     /tmp/cckeors0.s:3124   .debug_str:0000000000000951 .LASF127
     /tmp/cckeors0.s:3168   .debug_str:0000000000000a61 .LASF128
     /tmp/cckeors0.s:3072   .debug_str:0000000000000717 .LASF129
     /tmp/cckeors0.s:3052   .debug_str:0000000000000688 .LASF130
     /tmp/cckeors0.s:3130   .debug_str:0000000000000975 .LASF131
     /tmp/cckeors0.s:2958   .debug_str:00000000000003ac .LASF132
     /tmp/cckeors0.s:2902   .debug_str:00000000000001ad .LASF133
     /tmp/cckeors0.s:2870   .debug_str:00000000000000a7 .LASF134
     /tmp/cckeors0.s:3004   .debug_str:0000000000000527 .LASF135
     /tmp/cckeors0.s:132    .text:00000000000000a0 .LFB38
     /tmp/cckeors0.s:359    .text:0000000000000218 .LFE38
     /tmp/cckeors0.s:3150   .debug_str:00000000000009ee .LASF136
     /tmp/cckeors0.s:2956   .debug_str:00000000000003a5 .LASF137
     /tmp/cckeors0.s:150    .text:00000000000000c0 .LBB27
     /tmp/cckeors0.s:161    .text:00000000000000c4 .LBE27
     /tmp/cckeors0.s:2767   .debug_loc:0000000000000000 .LLST0
     /tmp/cckeors0.s:183    .text:00000000000000f4 .LBB29
     /tmp/cckeors0.s:195    .text:00000000000000fc .LBE29
     /tmp/cckeors0.s:2774   .debug_loc:0000000000000023 .LLST1
     /tmp/cckeors0.s:202    .text:000000000000010c .LBB31
     /tmp/cckeors0.s:211    .text:000000000000011c .LBE31
     /tmp/cckeors0.s:2782   .debug_loc:0000000000000047 .LLST2
     /tmp/cckeors0.s:239    .text:0000000000000164 .LBB33
     /tmp/cckeors0.s:247    .text:0000000000000170 .LBE33
     /tmp/cckeors0.s:2790   .debug_loc:000000000000006b .LLST3
     /tmp/cckeors0.s:254    .text:0000000000000180 .LBB35
     /tmp/cckeors0.s:266    .text:0000000000000188 .LBE35
     /tmp/cckeors0.s:2798   .debug_loc:000000000000008f .LLST4
     /tmp/cckeors0.s:278    .text:000000000000019c .LBB37
     /tmp/cckeors0.s:291    .text:00000000000001ac .LBE37
     /tmp/cckeors0.s:2806   .debug_loc:00000000000000b3 .LLST5
     /tmp/cckeors0.s:288    .text:00000000000001ac .LVL20
     /tmp/cckeors0.s:303    .text:00000000000001c0 .LBB39
     /tmp/cckeors0.s:315    .text:00000000000001d0 .LBE39
     /tmp/cckeors0.s:2813   .debug_loc:00000000000000d6 .LLST6
     /tmp/cckeors0.s:312    .text:00000000000001d0 .LVL23
     /tmp/cckeors0.s:327    .text:00000000000001e4 .LBB41
     /tmp/cckeors0.s:339    .text:00000000000001f4 .LBE41
     /tmp/cckeors0.s:2820   .debug_loc:00000000000000f9 .LLST7
     /tmp/cckeors0.s:336    .text:00000000000001f4 .LVL26
     /tmp/cckeors0.s:175    .text:00000000000000e4 .LVL6
     /tmp/cckeors0.s:200    .text:000000000000010c .LVL9
     /tmp/cckeors0.s:218    .text:0000000000000134 .LVL11
     /tmp/cckeors0.s:225    .text:000000000000014c .LVL12
     /tmp/cckeors0.s:234    .text:0000000000000160 .LVL13
     /tmp/cckeors0.s:252    .text:0000000000000180 .LVL16
     /tmp/cckeors0.s:271    .text:0000000000000194 .LVL18
GAS LISTING /tmp/cckeors0.s 			page 19


     /tmp/cckeors0.s:295    .text:00000000000001b8 .LVL21
     /tmp/cckeors0.s:319    .text:00000000000001dc .LVL24
     /tmp/cckeors0.s:343    .text:0000000000000200 .LVL27
     /tmp/cckeors0.s:3156   .debug_str:0000000000000a07 .LASF138
     /tmp/cckeors0.s:2878   .debug_str:00000000000000f1 .LASF139
     /tmp/cckeors0.s:64     .text:0000000000000054 .LFB37
     /tmp/cckeors0.s:118    .text:00000000000000a0 .LFE37
     /tmp/cckeors0.s:69     .text:0000000000000054 .LBB23
     /tmp/cckeors0.s:2840   .debug_ranges:0000000000000000 .Ldebug_ranges0
     /tmp/cckeors0.s:93     .text:000000000000007c .LVL3
     /tmp/cckeors0.s:2950   .debug_str:000000000000034b .LASF140
     /tmp/cckeors0.s:3064   .debug_str:00000000000006d6 .LASF141
     /tmp/cckeors0.s:18     .text:0000000000000000 .LFB36
     /tmp/cckeors0.s:58     .text:0000000000000054 .LFE36
     /tmp/cckeors0.s:34     .text:0000000000000020 .LVL0
     /tmp/cckeors0.s:38     .text:0000000000000028 .LVL1
     /tmp/cckeors0.s:43     .text:0000000000000038 .LVL2
     /tmp/cckeors0.s:3136   .debug_str:000000000000099e .LASF142
     /tmp/cckeors0.s:3086   .debug_str:0000000000000792 .LASF143
     /tmp/cckeors0.s:2940   .debug_str:0000000000000302 .LASF144
     /tmp/cckeors0.s:2862   .debug_str:000000000000007b .LASF145
     /tmp/cckeors0.s:3002   .debug_str:000000000000051b .LASF166
     /tmp/cckeors0.s:3022   .debug_str:0000000000000598 .LASF154
     /tmp/cckeors0.s:2932   .debug_str:00000000000002c2 .LASF156
     /tmp/cckeors0.s:3028   .debug_str:00000000000005cc .LASF146
     /tmp/cckeors0.s:3092   .debug_str:00000000000007b7 .LASF148
     /tmp/cckeors0.s:2896   .debug_str:0000000000000172 .LASF147
     /tmp/cckeors0.s:3166   .debug_str:0000000000000a55 .LASF149
     /tmp/cckeors0.s:3148   .debug_str:00000000000009d9 .LASF150
     /tmp/cckeors0.s:3054   .debug_str:000000000000069b .LASF151
     /tmp/cckeors0.s:3074   .debug_str:000000000000071e .LASF152
     /tmp/cckeors0.s:3020   .debug_str:000000000000058c .LASF153
     /tmp/cckeors0.s:3140   .debug_str:00000000000009b0 .LASF155
     /tmp/cckeors0.s:2854   .debug_str:000000000000001d .LASF157
     /tmp/cckeors0.s:2968   .debug_str:000000000000041a .LASF158
     /tmp/cckeors0.s:3036   .debug_str:0000000000000611 .LASF159
     /tmp/cckeors0.s:149    .text:00000000000000c0 .LVL4
     /tmp/cckeors0.s:158    .text:00000000000000c4 .LVL5
     /tmp/cckeors0.s:182    .text:00000000000000f4 .LVL7
     /tmp/cckeors0.s:192    .text:00000000000000fc .LVL8
     /tmp/cckeors0.s:209    .text:000000000000011c .LVL10
     /tmp/cckeors0.s:238    .text:0000000000000164 .LVL14
     /tmp/cckeors0.s:245    .text:0000000000000170 .LVL15
     /tmp/cckeors0.s:263    .text:0000000000000188 .LVL17
     /tmp/cckeors0.s:277    .text:000000000000019c .LVL19
     /tmp/cckeors0.s:302    .text:00000000000001c0 .LVL22
     /tmp/cckeors0.s:326    .text:00000000000001e4 .LVL25
     /tmp/cckeors0.s:375    .debug_info:0000000000000000 .Ldebug_info0
     /tmp/cckeors0.s:77     .text:0000000000000060 .LBE23
     /tmp/cckeors0.s:96     .text:000000000000007c .LBB26
     /tmp/cckeors0.s:103    .text:0000000000000088 .LBE26

UNDEFINED SYMBOLS
_Z11printStringPKc
_Z8userMainv
_ZN5RiscV9user_modeE
_Z15thread_dispatchv
GAS LISTING /tmp/cckeors0.s 			page 20


_ZN5RiscV16interruptRoutineEv
_Z13thread_createPP3TCBPFvPvES2_
_ZN3TCB7runningE
_Z11thread_joinP3TCB
_ZdaPv
_ZdlPv
