GAS LISTING /tmp/cccsNBdk.s 			page 1


   1              		.file	"MemoryAllocator.cpp"
   2              		.option pic
   3              		.option norelax
   4              		.text
   5              	.Ltext0:
   6              		.align	2
   7              		.globl	_ZN15MemoryAllocatorC2Ev
   9              	_ZN15MemoryAllocatorC2Ev:
  10              	.LFB2:
  11              		.file 1 "src/MemoryAllocator.cpp"
   1:src/MemoryAllocator.cpp **** #include "../h/MemoryAllocator.hpp"
   2:src/MemoryAllocator.cpp **** 
   3:src/MemoryAllocator.cpp **** MemoryAllocator::MemoryAllocator() {
  12              		.loc 1 3 1
  13              		.cfi_startproc
  14              	.LVL0:
  15 0000 130101FF 		addi	sp,sp,-16
  16              		.cfi_def_cfa_offset 16
  17 0004 23348100 		sd	s0,8(sp)
  18              		.cfi_offset 8, -8
  19 0008 13040101 		addi	s0,sp,16
  20              		.cfi_def_cfa 8, 0
  21              	.LBB4:
  22              		.loc 1 3 34 is_stmt 0
  23 000c 23300500 		sd	zero,0(a0)
  24              	.LBB5:
   4:src/MemoryAllocator.cpp ****     const size_t heap_start = (size_t) HEAP_START_ADDR - ((size_t) HEAP_START_ADDR % MEM_BLOCK_SIZE
  25              		.loc 1 4 5 is_stmt 1
  26              		.loc 1 4 56 is_stmt 0
  27 0010 97070000 		la	a5,HEAP_START_ADDR
  27      83B70700 
  28 0018 83B70700 		ld	a5,0(a5)
  29 001c 93F707FC 		andi	a5,a5,-64
  30              		.loc 1 4 18
  31 0020 93860704 		addi	a3,a5,64
  32              	.LVL1:
   5:src/MemoryAllocator.cpp ****     const auto heap_end = (size_t) HEAP_END_ADDR;
  33              		.loc 1 5 5 is_stmt 1
  34              		.loc 1 5 16 is_stmt 0
  35 0024 17070000 		la	a4,HEAP_END_ADDR
  35      03370700 
  36 002c 03370700 		ld	a4,0(a4)
  37              	.LVL2:
   6:src/MemoryAllocator.cpp **** 
   7:src/MemoryAllocator.cpp ****     head = (Segment*) (heap_start - sizeof(Segment::size));
  38              		.loc 1 7 5 is_stmt 1
  39              		.loc 1 7 35 is_stmt 0
  40 0030 13868703 		addi	a2,a5,56
  41              		.loc 1 7 10
  42 0034 2330C500 		sd	a2,0(a0)
   8:src/MemoryAllocator.cpp ****     head->size = (heap_end - heap_start) / MEM_BLOCK_SIZE;
  43              		.loc 1 8 5 is_stmt 1
  44              		.loc 1 8 28 is_stmt 0
  45 0038 3307D740 		sub	a4,a4,a3
  46              	.LVL3:
  47              		.loc 1 8 42
  48 003c 13576700 		srli	a4,a4,6
GAS LISTING /tmp/cccsNBdk.s 			page 2


  49              		.loc 1 8 16
  50 0040 23BCE702 		sd	a4,56(a5)
   9:src/MemoryAllocator.cpp ****     head->next = nullptr;
  51              		.loc 1 9 5 is_stmt 1
  52 0044 83370500 		ld	a5,0(a0)
  53              		.loc 1 9 16 is_stmt 0
  54 0048 23B40700 		sd	zero,8(a5)
  55              	.LBE5:
  56              	.LBE4:
  10:src/MemoryAllocator.cpp **** }
  57              		.loc 1 10 1
  58 004c 03348100 		ld	s0,8(sp)
  59              		.cfi_restore 8
  60              		.cfi_def_cfa 2, 16
  61 0050 13010101 		addi	sp,sp,16
  62              		.cfi_def_cfa_offset 0
  63 0054 67800000 		jr	ra
  64              		.cfi_endproc
  65              	.LFE2:
  67              		.globl	_ZN15MemoryAllocatorC1Ev
  68              		.set	_ZN15MemoryAllocatorC1Ev,_ZN15MemoryAllocatorC2Ev
  69              		.align	2
  70              		.globl	_ZN15MemoryAllocator9tryToJoinEPKNS_7SegmentES2_
  72              	_ZN15MemoryAllocator9tryToJoinEPKNS_7SegmentES2_:
  73              	.LFB4:
  11:src/MemoryAllocator.cpp **** 
  12:src/MemoryAllocator.cpp **** bool MemoryAllocator::tryToJoin(const MemoryAllocator::Segment *left, const MemoryAllocator::Segmen
  74              		.loc 1 12 110 is_stmt 1
  75              		.cfi_startproc
  76              	.LVL4:
  77 0058 130101FF 		addi	sp,sp,-16
  78              		.cfi_def_cfa_offset 16
  79 005c 23348100 		sd	s0,8(sp)
  80              		.cfi_offset 8, -8
  81 0060 13040101 		addi	s0,sp,16
  82              		.cfi_def_cfa 8, 0
  13:src/MemoryAllocator.cpp ****     return (size_t) left + (left->size + 1) * MEM_BLOCK_SIZE == (size_t) right;
  83              		.loc 1 13 5
  84              		.loc 1 13 35 is_stmt 0
  85 0064 83370500 		ld	a5,0(a0)
  86              		.loc 1 13 40
  87 0068 93871700 		addi	a5,a5,1
  88              		.loc 1 13 45
  89 006c 93976700 		slli	a5,a5,6
  90              		.loc 1 13 26
  91 0070 3305F500 		add	a0,a0,a5
  92              	.LVL5:
  93              		.loc 1 13 74
  94 0074 3305B540 		sub	a0,a0,a1
  14:src/MemoryAllocator.cpp **** }
  95              		.loc 1 14 1
  96 0078 13351500 		seqz	a0,a0
  97 007c 03348100 		ld	s0,8(sp)
  98              		.cfi_restore 8
  99              		.cfi_def_cfa 2, 16
 100 0080 13010101 		addi	sp,sp,16
 101              		.cfi_def_cfa_offset 0
GAS LISTING /tmp/cccsNBdk.s 			page 3


 102 0084 67800000 		jr	ra
 103              		.cfi_endproc
 104              	.LFE4:
 106              		.align	2
 107              		.globl	_ZN15MemoryAllocator11getInstanceEv
 109              	_ZN15MemoryAllocator11getInstanceEv:
 110              	.LFB5:
  15:src/MemoryAllocator.cpp **** 
  16:src/MemoryAllocator.cpp **** MemoryAllocator& MemoryAllocator::getInstance() {
 111              		.loc 1 16 49 is_stmt 1
 112              		.cfi_startproc
  17:src/MemoryAllocator.cpp ****     static MemoryAllocator instance;
 113              		.loc 1 17 5
 114              		.loc 1 17 28 is_stmt 0
 115 0088 97070000 		lbu	a5,.LANCHOR0
 115      83C70700 
 116 0090 63880700 		beqz	a5,.L11
  18:src/MemoryAllocator.cpp **** 
  19:src/MemoryAllocator.cpp ****     return instance;
 117              		.loc 1 19 5 is_stmt 1
  20:src/MemoryAllocator.cpp **** }
 118              		.loc 1 20 1 is_stmt 0
 119 0094 17050000 		lla	a0,.LANCHOR0+8
 119      13050500 
 120 009c 67800000 		ret
 121              	.L11:
  16:src/MemoryAllocator.cpp ****     static MemoryAllocator instance;
 122              		.loc 1 16 49 discriminator 1
 123 00a0 130101FF 		addi	sp,sp,-16
 124              		.cfi_def_cfa_offset 16
 125 00a4 23341100 		sd	ra,8(sp)
 126 00a8 23308100 		sd	s0,0(sp)
 127              		.cfi_offset 1, -8
 128              		.cfi_offset 8, -16
 129 00ac 13040101 		addi	s0,sp,16
 130              		.cfi_def_cfa 8, 0
  17:src/MemoryAllocator.cpp **** 
 131              		.loc 1 17 28 discriminator 1
 132 00b0 17050000 		lla	a0,.LANCHOR0+8
 132      13050500 
 133 00b8 97000000 		call	_ZN15MemoryAllocatorC1Ev
 133      E7800000 
 134              	.LVL6:
 135 00c0 93071000 		li	a5,1
 136 00c4 17070000 		sb	a5,.LANCHOR0,a4
 136      2300F700 
  19:src/MemoryAllocator.cpp **** }
 137              		.loc 1 19 5 is_stmt 1 discriminator 1
 138              		.loc 1 20 1 is_stmt 0 discriminator 1
 139 00cc 17050000 		lla	a0,.LANCHOR0+8
 139      13050500 
 140 00d4 83308100 		ld	ra,8(sp)
 141              		.cfi_restore 1
 142 00d8 03340100 		ld	s0,0(sp)
 143              		.cfi_restore 8
 144              		.cfi_def_cfa 2, 16
 145 00dc 13010101 		addi	sp,sp,16
GAS LISTING /tmp/cccsNBdk.s 			page 4


 146              		.cfi_def_cfa_offset 0
 147 00e0 67800000 		jr	ra
 148              		.cfi_endproc
 149              	.LFE5:
 151              		.align	2
 152              		.globl	_ZN15MemoryAllocator14allocateBlocksERPNS_7SegmentEm
 154              	_ZN15MemoryAllocator14allocateBlocksERPNS_7SegmentEm:
 155              	.LFB8:
  21:src/MemoryAllocator.cpp **** 
  22:src/MemoryAllocator.cpp **** void* MemoryAllocator::mallocBytes(size_t size) {
  23:src/MemoryAllocator.cpp ****     return malloc(convert(size));
  24:src/MemoryAllocator.cpp **** }
  25:src/MemoryAllocator.cpp **** 
  26:src/MemoryAllocator.cpp **** void* MemoryAllocator::malloc(size_t size) {
  27:src/MemoryAllocator.cpp ****     if(!head) return nullptr;
  28:src/MemoryAllocator.cpp ****     if(size <= 0) return nullptr;
  29:src/MemoryAllocator.cpp **** 
  30:src/MemoryAllocator.cpp ****     Segment* cur = head;
  31:src/MemoryAllocator.cpp ****     void* allocated = allocateBlocks(cur, size);
  32:src/MemoryAllocator.cpp **** 
  33:src/MemoryAllocator.cpp ****     if(!allocated){
  34:src/MemoryAllocator.cpp ****         for(Segment* prev = head; cur; cur = cur->next){
  35:src/MemoryAllocator.cpp ****             if((allocated = allocateBlocks(cur, size))){
  36:src/MemoryAllocator.cpp ****                 prev->next = cur;
  37:src/MemoryAllocator.cpp **** 
  38:src/MemoryAllocator.cpp ****                 return allocated;
  39:src/MemoryAllocator.cpp ****             }
  40:src/MemoryAllocator.cpp ****         }
  41:src/MemoryAllocator.cpp **** 
  42:src/MemoryAllocator.cpp ****         return nullptr;
  43:src/MemoryAllocator.cpp ****     }
  44:src/MemoryAllocator.cpp **** 
  45:src/MemoryAllocator.cpp ****     head = cur;
  46:src/MemoryAllocator.cpp ****     return allocated;
  47:src/MemoryAllocator.cpp **** 
  48:src/MemoryAllocator.cpp **** }
  49:src/MemoryAllocator.cpp **** 
  50:src/MemoryAllocator.cpp **** void* MemoryAllocator::allocateBlocks(MemoryAllocator::Segment *&header, size_t requested_blocks) {
 156              		.loc 1 50 99 is_stmt 1
 157              		.cfi_startproc
 158              	.LVL7:
 159 00e4 130101FF 		addi	sp,sp,-16
 160              		.cfi_def_cfa_offset 16
 161 00e8 23348100 		sd	s0,8(sp)
 162              		.cfi_offset 8, -8
 163 00ec 13040101 		addi	s0,sp,16
 164              		.cfi_def_cfa 8, 0
  51:src/MemoryAllocator.cpp ****     if(!header) return nullptr;
 165              		.loc 1 51 5
 166              		.loc 1 51 9 is_stmt 0
 167 00f0 03370500 		ld	a4,0(a0)
 168              		.loc 1 51 5
 169 00f4 63040706 		beqz	a4,.L15
 170 00f8 93070500 		mv	a5,a0
  52:src/MemoryAllocator.cpp ****     if(!requested_blocks) return nullptr;
 171              		.loc 1 52 5 is_stmt 1
 172 00fc 63840506 		beqz	a1,.L16
GAS LISTING /tmp/cccsNBdk.s 			page 5


  53:src/MemoryAllocator.cpp **** 
  54:src/MemoryAllocator.cpp ****     if(header->size < requested_blocks) return nullptr;
 173              		.loc 1 54 5
 174              		.loc 1 54 16 is_stmt 0
 175 0100 03360700 		ld	a2,0(a4)
 176              		.loc 1 54 5
 177 0104 6364B606 		bltu	a2,a1,.L17
  55:src/MemoryAllocator.cpp ****     void* memory_start = (void*) ((size_t) header + sizeof(Segment::size));
 178              		.loc 1 55 5 is_stmt 1
 179              		.loc 1 55 51 is_stmt 0
 180 0108 13058700 		addi	a0,a4,8
 181              	.LVL8:
  56:src/MemoryAllocator.cpp **** 
  57:src/MemoryAllocator.cpp ****     if(header->size > requested_blocks + 1){
 182              		.loc 1 57 5 is_stmt 1
 183              	.LBB6:
 184              		.loc 1 57 40 is_stmt 0
 185 010c 93861500 		addi	a3,a1,1
 186              		.loc 1 57 5
 187 0110 63ECC600 		bgtu	a2,a3,.L19
 188              	.LBE6:
  58:src/MemoryAllocator.cpp ****         auto* leftover = (Segment*) ((size_t) header + MEM_BLOCK_SIZE * (requested_blocks + 1));
  59:src/MemoryAllocator.cpp ****         leftover->next = header->next;
  60:src/MemoryAllocator.cpp ****         leftover->size = header->size - (requested_blocks + 1);
  61:src/MemoryAllocator.cpp ****         header->size = requested_blocks;
  62:src/MemoryAllocator.cpp ****         header = leftover;
  63:src/MemoryAllocator.cpp **** 
  64:src/MemoryAllocator.cpp ****         return memory_start;
  65:src/MemoryAllocator.cpp ****     }
  66:src/MemoryAllocator.cpp **** 
  67:src/MemoryAllocator.cpp ****     header = header->next;
 189              		.loc 1 67 5 is_stmt 1
 190              		.loc 1 67 22 is_stmt 0
 191 0114 03378700 		ld	a4,8(a4)
 192              		.loc 1 67 12
 193 0118 23B0E700 		sd	a4,0(a5)
  68:src/MemoryAllocator.cpp ****     return memory_start;
 194              		.loc 1 68 5 is_stmt 1
 195              	.LVL9:
 196              	.L12:
  69:src/MemoryAllocator.cpp **** }
 197              		.loc 1 69 1 is_stmt 0
 198 011c 03348100 		ld	s0,8(sp)
 199              		.cfi_remember_state
 200              		.cfi_restore 8
 201              		.cfi_def_cfa 2, 16
 202 0120 13010101 		addi	sp,sp,16
 203              		.cfi_def_cfa_offset 0
 204 0124 67800000 		jr	ra
 205              	.LVL10:
 206              	.L19:
 207              		.cfi_restore_state
 208              	.LBB8:
 209              	.LBB7:
  58:src/MemoryAllocator.cpp ****         auto* leftover = (Segment*) ((size_t) header + MEM_BLOCK_SIZE * (requested_blocks + 1));
 210              		.loc 1 58 9 is_stmt 1
  58:src/MemoryAllocator.cpp ****         auto* leftover = (Segment*) ((size_t) header + MEM_BLOCK_SIZE * (requested_blocks + 1));
GAS LISTING /tmp/cccsNBdk.s 			page 6


 211              		.loc 1 58 71 is_stmt 0
 212 0128 93966600 		slli	a3,a3,6
  58:src/MemoryAllocator.cpp ****         auto* leftover = (Segment*) ((size_t) header + MEM_BLOCK_SIZE * (requested_blocks + 1));
 213              		.loc 1 58 54
 214 012c B306D700 		add	a3,a4,a3
 215              	.LVL11:
  59:src/MemoryAllocator.cpp ****         leftover->size = header->size - (requested_blocks + 1);
 216              		.loc 1 59 9 is_stmt 1
  59:src/MemoryAllocator.cpp ****         leftover->size = header->size - (requested_blocks + 1);
 217              		.loc 1 59 34 is_stmt 0
 218 0130 03378700 		ld	a4,8(a4)
  59:src/MemoryAllocator.cpp ****         leftover->size = header->size - (requested_blocks + 1);
 219              		.loc 1 59 24
 220 0134 23B4E600 		sd	a4,8(a3)
  60:src/MemoryAllocator.cpp ****         header->size = requested_blocks;
 221              		.loc 1 60 9 is_stmt 1
  60:src/MemoryAllocator.cpp ****         header->size = requested_blocks;
 222              		.loc 1 60 26 is_stmt 0
 223 0138 03B70700 		ld	a4,0(a5)
  60:src/MemoryAllocator.cpp ****         header->size = requested_blocks;
 224              		.loc 1 60 34
 225 013c 03370700 		ld	a4,0(a4)
  60:src/MemoryAllocator.cpp ****         header->size = requested_blocks;
 226              		.loc 1 60 39
 227 0140 3307B740 		sub	a4,a4,a1
 228 0144 1307F7FF 		addi	a4,a4,-1
  60:src/MemoryAllocator.cpp ****         header->size = requested_blocks;
 229              		.loc 1 60 24
 230 0148 23B0E600 		sd	a4,0(a3)
  61:src/MemoryAllocator.cpp ****         header = leftover;
 231              		.loc 1 61 9 is_stmt 1
 232 014c 03B70700 		ld	a4,0(a5)
  61:src/MemoryAllocator.cpp ****         header = leftover;
 233              		.loc 1 61 22 is_stmt 0
 234 0150 2330B700 		sd	a1,0(a4)
  62:src/MemoryAllocator.cpp **** 
 235              		.loc 1 62 9 is_stmt 1
  62:src/MemoryAllocator.cpp **** 
 236              		.loc 1 62 16 is_stmt 0
 237 0154 23B0D700 		sd	a3,0(a5)
  64:src/MemoryAllocator.cpp ****     }
 238              		.loc 1 64 9 is_stmt 1
  64:src/MemoryAllocator.cpp ****     }
 239              		.loc 1 64 16 is_stmt 0
 240 0158 6FF05FFC 		j	.L12
 241              	.LVL12:
 242              	.L15:
 243              	.LBE7:
 244              	.LBE8:
  51:src/MemoryAllocator.cpp ****     if(!requested_blocks) return nullptr;
 245              		.loc 1 51 24
 246 015c 13050700 		mv	a0,a4
 247              	.LVL13:
 248 0160 6FF0DFFB 		j	.L12
 249              	.LVL14:
 250              	.L16:
  52:src/MemoryAllocator.cpp **** 
GAS LISTING /tmp/cccsNBdk.s 			page 7


 251              		.loc 1 52 34
 252 0164 13050000 		li	a0,0
 253              	.LVL15:
 254 0168 6FF05FFB 		j	.L12
 255              	.LVL16:
 256              	.L17:
  54:src/MemoryAllocator.cpp ****     void* memory_start = (void*) ((size_t) header + sizeof(Segment::size));
 257              		.loc 1 54 48
 258 016c 13050000 		li	a0,0
 259              	.LVL17:
 260 0170 6FF0DFFA 		j	.L12
 261              		.cfi_endproc
 262              	.LFE8:
 264              		.align	2
 265              		.globl	_ZN15MemoryAllocator6mallocEm
 267              	_ZN15MemoryAllocator6mallocEm:
 268              	.LFB7:
  26:src/MemoryAllocator.cpp ****     if(!head) return nullptr;
 269              		.loc 1 26 44 is_stmt 1
 270              		.cfi_startproc
 271              	.LVL18:
 272 0174 130101FD 		addi	sp,sp,-48
 273              		.cfi_def_cfa_offset 48
 274 0178 23341102 		sd	ra,40(sp)
 275 017c 23308102 		sd	s0,32(sp)
 276 0180 233C9100 		sd	s1,24(sp)
 277 0184 23382101 		sd	s2,16(sp)
 278              		.cfi_offset 1, -8
 279              		.cfi_offset 8, -16
 280              		.cfi_offset 9, -24
 281              		.cfi_offset 18, -32
 282 0188 13040103 		addi	s0,sp,48
 283              		.cfi_def_cfa 8, 0
 284 018c 13090500 		mv	s2,a0
  27:src/MemoryAllocator.cpp ****     if(size <= 0) return nullptr;
 285              		.loc 1 27 5
  27:src/MemoryAllocator.cpp ****     if(size <= 0) return nullptr;
 286              		.loc 1 27 9 is_stmt 0
 287 0190 03350500 		ld	a0,0(a0)
 288              	.LVL19:
  27:src/MemoryAllocator.cpp ****     if(size <= 0) return nullptr;
 289              		.loc 1 27 5
 290 0194 63040502 		beqz	a0,.L20
 291 0198 93840500 		mv	s1,a1
  28:src/MemoryAllocator.cpp **** 
 292              		.loc 1 28 5 is_stmt 1
 293 019c 638A0506 		beqz	a1,.L25
  30:src/MemoryAllocator.cpp ****     void* allocated = allocateBlocks(cur, size);
 294              		.loc 1 30 5
  30:src/MemoryAllocator.cpp ****     void* allocated = allocateBlocks(cur, size);
 295              		.loc 1 30 14 is_stmt 0
 296 01a0 233CA4FC 		sd	a0,-40(s0)
  31:src/MemoryAllocator.cpp **** 
 297              		.loc 1 31 5 is_stmt 1
  31:src/MemoryAllocator.cpp **** 
 298              		.loc 1 31 37 is_stmt 0
 299 01a4 130584FD 		addi	a0,s0,-40
GAS LISTING /tmp/cccsNBdk.s 			page 8


 300 01a8 97000000 		call	_ZN15MemoryAllocator14allocateBlocksERPNS_7SegmentEm
 300      E7800000 
 301              	.LVL20:
  33:src/MemoryAllocator.cpp ****         for(Segment* prev = head; cur; cur = cur->next){
 302              		.loc 1 33 5 is_stmt 1
 303              	.LBB9:
 304 01b0 63020502 		beqz	a0,.L27
 305              	.LBE9:
  45:src/MemoryAllocator.cpp ****     return allocated;
 306              		.loc 1 45 5
  45:src/MemoryAllocator.cpp ****     return allocated;
 307              		.loc 1 45 10 is_stmt 0
 308 01b4 833784FD 		ld	a5,-40(s0)
 309 01b8 2330F900 		sd	a5,0(s2)
  46:src/MemoryAllocator.cpp **** 
 310              		.loc 1 46 5 is_stmt 1
 311              	.LVL21:
 312              	.L20:
  48:src/MemoryAllocator.cpp **** 
 313              		.loc 1 48 1 is_stmt 0
 314 01bc 83308102 		ld	ra,40(sp)
 315              		.cfi_remember_state
 316              		.cfi_restore 1
 317 01c0 03340102 		ld	s0,32(sp)
 318              		.cfi_restore 8
 319              		.cfi_def_cfa 2, 48
 320 01c4 83348101 		ld	s1,24(sp)
 321              		.cfi_restore 9
 322 01c8 03390101 		ld	s2,16(sp)
 323              		.cfi_restore 18
 324 01cc 13010103 		addi	sp,sp,48
 325              		.cfi_def_cfa_offset 0
 326 01d0 67800000 		jr	ra
 327              	.LVL22:
 328              	.L27:
 329              		.cfi_restore_state
 330              	.LBB12:
 331              	.LBB10:
  34:src/MemoryAllocator.cpp ****             if((allocated = allocateBlocks(cur, size))){
 332              		.loc 1 34 9 is_stmt 1
 333              	.LBB11:
  34:src/MemoryAllocator.cpp ****             if((allocated = allocateBlocks(cur, size))){
 334              		.loc 1 34 22 is_stmt 0
 335 01d4 03390900 		ld	s2,0(s2)
 336              	.LVL23:
 337              	.L24:
  34:src/MemoryAllocator.cpp ****             if((allocated = allocateBlocks(cur, size))){
 338              		.loc 1 34 35 is_stmt 1 discriminator 1
 339 01d8 033584FD 		ld	a0,-40(s0)
 340              	.LVL24:
 341 01dc E30005FE 		beqz	a0,.L20
  35:src/MemoryAllocator.cpp ****                 prev->next = cur;
 342              		.loc 1 35 13
  35:src/MemoryAllocator.cpp ****                 prev->next = cur;
 343              		.loc 1 35 43 is_stmt 0
 344 01e0 93850400 		mv	a1,s1
 345 01e4 130584FD 		addi	a0,s0,-40
GAS LISTING /tmp/cccsNBdk.s 			page 9


 346 01e8 97000000 		call	_ZN15MemoryAllocator14allocateBlocksERPNS_7SegmentEm
 346      E7800000 
 347              	.LVL25:
  35:src/MemoryAllocator.cpp ****                 prev->next = cur;
 348              		.loc 1 35 13
 349 01f0 631A0500 		bnez	a0,.L28
  34:src/MemoryAllocator.cpp ****             if((allocated = allocateBlocks(cur, size))){
 350              		.loc 1 34 9 is_stmt 1 discriminator 2
  34:src/MemoryAllocator.cpp ****             if((allocated = allocateBlocks(cur, size))){
 351              		.loc 1 34 51 is_stmt 0 discriminator 2
 352 01f4 833784FD 		ld	a5,-40(s0)
 353 01f8 83B78700 		ld	a5,8(a5)
  34:src/MemoryAllocator.cpp ****             if((allocated = allocateBlocks(cur, size))){
 354              		.loc 1 34 44 discriminator 2
 355 01fc 233CF4FC 		sd	a5,-40(s0)
  34:src/MemoryAllocator.cpp ****             if((allocated = allocateBlocks(cur, size))){
 356              		.loc 1 34 9 discriminator 2
 357 0200 6FF09FFD 		j	.L24
 358              	.L28:
  36:src/MemoryAllocator.cpp **** 
 359              		.loc 1 36 17 is_stmt 1
  36:src/MemoryAllocator.cpp **** 
 360              		.loc 1 36 28 is_stmt 0
 361 0204 833784FD 		ld	a5,-40(s0)
 362 0208 2334F900 		sd	a5,8(s2)
  38:src/MemoryAllocator.cpp ****             }
 363              		.loc 1 38 17 is_stmt 1
  38:src/MemoryAllocator.cpp ****             }
 364              		.loc 1 38 24 is_stmt 0
 365 020c 6FF01FFB 		j	.L20
 366              	.LVL26:
 367              	.L25:
 368              	.LBE11:
 369              	.LBE10:
 370              	.LBE12:
  28:src/MemoryAllocator.cpp **** 
 371              		.loc 1 28 26
 372 0210 13050000 		li	a0,0
 373 0214 6FF09FFA 		j	.L20
 374              		.cfi_endproc
 375              	.LFE7:
 377              		.align	2
 378              		.globl	_ZN15MemoryAllocator11mallocBytesEm
 380              	_ZN15MemoryAllocator11mallocBytesEm:
 381              	.LFB6:
  22:src/MemoryAllocator.cpp ****     return malloc(convert(size));
 382              		.loc 1 22 49 is_stmt 1
 383              		.cfi_startproc
 384              	.LVL27:
 385 0218 130101FF 		addi	sp,sp,-16
 386              		.cfi_def_cfa_offset 16
 387 021c 23341100 		sd	ra,8(sp)
 388 0220 23308100 		sd	s0,0(sp)
 389              		.cfi_offset 1, -8
 390              		.cfi_offset 8, -16
 391 0224 13040101 		addi	s0,sp,16
 392              		.cfi_def_cfa 8, 0
GAS LISTING /tmp/cccsNBdk.s 			page 10


  23:src/MemoryAllocator.cpp **** }
 393              		.loc 1 23 5
 394              	.LVL28:
 395              	.LBB13:
 396              	.LBB14:
 397              		.file 2 "src/../h/MemoryAllocator.hpp"
   1:src/../h/MemoryAllocator.hpp **** #ifndef PROJECT_BASE_V1_1_MEMORYALLOCATOR_HPP
   2:src/../h/MemoryAllocator.hpp **** #define PROJECT_BASE_V1_1_MEMORYALLOCATOR_HPP
   3:src/../h/MemoryAllocator.hpp **** 
   4:src/../h/MemoryAllocator.hpp **** #include "../lib/hw.h"
   5:src/../h/MemoryAllocator.hpp **** 
   6:src/../h/MemoryAllocator.hpp **** class MemoryAllocator{
   7:src/../h/MemoryAllocator.hpp **** private:
   8:src/../h/MemoryAllocator.hpp ****     struct Segment{
   9:src/../h/MemoryAllocator.hpp ****         size_t size;
  10:src/../h/MemoryAllocator.hpp ****         Segment* next;
  11:src/../h/MemoryAllocator.hpp ****     };
  12:src/../h/MemoryAllocator.hpp **** 
  13:src/../h/MemoryAllocator.hpp ****     Segment* head = nullptr;
  14:src/../h/MemoryAllocator.hpp **** 
  15:src/../h/MemoryAllocator.hpp ****     MemoryAllocator();
  16:src/../h/MemoryAllocator.hpp **** 
  17:src/../h/MemoryAllocator.hpp ****     static void* allocateBlocks(Segment* &header, size_t size);
  18:src/../h/MemoryAllocator.hpp ****     static bool tryToJoin(const MemoryAllocator::Segment *left, const MemoryAllocator::Segment *rig
  19:src/../h/MemoryAllocator.hpp **** 
  20:src/../h/MemoryAllocator.hpp **** public:
  21:src/../h/MemoryAllocator.hpp ****     MemoryAllocator(const MemoryAllocator&)=delete;
  22:src/../h/MemoryAllocator.hpp ****     MemoryAllocator& operator=(const MemoryAllocator&)=delete;
  23:src/../h/MemoryAllocator.hpp **** 
  24:src/../h/MemoryAllocator.hpp ****     void* malloc(size_t);
  25:src/../h/MemoryAllocator.hpp ****     void* mallocBytes(size_t);
  26:src/../h/MemoryAllocator.hpp **** 
  27:src/../h/MemoryAllocator.hpp ****     int free(void*);
  28:src/../h/MemoryAllocator.hpp **** 
  29:src/../h/MemoryAllocator.hpp ****     static MemoryAllocator& getInstance();
  30:src/../h/MemoryAllocator.hpp ****     static size_t convert(size_t bytes) { return (bytes + MEM_BLOCK_SIZE - 1) / MEM_BLOCK_SIZE; }
 398              		.loc 2 30 43
 399              		.loc 2 30 74 is_stmt 0
 400 0228 9385F503 		addi	a1,a1,63
 401              	.LVL29:
 402              	.LBE14:
 403              	.LBE13:
  23:src/MemoryAllocator.cpp **** }
 404              		.loc 1 23 18
 405 022c 93D56500 		srli	a1,a1,6
 406              	.LVL30:
 407 0230 97000000 		call	_ZN15MemoryAllocator6mallocEm
 407      E7800000 
 408              	.LVL31:
  24:src/MemoryAllocator.cpp **** 
 409              		.loc 1 24 1
 410 0238 83308100 		ld	ra,8(sp)
 411              		.cfi_restore 1
 412 023c 03340100 		ld	s0,0(sp)
 413              		.cfi_restore 8
 414              		.cfi_def_cfa 2, 16
 415 0240 13010101 		addi	sp,sp,16
GAS LISTING /tmp/cccsNBdk.s 			page 11


 416              		.cfi_def_cfa_offset 0
 417 0244 67800000 		jr	ra
 418              		.cfi_endproc
 419              	.LFE6:
 421              		.align	2
 422              		.globl	_ZN15MemoryAllocator4freeEPv
 424              	_ZN15MemoryAllocator4freeEPv:
 425              	.LFB9:
  70:src/MemoryAllocator.cpp **** 
  71:src/MemoryAllocator.cpp **** int MemoryAllocator::free(void* data) {
 426              		.loc 1 71 39 is_stmt 1
 427              		.cfi_startproc
 428              	.LVL32:
  72:src/MemoryAllocator.cpp ****     if(!data) return -1;
 429              		.loc 1 72 5
 430 0248 63820516 		beqz	a1,.L40
  71:src/MemoryAllocator.cpp ****     if(!data) return -1;
 431              		.loc 1 71 39 is_stmt 0
 432 024c 130101FD 		addi	sp,sp,-48
 433              		.cfi_def_cfa_offset 48
 434 0250 23341102 		sd	ra,40(sp)
 435 0254 23308102 		sd	s0,32(sp)
 436 0258 233C9100 		sd	s1,24(sp)
 437 025c 23382101 		sd	s2,16(sp)
 438 0260 23343101 		sd	s3,8(sp)
 439 0264 23304101 		sd	s4,0(sp)
 440              		.cfi_offset 1, -8
 441              		.cfi_offset 8, -16
 442              		.cfi_offset 9, -24
 443              		.cfi_offset 18, -32
 444              		.cfi_offset 19, -40
 445              		.cfi_offset 20, -48
 446 0268 13040103 		addi	s0,sp,48
 447              		.cfi_def_cfa 8, 0
 448 026c 138A0500 		mv	s4,a1
  73:src/MemoryAllocator.cpp **** 
  74:src/MemoryAllocator.cpp ****     auto* data_header = (Segment*) ((size_t) data - sizeof(Segment::size));
 449              		.loc 1 74 5 is_stmt 1
 450              		.loc 1 74 51 is_stmt 0
 451 0270 938985FF 		addi	s3,a1,-8
 452              	.LVL33:
  75:src/MemoryAllocator.cpp **** 
  76:src/MemoryAllocator.cpp ****     Segment* prev = nullptr, *succ = head;
 453              		.loc 1 76 5 is_stmt 1
 454              		.loc 1 76 31 is_stmt 0
 455 0274 83340500 		ld	s1,0(a0)
 456              	.LVL34:
 457              		.loc 1 76 14
 458 0278 13090000 		li	s2,0
 459              	.LVL35:
 460              	.L34:
  77:src/MemoryAllocator.cpp ****     while(succ && (size_t) succ < (size_t) data_header){
 461              		.loc 1 77 5 is_stmt 1
 462              		.loc 1 77 16
 463 027c 638A0400 		beqz	s1,.L33
 464              		.loc 1 77 16 is_stmt 0 discriminator 1
 465 0280 63F83401 		bleu	s3,s1,.L33
GAS LISTING /tmp/cccsNBdk.s 			page 12


  78:src/MemoryAllocator.cpp ****         prev = succ;
 466              		.loc 1 78 9 is_stmt 1
 467              	.LVL36:
  79:src/MemoryAllocator.cpp ****         succ = succ->next;
 468              		.loc 1 79 9
  78:src/MemoryAllocator.cpp ****         prev = succ;
 469              		.loc 1 78 14 is_stmt 0
 470 0284 13890400 		mv	s2,s1
 471              		.loc 1 79 14
 472 0288 83B48400 		ld	s1,8(s1)
 473              	.LVL37:
  77:src/MemoryAllocator.cpp ****     while(succ && (size_t) succ < (size_t) data_header){
 474              		.loc 1 77 5
 475 028c 6FF01FFF 		j	.L34
 476              	.L33:
  80:src/MemoryAllocator.cpp ****     }
  81:src/MemoryAllocator.cpp **** 
  82:src/MemoryAllocator.cpp ****     if(!prev){
 477              		.loc 1 82 5 is_stmt 1
 478 0290 63020906 		beqz	s2,.L48
  83:src/MemoryAllocator.cpp ****         head = data_header;
  84:src/MemoryAllocator.cpp ****         if(!succ) return 1;
  85:src/MemoryAllocator.cpp **** 
  86:src/MemoryAllocator.cpp ****         if(tryToJoin(data_header, succ)){
  87:src/MemoryAllocator.cpp ****             data_header->next = succ->next;
  88:src/MemoryAllocator.cpp ****             data_header->size += succ->size + 1;
  89:src/MemoryAllocator.cpp **** 
  90:src/MemoryAllocator.cpp ****             return 1;
  91:src/MemoryAllocator.cpp ****         }
  92:src/MemoryAllocator.cpp **** 
  93:src/MemoryAllocator.cpp ****         data_header->next = succ;
  94:src/MemoryAllocator.cpp **** 
  95:src/MemoryAllocator.cpp ****         return 1;
  96:src/MemoryAllocator.cpp ****     }
  97:src/MemoryAllocator.cpp **** 
  98:src/MemoryAllocator.cpp ****     if(tryToJoin(prev, data_header)){
 479              		.loc 1 98 5
 480              		.loc 1 98 17 is_stmt 0
 481 0294 93850900 		mv	a1,s3
 482              	.LVL38:
 483 0298 13050900 		mv	a0,s2
 484              	.LVL39:
 485 029c 97000000 		call	_ZN15MemoryAllocator9tryToJoinEPKNS_7SegmentES2_
 485      E7800000 
 486              	.LVL40:
 487              		.loc 1 98 5
 488 02a4 630E0508 		beqz	a0,.L37
  99:src/MemoryAllocator.cpp ****         prev->size += data_header->size + 1;
 489              		.loc 1 99 9 is_stmt 1
 490              		.loc 1 99 36 is_stmt 0
 491 02a8 83398AFF 		ld	s3,-8(s4)
 492              	.LVL41:
 493              		.loc 1 99 20
 494 02ac 83370900 		ld	a5,0(s2)
 495 02b0 B389F900 		add	s3,s3,a5
 496 02b4 93891900 		addi	s3,s3,1
 497 02b8 23303901 		sd	s3,0(s2)
GAS LISTING /tmp/cccsNBdk.s 			page 13


 100:src/MemoryAllocator.cpp **** 
 101:src/MemoryAllocator.cpp ****         if(succ && this->tryToJoin(prev, succ)){
 498              		.loc 1 101 9 is_stmt 1
 499              		.loc 1 101 17 is_stmt 0
 500 02bc 63800410 		beqz	s1,.L42
 501              		.loc 1 101 35 discriminator 1
 502 02c0 93850400 		mv	a1,s1
 503 02c4 13050900 		mv	a0,s2
 504 02c8 97000000 		call	_ZN15MemoryAllocator9tryToJoinEPKNS_7SegmentES2_
 504      E7800000 
 505              	.LVL42:
 506              		.loc 1 101 17 discriminator 1
 507 02d0 630A050E 		beqz	a0,.L43
 102:src/MemoryAllocator.cpp ****             prev->size += succ->size + 1;
 508              		.loc 1 102 13 is_stmt 1
 509              		.loc 1 102 33 is_stmt 0
 510 02d4 83B70400 		ld	a5,0(s1)
 511              		.loc 1 102 24
 512 02d8 B387F900 		add	a5,s3,a5
 513 02dc 93871700 		addi	a5,a5,1
 514 02e0 2330F900 		sd	a5,0(s2)
 103:src/MemoryAllocator.cpp ****             prev->next = succ->next;
 515              		.loc 1 103 13 is_stmt 1
 516              		.loc 1 103 32 is_stmt 0
 517 02e4 83B78400 		ld	a5,8(s1)
 518              		.loc 1 103 24
 519 02e8 2334F900 		sd	a5,8(s2)
 104:src/MemoryAllocator.cpp **** 
 105:src/MemoryAllocator.cpp ****             return 1;
 520              		.loc 1 105 13 is_stmt 1
 521              		.loc 1 105 20 is_stmt 0
 522 02ec 13051000 		li	a0,1
 523 02f0 6F004007 		j	.L32
 524              	.LVL43:
 525              	.L48:
  83:src/MemoryAllocator.cpp ****         if(!succ) return 1;
 526              		.loc 1 83 9 is_stmt 1
  83:src/MemoryAllocator.cpp ****         if(!succ) return 1;
 527              		.loc 1 83 14 is_stmt 0
 528 02f4 23303501 		sd	s3,0(a0)
  84:src/MemoryAllocator.cpp **** 
 529              		.loc 1 84 9 is_stmt 1
 530 02f8 638E040A 		beqz	s1,.L41
  86:src/MemoryAllocator.cpp ****             data_header->next = succ->next;
 531              		.loc 1 86 9
  86:src/MemoryAllocator.cpp ****             data_header->next = succ->next;
 532              		.loc 1 86 21 is_stmt 0
 533 02fc 93850400 		mv	a1,s1
 534              	.LVL44:
 535 0300 13850900 		mv	a0,s3
 536              	.LVL45:
 537 0304 97000000 		call	_ZN15MemoryAllocator9tryToJoinEPKNS_7SegmentES2_
 537      E7800000 
 538              	.LVL46:
  86:src/MemoryAllocator.cpp ****             data_header->next = succ->next;
 539              		.loc 1 86 9
 540 030c 63040502 		beqz	a0,.L36
GAS LISTING /tmp/cccsNBdk.s 			page 14


  87:src/MemoryAllocator.cpp ****             data_header->size += succ->size + 1;
 541              		.loc 1 87 13 is_stmt 1
  87:src/MemoryAllocator.cpp ****             data_header->size += succ->size + 1;
 542              		.loc 1 87 39 is_stmt 0
 543 0310 83B78400 		ld	a5,8(s1)
  87:src/MemoryAllocator.cpp ****             data_header->size += succ->size + 1;
 544              		.loc 1 87 31
 545 0314 23B4F900 		sd	a5,8(s3)
  88:src/MemoryAllocator.cpp **** 
 546              		.loc 1 88 13 is_stmt 1
  88:src/MemoryAllocator.cpp **** 
 547              		.loc 1 88 40 is_stmt 0
 548 0318 83B70400 		ld	a5,0(s1)
  88:src/MemoryAllocator.cpp **** 
 549              		.loc 1 88 31
 550 031c 03378AFF 		ld	a4,-8(s4)
 551 0320 B387E700 		add	a5,a5,a4
 552 0324 93871700 		addi	a5,a5,1
 553 0328 233CFAFE 		sd	a5,-8(s4)
  90:src/MemoryAllocator.cpp ****         }
 554              		.loc 1 90 13 is_stmt 1
  90:src/MemoryAllocator.cpp ****         }
 555              		.loc 1 90 20 is_stmt 0
 556 032c 13051000 		li	a0,1
 557 0330 6F004003 		j	.L32
 558              	.L36:
  93:src/MemoryAllocator.cpp **** 
 559              		.loc 1 93 9 is_stmt 1
  93:src/MemoryAllocator.cpp **** 
 560              		.loc 1 93 27 is_stmt 0
 561 0334 23B49900 		sd	s1,8(s3)
  95:src/MemoryAllocator.cpp ****     }
 562              		.loc 1 95 9 is_stmt 1
  95:src/MemoryAllocator.cpp ****     }
 563              		.loc 1 95 16 is_stmt 0
 564 0338 13051000 		li	a0,1
 565 033c 6F008002 		j	.L32
 566              	.L37:
 106:src/MemoryAllocator.cpp ****         }
 107:src/MemoryAllocator.cpp **** 
 108:src/MemoryAllocator.cpp ****         return 1;
 109:src/MemoryAllocator.cpp ****     }
 110:src/MemoryAllocator.cpp **** 
 111:src/MemoryAllocator.cpp ****     if(succ && tryToJoin(data_header, succ)){
 567              		.loc 1 111 5 is_stmt 1
 568              		.loc 1 111 13 is_stmt 0
 569 0340 638C0400 		beqz	s1,.L38
 570              		.loc 1 111 25 discriminator 1
 571 0344 93850400 		mv	a1,s1
 572 0348 13850900 		mv	a0,s3
 573 034c 97000000 		call	_ZN15MemoryAllocator9tryToJoinEPKNS_7SegmentES2_
 573      E7800000 
 574              	.LVL47:
 575              		.loc 1 111 13 discriminator 1
 576 0354 63180502 		bnez	a0,.L39
 577              	.L38:
 112:src/MemoryAllocator.cpp ****         data_header->size += succ->size + 1;
GAS LISTING /tmp/cccsNBdk.s 			page 15


 113:src/MemoryAllocator.cpp ****         data_header->next = succ->next;
 114:src/MemoryAllocator.cpp ****         prev->next = data_header;
 115:src/MemoryAllocator.cpp **** 
 116:src/MemoryAllocator.cpp ****         return 1;
 117:src/MemoryAllocator.cpp ****     }
 118:src/MemoryAllocator.cpp **** 
 119:src/MemoryAllocator.cpp ****     prev->next = data_header;
 578              		.loc 1 119 5 is_stmt 1 discriminator 4
 579              		.loc 1 119 16 is_stmt 0 discriminator 4
 580 0358 23343901 		sd	s3,8(s2)
 120:src/MemoryAllocator.cpp ****     data_header->next = succ;
 581              		.loc 1 120 5 is_stmt 1 discriminator 4
 582              		.loc 1 120 23 is_stmt 0 discriminator 4
 583 035c 23B49900 		sd	s1,8(s3)
 121:src/MemoryAllocator.cpp **** 
 122:src/MemoryAllocator.cpp ****     return 1;
 584              		.loc 1 122 5 is_stmt 1 discriminator 4
 585              		.loc 1 122 12 is_stmt 0 discriminator 4
 586 0360 13051000 		li	a0,1
 587              	.LVL48:
 588              	.L32:
 123:src/MemoryAllocator.cpp **** }
 589              		.loc 1 123 1
 590 0364 83308102 		ld	ra,40(sp)
 591              		.cfi_remember_state
 592              		.cfi_restore 1
 593 0368 03340102 		ld	s0,32(sp)
 594              		.cfi_restore 8
 595              		.cfi_def_cfa 2, 48
 596 036c 83348101 		ld	s1,24(sp)
 597              		.cfi_restore 9
 598              	.LVL49:
 599 0370 03390101 		ld	s2,16(sp)
 600              		.cfi_restore 18
 601              	.LVL50:
 602 0374 83398100 		ld	s3,8(sp)
 603              		.cfi_restore 19
 604 0378 033A0100 		ld	s4,0(sp)
 605              		.cfi_restore 20
 606              	.LVL51:
 607 037c 13010103 		addi	sp,sp,48
 608              		.cfi_def_cfa_offset 0
 609 0380 67800000 		jr	ra
 610              	.LVL52:
 611              	.L39:
 612              		.cfi_restore_state
 112:src/MemoryAllocator.cpp ****         data_header->next = succ->next;
 613              		.loc 1 112 9 is_stmt 1
 112:src/MemoryAllocator.cpp ****         data_header->next = succ->next;
 614              		.loc 1 112 36 is_stmt 0
 615 0384 83B70400 		ld	a5,0(s1)
 112:src/MemoryAllocator.cpp ****         data_header->next = succ->next;
 616              		.loc 1 112 27
 617 0388 03378AFF 		ld	a4,-8(s4)
 618 038c B387E700 		add	a5,a5,a4
 619 0390 93871700 		addi	a5,a5,1
 620 0394 233CFAFE 		sd	a5,-8(s4)
GAS LISTING /tmp/cccsNBdk.s 			page 16


 113:src/MemoryAllocator.cpp ****         prev->next = data_header;
 621              		.loc 1 113 9 is_stmt 1
 113:src/MemoryAllocator.cpp ****         prev->next = data_header;
 622              		.loc 1 113 35 is_stmt 0
 623 0398 83B78400 		ld	a5,8(s1)
 113:src/MemoryAllocator.cpp ****         prev->next = data_header;
 624              		.loc 1 113 27
 625 039c 23B4F900 		sd	a5,8(s3)
 114:src/MemoryAllocator.cpp **** 
 626              		.loc 1 114 9 is_stmt 1
 114:src/MemoryAllocator.cpp **** 
 627              		.loc 1 114 20 is_stmt 0
 628 03a0 23343901 		sd	s3,8(s2)
 116:src/MemoryAllocator.cpp ****     }
 629              		.loc 1 116 9 is_stmt 1
 116:src/MemoryAllocator.cpp ****     }
 630              		.loc 1 116 16 is_stmt 0
 631 03a4 13051000 		li	a0,1
 632 03a8 6FF0DFFB 		j	.L32
 633              	.LVL53:
 634              	.L40:
 635              		.cfi_def_cfa_register 2
 636              		.cfi_restore 1
 637              		.cfi_restore 8
 638              		.cfi_restore 9
 639              		.cfi_restore 18
 640              		.cfi_restore 19
 641              		.cfi_restore 20
  72:src/MemoryAllocator.cpp **** 
 642              		.loc 1 72 23
 643 03ac 1305F0FF 		li	a0,-1
 644              	.LVL54:
 645              		.loc 1 123 1
 646 03b0 67800000 		ret
 647              	.LVL55:
 648              	.L41:
 649              		.cfi_def_cfa_register 8
 650              		.cfi_offset 1, -8
 651              		.cfi_offset 8, -16
 652              		.cfi_offset 9, -24
 653              		.cfi_offset 18, -32
 654              		.cfi_offset 19, -40
 655              		.cfi_offset 20, -48
  84:src/MemoryAllocator.cpp **** 
 656              		.loc 1 84 26
 657 03b4 13051000 		li	a0,1
 658              	.LVL56:
 659 03b8 6FF0DFFA 		j	.L32
 660              	.LVL57:
 661              	.L42:
 108:src/MemoryAllocator.cpp ****     }
 662              		.loc 1 108 16
 663 03bc 13051000 		li	a0,1
 664 03c0 6FF05FFA 		j	.L32
 665              	.L43:
 666 03c4 13051000 		li	a0,1
 667 03c8 6FF0DFF9 		j	.L32
GAS LISTING /tmp/cccsNBdk.s 			page 17


 668              		.cfi_endproc
 669              	.LFE9:
 671              		.bss
 672              		.align	3
 673              		.set	.LANCHOR0,. + 0
 676              	_ZGVZN15MemoryAllocator11getInstanceEvE8instance:
 677 0000 00000000 		.zero	8
 677      00000000 
 680              	_ZZN15MemoryAllocator11getInstanceEvE8instance:
 681 0008 00000000 		.zero	8
 681      00000000 
 682              		.text
 683              	.Letext0:
 684              		.file 3 "src/../h/../lib/hw.h"
GAS LISTING /tmp/cccsNBdk.s 			page 18

