GAS LISTING /tmp/ccIVzTZe.s 			page 1


   1              		.file	"riscv.cpp"
   2              		.option pic
   3              		.option norelax
   4              		.text
   5              	.Ltext0:
   6              		.align	2
   8              	_Z41__static_initialization_and_destruction_0ii:
   9              	.LFB42:
  10              		.file 1 "src/riscv.cpp"
   1:src/riscv.cpp **** #include "../lib/console.h"
   2:src/riscv.cpp **** #include "../h/riscv.hpp"
   3:src/riscv.cpp **** 
   4:src/riscv.cpp **** bool RiscV::user_mode = false;
   5:src/riscv.cpp **** SleepingThreadsList RiscV::list_of_sleeping_threads;
   6:src/riscv.cpp **** 
   7:src/riscv.cpp **** void RiscV::popSppSpie() {
   8:src/riscv.cpp ****     if(TCB::running->get_user_mode()){
   9:src/riscv.cpp ****         mc_sstatus(RiscV::SSTATUS_MASK::SSTATUS_SPP);
  10:src/riscv.cpp ****     }else{
  11:src/riscv.cpp ****         ms_sstatus(RiscV::SSTATUS_MASK::SSTATUS_SPP);
  12:src/riscv.cpp ****     }
  13:src/riscv.cpp **** 
  14:src/riscv.cpp ****     __asm__ volatile ("csrw sepc, ra");
  15:src/riscv.cpp ****     __asm__ volatile ("sret");
  16:src/riscv.cpp **** }
  17:src/riscv.cpp **** 
  18:src/riscv.cpp **** void RiscV::handleEcallInterrupt() {
  19:src/riscv.cpp ****     uint64 volatile scause = r_scause();
  20:src/riscv.cpp **** 
  21:src/riscv.cpp ****     uint64 volatile sepc = RiscV::r_sepc() + 4;
  22:src/riscv.cpp ****     uint64 volatile sstatus = RiscV::r_sstatus();
  23:src/riscv.cpp **** 
  24:src/riscv.cpp ****     if(scause == 0x0000000000000008UL || scause == 0x0000000000000009UL){
  25:src/riscv.cpp **** 
  26:src/riscv.cpp ****         uint64 volatile a0 = RiscV::r_a0();
  27:src/riscv.cpp **** 
  28:src/riscv.cpp ****         if(a0 == MEM_ALLOC){
  29:src/riscv.cpp ****             uint64 num_of_blocks;
  30:src/riscv.cpp ****             uint64* ret;
  31:src/riscv.cpp **** 
  32:src/riscv.cpp ****             __asm__ volatile ("ld %0, 11*8(fp)" : "=r"(num_of_blocks));
  33:src/riscv.cpp ****             __asm__ volatile ("ld %0, 12*8(fp)" : "=r"(ret));
  34:src/riscv.cpp **** 
  35:src/riscv.cpp ****             *ret = (uint64) __mem_alloc(num_of_blocks * MEM_BLOCK_SIZE);
  36:src/riscv.cpp **** 
  37:src/riscv.cpp ****         }else if(a0 == MEM_FREE){
  38:src/riscv.cpp ****             void* ptr;
  39:src/riscv.cpp ****             uint64* ret;
  40:src/riscv.cpp **** 
  41:src/riscv.cpp ****             __asm__ volatile ("ld %0, 11*8(fp)" : "=r"(ptr));
  42:src/riscv.cpp ****             __asm__ volatile ("ld %0, 12*8(fp)" : "=r"(ret));
  43:src/riscv.cpp **** 
  44:src/riscv.cpp ****             *ret = __mem_free(ptr);
  45:src/riscv.cpp **** 
  46:src/riscv.cpp ****         }else if(a0 == THREAD_CREATE){
  47:src/riscv.cpp ****             thread_t* handle;
  48:src/riscv.cpp ****             TCB::Body start_routine;
GAS LISTING /tmp/ccIVzTZe.s 			page 2


  49:src/riscv.cpp ****             void* args = nullptr;
  50:src/riscv.cpp ****             uint64* stack;
  51:src/riscv.cpp ****             int *ret;
  52:src/riscv.cpp **** 
  53:src/riscv.cpp ****             __asm__ volatile ("ld %0, 11*8(fp)" : "=r"(handle));
  54:src/riscv.cpp ****             __asm__ volatile ("ld %0, 12*8(fp)" : "=r"(start_routine));
  55:src/riscv.cpp ****             __asm__ volatile ("ld %0, 13*8(fp)" : "=r"(args));
  56:src/riscv.cpp ****             __asm__ volatile ("ld %0, 14*8(fp)" : "=r"(stack));
  57:src/riscv.cpp ****             __asm__ volatile ("ld %0, 15*8(fp)" : "=r"(ret));
  58:src/riscv.cpp **** 
  59:src/riscv.cpp ****             *ret = TCB::create_thread(handle, start_routine, args, stack) != nullptr ? 0 : -1;
  60:src/riscv.cpp **** 
  61:src/riscv.cpp ****         }else if(a0 == THREAD_EXIT){
  62:src/riscv.cpp ****             TCB::running->set_finished(true);
  63:src/riscv.cpp ****             TCB* temp = TCB::running;
  64:src/riscv.cpp **** 
  65:src/riscv.cpp ****             TCB::dispatch();
  66:src/riscv.cpp **** 
  67:src/riscv.cpp ****             __mem_free(temp);
  68:src/riscv.cpp **** 
  69:src/riscv.cpp ****         }else if(a0 == THREAD_DISPATCH){
  70:src/riscv.cpp ****             TCB::time_slice_counter = 0;
  71:src/riscv.cpp ****             TCB::dispatch();
  72:src/riscv.cpp **** 
  73:src/riscv.cpp ****         }else if(a0 == THREAD_JOIN){
  74:src/riscv.cpp ****             thread_t handle;
  75:src/riscv.cpp ****             __asm__ volatile ("ld %0, 11*8(fp)" : "=r"(handle));
  76:src/riscv.cpp **** 
  77:src/riscv.cpp ****             TCB::join(handle);
  78:src/riscv.cpp **** 
  79:src/riscv.cpp ****         }else if(a0 == SEM_OPEN){
  80:src/riscv.cpp ****             sem_t* handle;
  81:src/riscv.cpp ****             int val;
  82:src/riscv.cpp ****             int* ret;
  83:src/riscv.cpp **** 
  84:src/riscv.cpp ****             __asm__ volatile ("ld %0, 11*8(fp)" : "=r"(handle));
  85:src/riscv.cpp ****             __asm__ volatile ("ld %0, 12*8(fp)" : "=r"(val));
  86:src/riscv.cpp ****             __asm__ volatile ("ld %0, 13*8(fp)" : "=r"(ret));
  87:src/riscv.cpp **** 
  88:src/riscv.cpp ****             if(sem::create_semaphore(handle, val)){
  89:src/riscv.cpp ****                 *ret = 0;
  90:src/riscv.cpp ****             }else{
  91:src/riscv.cpp ****                 *ret = -1;
  92:src/riscv.cpp ****             }
  93:src/riscv.cpp **** 
  94:src/riscv.cpp ****         }else if(a0 == SEM_CLOSE){
  95:src/riscv.cpp ****             sem_t handle;
  96:src/riscv.cpp ****             int* ret;
  97:src/riscv.cpp **** 
  98:src/riscv.cpp ****             __asm__ volatile("ld %0, 11*8(fp)" : "=r"(handle));
  99:src/riscv.cpp ****             __asm__ volatile("ld %0, 12*8(fp)" : "=r"(ret));
 100:src/riscv.cpp **** 
 101:src/riscv.cpp ****             *ret = handle->close();
 102:src/riscv.cpp **** 
 103:src/riscv.cpp ****         }else if(a0 == SEM_WAIT){
 104:src/riscv.cpp ****             sem_t handle;
 105:src/riscv.cpp ****             int* ret;
GAS LISTING /tmp/ccIVzTZe.s 			page 3


 106:src/riscv.cpp **** 
 107:src/riscv.cpp ****             __asm__ volatile("ld %0, 11*8(fp)" : "=r"(handle));
 108:src/riscv.cpp ****             __asm__ volatile("ld %0, 12*8(fp)" : "=r"(ret));
 109:src/riscv.cpp **** 
 110:src/riscv.cpp ****             *ret = handle->wait();
 111:src/riscv.cpp **** 
 112:src/riscv.cpp ****         }else if(a0 == SEM_SIGNAL){
 113:src/riscv.cpp ****             sem_t handle;
 114:src/riscv.cpp ****             int* ret;
 115:src/riscv.cpp **** 
 116:src/riscv.cpp ****             __asm__ volatile("ld %0, 11*8(fp)" : "=r"(handle));
 117:src/riscv.cpp ****             __asm__ volatile("ld %0, 12*8(fp)" : "=r"(ret));
 118:src/riscv.cpp **** 
 119:src/riscv.cpp ****             *ret = handle->signal();
 120:src/riscv.cpp **** 
 121:src/riscv.cpp ****         }else if(a0 == TIME_SLEEP){
 122:src/riscv.cpp ****             time_t slice;
 123:src/riscv.cpp **** 
 124:src/riscv.cpp ****             __asm__ volatile("ld %0, 11*8(fp)" : "=r"(slice));
 125:src/riscv.cpp **** 
 126:src/riscv.cpp ****             if(slice > 0){
 127:src/riscv.cpp ****                 TCB::running->set_sleeping(true);
 128:src/riscv.cpp ****                 RiscV::list_of_sleeping_threads.put(TCB::running, slice);
 129:src/riscv.cpp ****             }
 130:src/riscv.cpp **** 
 131:src/riscv.cpp ****             TCB::dispatch();
 132:src/riscv.cpp **** 
 133:src/riscv.cpp ****         }else if(a0 == GETC){
 134:src/riscv.cpp ****             char* ret;
 135:src/riscv.cpp ****             __asm__ volatile ("ld %0, 11*8(fp)" : "=r"(ret));
 136:src/riscv.cpp **** 
 137:src/riscv.cpp ****             *ret = __getc();
 138:src/riscv.cpp **** 
 139:src/riscv.cpp ****         }else if(a0 == PUTC){
 140:src/riscv.cpp ****             char c;
 141:src/riscv.cpp ****             __asm__ volatile ("ld %0, 11*8(fp)" : "=r"(c));
 142:src/riscv.cpp **** 
 143:src/riscv.cpp ****             __putc(c);
 144:src/riscv.cpp ****         }
 145:src/riscv.cpp **** 
 146:src/riscv.cpp ****         w_sepc(sepc);
 147:src/riscv.cpp ****         w_sstatus(sstatus);
 148:src/riscv.cpp ****     }else{
 149:src/riscv.cpp ****         __putc(scause + '0');
 150:src/riscv.cpp ****         __putc('\n');
 151:src/riscv.cpp ****         while(true);
 152:src/riscv.cpp ****     }
 153:src/riscv.cpp **** }
 154:src/riscv.cpp **** 
 155:src/riscv.cpp **** void RiscV::handleTimerInterrupt() {
 156:src/riscv.cpp **** //    uint64 volatile sepc = RiscV::r_sepc();
 157:src/riscv.cpp **** //    uint64 volatile sstatus = RiscV::r_sstatus();
 158:src/riscv.cpp **** //
 159:src/riscv.cpp **** //    thread_dispatch();
 160:src/riscv.cpp **** //    mc_sip(RiscV::SIP_MASK::SIP_SSIP);
 161:src/riscv.cpp **** //
 162:src/riscv.cpp **** //    w_sepc(sepc);
GAS LISTING /tmp/ccIVzTZe.s 			page 4


 163:src/riscv.cpp **** //    w_sstatus(sstatus);
 164:src/riscv.cpp **** 
 165:src/riscv.cpp ****     time_t volatile curr = RiscV::list_of_sleeping_threads.peek_time_first();
 166:src/riscv.cpp **** 
 167:src/riscv.cpp ****     if(curr != -1UL){
 168:src/riscv.cpp ****         RiscV::list_of_sleeping_threads.dec_time_first();
 169:src/riscv.cpp ****         if(RiscV::list_of_sleeping_threads.peek_time_first() <= 0){
 170:src/riscv.cpp ****             RiscV::list_of_sleeping_threads.remove_finished();
 171:src/riscv.cpp ****         }
 172:src/riscv.cpp ****     }
 173:src/riscv.cpp **** 
 174:src/riscv.cpp ****     mc_sip(SIP_MASK::SIP_SSIP);
 175:src/riscv.cpp **** 
 176:src/riscv.cpp ****     TCB::time_slice_counter++;
 177:src/riscv.cpp ****     if(TCB::time_slice_counter >= TCB::running->get_time_slice()){
 178:src/riscv.cpp ****         uint64 volatile sepc = RiscV::r_sepc();
 179:src/riscv.cpp ****         uint64 volatile sstatus = RiscV::r_sstatus();
 180:src/riscv.cpp **** 
 181:src/riscv.cpp ****         TCB::time_slice_counter = 0;
 182:src/riscv.cpp ****         TCB::dispatch();
 183:src/riscv.cpp **** 
 184:src/riscv.cpp ****         w_sepc(sepc);
 185:src/riscv.cpp ****         w_sstatus(sstatus);
 186:src/riscv.cpp ****     }
 187:src/riscv.cpp **** }
 188:src/riscv.cpp **** 
 189:src/riscv.cpp **** void RiscV::handleExternalInterrupt() {
 190:src/riscv.cpp ****     console_handler();
 191:src/riscv.cpp **** }
  11              		.loc 1 191 1
  12              		.cfi_startproc
  13              	.LVL0:
  14 0000 130101FF 		addi	sp,sp,-16
  15              		.cfi_def_cfa_offset 16
  16 0004 23348100 		sd	s0,8(sp)
  17              		.cfi_offset 8, -8
  18 0008 13040101 		addi	s0,sp,16
  19              		.cfi_def_cfa 8, 0
  20              		.loc 1 191 1 is_stmt 0
  21 000c 93071000 		li	a5,1
  22 0010 6308F500 		beq	a0,a5,.L4
  23              	.L1:
  24 0014 03348100 		ld	s0,8(sp)
  25              		.cfi_remember_state
  26              		.cfi_restore 8
  27              		.cfi_def_cfa 2, 16
  28 0018 13010101 		addi	sp,sp,16
  29              		.cfi_def_cfa_offset 0
  30 001c 67800000 		jr	ra
  31              	.L4:
  32              		.cfi_restore_state
  33              		.loc 1 191 1 discriminator 1
  34 0020 B7070100 		li	a5,65536
  35 0024 9387F7FF 		addi	a5,a5,-1
  36 0028 E396F5FE 		bne	a1,a5,.L1
  37              	.LVL1:
  38              	.LBB68:
GAS LISTING /tmp/ccIVzTZe.s 			page 5


  39              	.LBB69:
  40              	.LBB70:
  41              		.file 2 "src/../h/../h/SleepingThreadsList.hpp"
   1:src/../h/../h/SleepingThreadsList.hpp **** #ifndef PROJECT_BASE_V1_1_SLEEPINGTHREADSLIST_HPP
   2:src/../h/../h/SleepingThreadsList.hpp **** #define PROJECT_BASE_V1_1_SLEEPINGTHREADSLIST_HPP
   3:src/../h/../h/SleepingThreadsList.hpp **** 
   4:src/../h/../h/SleepingThreadsList.hpp **** #include "../h/scheduler.hpp"
   5:src/../h/../h/SleepingThreadsList.hpp **** #include "../h/tcb.hpp"
   6:src/../h/../h/SleepingThreadsList.hpp **** 
   7:src/../h/../h/SleepingThreadsList.hpp **** class SleepingThreadsList{
   8:src/../h/../h/SleepingThreadsList.hpp **** private:
   9:src/../h/../h/SleepingThreadsList.hpp **** 
  10:src/../h/../h/SleepingThreadsList.hpp ****     struct Node{
  11:src/../h/../h/SleepingThreadsList.hpp ****         TCB* thread;
  12:src/../h/../h/SleepingThreadsList.hpp ****         time_t slice;
  13:src/../h/../h/SleepingThreadsList.hpp ****         Node* next;
  14:src/../h/../h/SleepingThreadsList.hpp ****     };
  15:src/../h/../h/SleepingThreadsList.hpp **** 
  16:src/../h/../h/SleepingThreadsList.hpp ****     Node *head, *tail;
  17:src/../h/../h/SleepingThreadsList.hpp **** public:
  18:src/../h/../h/SleepingThreadsList.hpp ****     SleepingThreadsList() : head(nullptr), tail(nullptr) {}
  42              		.loc 2 18 56
  43 002c 97070000 		lla	a5,.LANCHOR0
  43      93870700 
  44 0034 23B00700 		sd	zero,0(a5)
  45 0038 23B40700 		sd	zero,8(a5)
  46              	.LVL2:
  47              	.LBE70:
  48              	.LBE69:
  49              	.LBE68:
  50              		.loc 1 191 1
  51 003c 6FF09FFD 		j	.L1
  52              		.cfi_endproc
  53              	.LFE42:
  55              		.align	2
  56              		.globl	_ZN5RiscV10popSppSpieEv
  58              	_ZN5RiscV10popSppSpieEv:
  59              	.LFB38:
   7:src/riscv.cpp ****     if(TCB::running->get_user_mode()){
  60              		.loc 1 7 26 is_stmt 1
  61              		.cfi_startproc
  62 0040 130101FF 		addi	sp,sp,-16
  63              		.cfi_def_cfa_offset 16
  64 0044 23348100 		sd	s0,8(sp)
  65              		.cfi_offset 8, -8
  66 0048 13040101 		addi	s0,sp,16
  67              		.cfi_def_cfa 8, 0
   8:src/riscv.cpp ****         mc_sstatus(RiscV::SSTATUS_MASK::SSTATUS_SPP);
  68              		.loc 1 8 5
   8:src/riscv.cpp ****         mc_sstatus(RiscV::SSTATUS_MASK::SSTATUS_SPP);
  69              		.loc 1 8 35 is_stmt 0
  70 004c 97070000 		la	a5,_ZN3TCB7runningE
  70      83B70700 
  71 0054 83B70700 		ld	a5,0(a5)
  72              	.LVL3:
  73              	.LBB71:
  74              	.LBB72:
GAS LISTING /tmp/ccIVzTZe.s 			page 6


  75              		.file 3 "src/../h/../h/../h/tcb.hpp"
   1:src/../h/../h/../h/tcb.hpp **** #ifndef PROJECT_BASE_V1_1_TCB_HPP
   2:src/../h/../h/../h/tcb.hpp **** #define PROJECT_BASE_V1_1_TCB_HPP
   3:src/../h/../h/../h/tcb.hpp **** 
   4:src/../h/../h/../h/tcb.hpp **** #include "../lib/hw.h"
   5:src/../h/../h/../h/tcb.hpp **** #include "../h/scheduler.hpp"
   6:src/../h/../h/../h/tcb.hpp **** #include "../h/riscv.hpp"
   7:src/../h/../h/../h/tcb.hpp **** 
   8:src/../h/../h/../h/tcb.hpp **** class TCB{
   9:src/../h/../h/../h/tcb.hpp **** private:
  10:src/../h/../h/../h/tcb.hpp ****     struct Context{
  11:src/../h/../h/../h/tcb.hpp ****         uint64 sp, ra;
  12:src/../h/../h/../h/tcb.hpp ****     };
  13:src/../h/../h/../h/tcb.hpp **** 
  14:src/../h/../h/../h/tcb.hpp ****     using Body = void(*)(void*);
  15:src/../h/../h/../h/tcb.hpp ****     Body body;
  16:src/../h/../h/../h/tcb.hpp ****     void* args;
  17:src/../h/../h/../h/tcb.hpp **** 
  18:src/../h/../h/../h/tcb.hpp ****     uint64* stack;
  19:src/../h/../h/../h/tcb.hpp ****     Context context;
  20:src/../h/../h/../h/tcb.hpp **** 
  21:src/../h/../h/../h/tcb.hpp ****     time_t time_slice;
  22:src/../h/../h/../h/tcb.hpp ****     int id;
  23:src/../h/../h/../h/tcb.hpp ****     bool finished, blocked, sleeping, main, user_mode;
  24:src/../h/../h/../h/tcb.hpp **** 
  25:src/../h/../h/../h/tcb.hpp ****     TCB(Body body, void* args, uint64 time_slice, uint64* stack) :
  26:src/../h/../h/../h/tcb.hpp ****         body(body),
  27:src/../h/../h/../h/tcb.hpp ****         args(args),
  28:src/../h/../h/../h/tcb.hpp ****         stack(body != nullptr ? stack : nullptr),
  29:src/../h/../h/../h/tcb.hpp ****         context({(uint64) &thread_wrapper, stack != nullptr ? reinterpret_cast<uint64>(&stack[DEFAU
  30:src/../h/../h/../h/tcb.hpp ****         time_slice(time_slice),
  31:src/../h/../h/../h/tcb.hpp ****         id(ID),
  32:src/../h/../h/../h/tcb.hpp ****         finished(false),
  33:src/../h/../h/../h/tcb.hpp ****         blocked(false),
  34:src/../h/../h/../h/tcb.hpp ****         sleeping(false),
  35:src/../h/../h/../h/tcb.hpp ****         main(body == nullptr){
  36:src/../h/../h/../h/tcb.hpp **** 
  37:src/../h/../h/../h/tcb.hpp ****         if(body != nullptr){
  38:src/../h/../h/../h/tcb.hpp ****             Scheduler::put(this);
  39:src/../h/../h/../h/tcb.hpp ****         }
  40:src/../h/../h/../h/tcb.hpp **** 
  41:src/../h/../h/../h/tcb.hpp ****     }
  42:src/../h/../h/../h/tcb.hpp **** 
  43:src/../h/../h/../h/tcb.hpp ****     static time_t time_slice_counter;
  44:src/../h/../h/../h/tcb.hpp **** 
  45:src/../h/../h/../h/tcb.hpp ****     static void contextSwitch(Context* old_context, Context* new_context);
  46:src/../h/../h/../h/tcb.hpp ****     static void thread_wrapper();
  47:src/../h/../h/../h/tcb.hpp ****     static void dispatch();
  48:src/../h/../h/../h/tcb.hpp **** public:
  49:src/../h/../h/../h/tcb.hpp ****     friend class RiscV;
  50:src/../h/../h/../h/tcb.hpp ****     friend class sem;
  51:src/../h/../h/../h/tcb.hpp **** 
  52:src/../h/../h/../h/tcb.hpp ****     static int ID;
  53:src/../h/../h/../h/tcb.hpp ****     static TCB* running;
  54:src/../h/../h/../h/tcb.hpp ****     static TCB* create_thread(TCB** handle, Body body, void* args, uint64* stack);
  55:src/../h/../h/../h/tcb.hpp ****     static void yield();
  56:src/../h/../h/../h/tcb.hpp ****     static void join(TCB*);
GAS LISTING /tmp/ccIVzTZe.s 			page 7


  57:src/../h/../h/../h/tcb.hpp ****     static void outputThreadBody(void*);
  58:src/../h/../h/../h/tcb.hpp **** 
  59:src/../h/../h/../h/tcb.hpp **** //    void start(){
  60:src/../h/../h/../h/tcb.hpp **** //        Scheduler::put(this);
  61:src/../h/../h/../h/tcb.hpp **** //    }
  62:src/../h/../h/../h/tcb.hpp **** 
  63:src/../h/../h/../h/tcb.hpp ****     bool is_finished() const { return finished; }
  64:src/../h/../h/../h/tcb.hpp ****     void set_finished(bool f) { this->finished = f; }
  65:src/../h/../h/../h/tcb.hpp **** 
  66:src/../h/../h/../h/tcb.hpp ****     bool is_sleeping() const { return sleeping; }
  67:src/../h/../h/../h/tcb.hpp ****     void set_sleeping(bool s) { this->sleeping = s; }
  68:src/../h/../h/../h/tcb.hpp **** 
  69:src/../h/../h/../h/tcb.hpp ****     bool is_blocked() const { return blocked; }
  70:src/../h/../h/../h/tcb.hpp ****     void set_blocked(bool b) { this->blocked = b; }
  71:src/../h/../h/../h/tcb.hpp **** 
  72:src/../h/../h/../h/tcb.hpp ****     bool is_main() const { return main; }
  73:src/../h/../h/../h/tcb.hpp ****     int get_id() const { return id; }
  74:src/../h/../h/../h/tcb.hpp ****     uint64 get_time_slice() const { return time_slice; }
  75:src/../h/../h/../h/tcb.hpp **** 
  76:src/../h/../h/../h/tcb.hpp ****     bool get_user_mode () const { return user_mode; }
  76              		.loc 3 76 35 is_stmt 1
  77              		.loc 3 76 42 is_stmt 0
  78 0058 83C78703 		lbu	a5,56(a5)
  79              	.LVL4:
  80              	.LBE72:
  81              	.LBE71:
   8:src/riscv.cpp ****         mc_sstatus(RiscV::SSTATUS_MASK::SSTATUS_SPP);
  82              		.loc 1 8 5
  83 005c 63800702 		beqz	a5,.L6
   9:src/riscv.cpp ****     }else{
  84              		.loc 1 9 9 is_stmt 1
  85              	.LVL5:
  86              	.LBB73:
  87              	.LBB74:
  88              		.file 4 "src/../h/riscv.hpp"
   1:src/../h/riscv.hpp **** #ifndef PROJECT_BASE_V1_1_RISCV_HPP
   2:src/../h/riscv.hpp **** #define PROJECT_BASE_V1_1_RISCV_HPP
   3:src/../h/riscv.hpp **** 
   4:src/../h/riscv.hpp **** #include "../lib/hw.h"
   5:src/../h/riscv.hpp **** #include "../lib/mem.h"
   6:src/../h/riscv.hpp **** #include "../h/syscall_c.h"
   7:src/../h/riscv.hpp **** #include "../h/sem.hpp"
   8:src/../h/riscv.hpp **** #include "../h/SleepingThreadsList.hpp"
   9:src/../h/riscv.hpp **** 
  10:src/../h/riscv.hpp **** class SleepingThreadsList;
  11:src/../h/riscv.hpp **** class RiscV{
  12:src/../h/riscv.hpp **** private:
  13:src/../h/riscv.hpp ****     static bool user_mode;
  14:src/../h/riscv.hpp ****     static SleepingThreadsList list_of_sleeping_threads;
  15:src/../h/riscv.hpp **** 
  16:src/../h/riscv.hpp ****     static void handleEcallInterrupt();
  17:src/../h/riscv.hpp ****     static void handleTimerInterrupt();
  18:src/../h/riscv.hpp ****     static void handleExternalInterrupt();
  19:src/../h/riscv.hpp **** public:
  20:src/../h/riscv.hpp ****     enum SSTATUS_MASK{
  21:src/../h/riscv.hpp ****         SSTATUS_SIE = (1 << 1),
  22:src/../h/riscv.hpp ****         SSTATUS_SPIE = (1 << 5),
GAS LISTING /tmp/ccIVzTZe.s 			page 8


  23:src/../h/riscv.hpp ****         SSTATUS_SPP = (1 << 8)
  24:src/../h/riscv.hpp ****     };
  25:src/../h/riscv.hpp **** 
  26:src/../h/riscv.hpp ****     enum SIP_MASK{
  27:src/../h/riscv.hpp ****         SIP_SSIP = (1 << 1),
  28:src/../h/riscv.hpp ****         SIP_STIP = (1 << 5),
  29:src/../h/riscv.hpp ****         SIP_SEIP = (1 << 9)
  30:src/../h/riscv.hpp ****     };
  31:src/../h/riscv.hpp **** 
  32:src/../h/riscv.hpp ****     static void popSppSpie();
  33:src/../h/riscv.hpp **** 
  34:src/../h/riscv.hpp ****     static void w_stvec(uint64);
  35:src/../h/riscv.hpp **** 
  36:src/../h/riscv.hpp ****     static uint64 r_sepc();
  37:src/../h/riscv.hpp ****     static void w_sepc(uint64);
  38:src/../h/riscv.hpp **** 
  39:src/../h/riscv.hpp ****     static uint64 r_sstatus();
  40:src/../h/riscv.hpp ****     static void w_sstatus(uint64);
  41:src/../h/riscv.hpp ****     static void ms_sstatus(uint64 mask);
  42:src/../h/riscv.hpp ****     static void mc_sstatus(uint64 mask);
  43:src/../h/riscv.hpp **** 
  44:src/../h/riscv.hpp ****     static uint64 r_a0();
  45:src/../h/riscv.hpp **** 
  46:src/../h/riscv.hpp ****     static uint64 r_scause();
  47:src/../h/riscv.hpp **** 
  48:src/../h/riscv.hpp ****     static void mc_sip(uint64 mask);
  49:src/../h/riscv.hpp **** 
  50:src/../h/riscv.hpp ****     static bool get_user_mode() { return user_mode; }
  51:src/../h/riscv.hpp ****     static void set_user_mode(bool value) { user_mode = value; }
  52:src/../h/riscv.hpp **** 
  53:src/../h/riscv.hpp ****     static void interruptRoutine();
  54:src/../h/riscv.hpp **** };
  55:src/../h/riscv.hpp **** 
  56:src/../h/riscv.hpp **** inline void RiscV::w_stvec(uint64 val) {
  57:src/../h/riscv.hpp ****     __asm__ volatile ("csrw stvec, %0" : : "r"(val));
  58:src/../h/riscv.hpp **** }
  59:src/../h/riscv.hpp **** 
  60:src/../h/riscv.hpp **** inline uint64 RiscV::r_sepc() {
  61:src/../h/riscv.hpp ****     uint64 volatile sepc;
  62:src/../h/riscv.hpp ****     __asm__ volatile ("csrr %[sepc], sepc" : [sepc] "=r"(sepc));
  63:src/../h/riscv.hpp **** 
  64:src/../h/riscv.hpp ****     return sepc;
  65:src/../h/riscv.hpp **** }
  66:src/../h/riscv.hpp **** 
  67:src/../h/riscv.hpp **** inline void RiscV::w_sepc(uint64 sepc){
  68:src/../h/riscv.hpp ****     __asm__ volatile ("csrw sepc, %[sepc]" : : [sepc] "r"(sepc));
  69:src/../h/riscv.hpp **** }
  70:src/../h/riscv.hpp **** 
  71:src/../h/riscv.hpp **** inline uint64 RiscV::r_sstatus() {
  72:src/../h/riscv.hpp ****     uint64 volatile sstatus;
  73:src/../h/riscv.hpp ****     __asm__ volatile ("csrr %[sstatus], sstatus" : [sstatus] "=r"(sstatus));
  74:src/../h/riscv.hpp **** 
  75:src/../h/riscv.hpp ****     return sstatus;
  76:src/../h/riscv.hpp **** }
  77:src/../h/riscv.hpp **** 
  78:src/../h/riscv.hpp **** inline void RiscV::w_sstatus(uint64 sstatus) {
  79:src/../h/riscv.hpp ****     __asm__ volatile ("csrw sstatus, %[sstatus]" : : [sstatus] "r"(sstatus));
GAS LISTING /tmp/ccIVzTZe.s 			page 9


  80:src/../h/riscv.hpp **** }
  81:src/../h/riscv.hpp **** 
  82:src/../h/riscv.hpp **** inline void RiscV::ms_sstatus(uint64 mask){
  83:src/../h/riscv.hpp ****     __asm__ volatile("csrs sstatus, %[mask]" : : [mask] "r"(mask));
  84:src/../h/riscv.hpp **** }
  85:src/../h/riscv.hpp **** 
  86:src/../h/riscv.hpp **** inline void RiscV::mc_sstatus(uint64 mask){
  87:src/../h/riscv.hpp ****     __asm__ volatile("csrc sstatus, %[mask]" : : [mask] "r"(mask));
  89              		.loc 4 87 5
  90              		.loc 4 87 67 is_stmt 0
  91 0060 93070010 		li	a5,256
  92              	#APP
  93              	# 87 "src/../h/riscv.hpp" 1
  88              	}
  94              		csrc sstatus, a5
  95              	# 0 "" 2
  96              	.LVL6:
  97              	#NO_APP
  98              	.L7:
  99              	.LBE74:
 100              	.LBE73:
  14:src/riscv.cpp ****     __asm__ volatile ("sret");
 101              		.loc 1 14 5 is_stmt 1
  14:src/riscv.cpp ****     __asm__ volatile ("sret");
 102              		.loc 1 14 39 is_stmt 0
 103              	#APP
 104              	# 14 "src/riscv.cpp" 1
  15:src/riscv.cpp **** }
 105              		csrw sepc, ra
 106              	# 0 "" 2
 107              		.loc 1 15 5 is_stmt 1
  15:src/riscv.cpp **** }
 108              		.loc 1 15 30 is_stmt 0
 109              	# 15 "src/riscv.cpp" 1
  16:src/riscv.cpp **** 
 110              		sret
 111              	# 0 "" 2
 112              		.loc 1 16 1
 113              	#NO_APP
 114 0070 03348100 		ld	s0,8(sp)
 115              		.cfi_remember_state
 116              		.cfi_restore 8
 117              		.cfi_def_cfa 2, 16
 118 0074 13010101 		addi	sp,sp,16
 119              		.cfi_def_cfa_offset 0
 120 0078 67800000 		jr	ra
 121              	.L6:
 122              		.cfi_restore_state
  11:src/riscv.cpp ****     }
 123              		.loc 1 11 9 is_stmt 1
 124              	.LVL7:
 125              	.LBB75:
 126              	.LBB76:
  83:src/../h/riscv.hpp **** }
 127              		.loc 4 83 5
  83:src/../h/riscv.hpp **** }
 128              		.loc 4 83 67 is_stmt 0
GAS LISTING /tmp/ccIVzTZe.s 			page 10


 129 007c 93070010 		li	a5,256
 130              	#APP
 131              	# 83 "src/../h/riscv.hpp" 1
  84:src/../h/riscv.hpp **** 
 132              		csrs sstatus, a5
 133              	# 0 "" 2
 134              		.loc 4 84 1
 135              	#NO_APP
 136 0084 6FF05FFE 		j	.L7
 137              	.LBE76:
 138              	.LBE75:
 139              		.cfi_endproc
 140              	.LFE38:
 142              		.align	2
 143              		.globl	_ZN5RiscV20handleEcallInterruptEv
 145              	_ZN5RiscV20handleEcallInterruptEv:
 146              	.LFB39:
  18:src/riscv.cpp ****     uint64 volatile scause = r_scause();
 147              		.loc 1 18 36 is_stmt 1
 148              		.cfi_startproc
 149 0088 130101FA 		addi	sp,sp,-96
 150              		.cfi_def_cfa_offset 96
 151 008c 233C1104 		sd	ra,88(sp)
 152 0090 23388104 		sd	s0,80(sp)
 153 0094 23349104 		sd	s1,72(sp)
 154              		.cfi_offset 1, -8
 155              		.cfi_offset 8, -16
 156              		.cfi_offset 9, -24
 157 0098 13040106 		addi	s0,sp,96
 158              		.cfi_def_cfa 8, 0
  19:src/riscv.cpp **** 
 159              		.loc 1 19 5
 160              	.LBB77:
 161              	.LBB78:
  89:src/../h/riscv.hpp **** 
  90:src/../h/riscv.hpp **** inline uint64 RiscV::r_a0() {
  91:src/../h/riscv.hpp ****     uint64 volatile a0;
  92:src/../h/riscv.hpp ****     __asm__ volatile ("ld %0, 10*8(fp)" : "=r"(a0));
  93:src/../h/riscv.hpp **** 
  94:src/../h/riscv.hpp ****     return a0;
  95:src/../h/riscv.hpp **** }
  96:src/../h/riscv.hpp **** 
  97:src/../h/riscv.hpp **** inline uint64 RiscV::r_scause() {
  98:src/../h/riscv.hpp ****     uint64 volatile scause;
 162              		.loc 4 98 5
  99:src/../h/riscv.hpp ****     __asm__ volatile ("csrr %[scause], scause" : [scause] "=r"(scause));
 163              		.loc 4 99 5
 164              		.loc 4 99 72 is_stmt 0
 165              	#APP
 166              	# 99 "src/../h/riscv.hpp" 1
 100              	
 167              		csrr a5, scause
 168              	# 0 "" 2
 169              	#NO_APP
 170 00a0 233CF4FA 		sd	a5,-72(s0)
 101:src/../h/riscv.hpp ****     return scause;
 171              		.loc 4 101 5 is_stmt 1
GAS LISTING /tmp/ccIVzTZe.s 			page 11


 172              		.loc 4 101 12 is_stmt 0
 173 00a4 833784FB 		ld	a5,-72(s0)
 174              	.LBE78:
 175              	.LBE77:
  19:src/riscv.cpp **** 
 176              		.loc 1 19 39
 177 00a8 233CF4FC 		sd	a5,-40(s0)
  21:src/riscv.cpp ****     uint64 volatile sstatus = RiscV::r_sstatus();
 178              		.loc 1 21 5 is_stmt 1
 179              	.LBB79:
 180              	.LBB80:
  61:src/../h/riscv.hpp ****     __asm__ volatile ("csrr %[sepc], sepc" : [sepc] "=r"(sepc));
 181              		.loc 4 61 5
  62:src/../h/riscv.hpp **** 
 182              		.loc 4 62 5
  62:src/../h/riscv.hpp **** 
 183              		.loc 4 62 64 is_stmt 0
 184              	#APP
 185              	# 62 "src/../h/riscv.hpp" 1
 186              		csrr a5, sepc
 187              	# 0 "" 2
 188              	#NO_APP
 189 00b0 2338F4FA 		sd	a5,-80(s0)
  64:src/../h/riscv.hpp **** }
 190              		.loc 4 64 5 is_stmt 1
  64:src/../h/riscv.hpp **** }
 191              		.loc 4 64 12 is_stmt 0
 192 00b4 833704FB 		ld	a5,-80(s0)
 193              	.LBE80:
 194              	.LBE79:
  21:src/riscv.cpp ****     uint64 volatile sstatus = RiscV::r_sstatus();
 195              		.loc 1 21 44
 196 00b8 93874700 		addi	a5,a5,4
  21:src/riscv.cpp ****     uint64 volatile sstatus = RiscV::r_sstatus();
 197              		.loc 1 21 46
 198 00bc 2338F4FC 		sd	a5,-48(s0)
  22:src/riscv.cpp **** 
 199              		.loc 1 22 5 is_stmt 1
 200              	.LBB81:
 201              	.LBB82:
  72:src/../h/riscv.hpp ****     __asm__ volatile ("csrr %[sstatus], sstatus" : [sstatus] "=r"(sstatus));
 202              		.loc 4 72 5
  73:src/../h/riscv.hpp **** 
 203              		.loc 4 73 5
  73:src/../h/riscv.hpp **** 
 204              		.loc 4 73 76 is_stmt 0
 205              	#APP
 206              	# 73 "src/../h/riscv.hpp" 1
 207              		csrr a5, sstatus
 208              	# 0 "" 2
 209              	#NO_APP
 210 00c4 2334F4FA 		sd	a5,-88(s0)
  75:src/../h/riscv.hpp **** }
 211              		.loc 4 75 5 is_stmt 1
  75:src/../h/riscv.hpp **** }
 212              		.loc 4 75 12 is_stmt 0
 213 00c8 833784FA 		ld	a5,-88(s0)
GAS LISTING /tmp/ccIVzTZe.s 			page 12


 214              	.LBE82:
 215              	.LBE81:
  22:src/riscv.cpp **** 
 216              		.loc 1 22 48
 217 00cc 2334F4FC 		sd	a5,-56(s0)
  24:src/riscv.cpp **** 
 218              		.loc 1 24 5 is_stmt 1
 219              	.LBB83:
  24:src/riscv.cpp **** 
 220              		.loc 1 24 15 is_stmt 0
 221 00d0 033784FD 		ld	a4,-40(s0)
  24:src/riscv.cpp **** 
 222              		.loc 1 24 39
 223 00d4 93078000 		li	a5,8
 224 00d8 6308F700 		beq	a4,a5,.L10
  24:src/riscv.cpp **** 
 225              		.loc 1 24 49 discriminator 2
 226 00dc 033784FD 		ld	a4,-40(s0)
  24:src/riscv.cpp **** 
 227              		.loc 1 24 39 discriminator 2
 228 00e0 93079000 		li	a5,9
 229 00e4 6312F70C 		bne	a4,a5,.L31
 230              	.L10:
 231              	.LBB84:
  26:src/riscv.cpp **** 
 232              		.loc 1 26 9 is_stmt 1
 233              	.LBB85:
 234              	.LBB86:
  91:src/../h/riscv.hpp ****     __asm__ volatile ("ld %0, 10*8(fp)" : "=r"(a0));
 235              		.loc 4 91 5
  92:src/../h/riscv.hpp **** 
 236              		.loc 4 92 5
  92:src/../h/riscv.hpp **** 
 237              		.loc 4 92 52 is_stmt 0
 238              	#APP
 239              	# 92 "src/../h/riscv.hpp" 1
 240              		ld a5, 10*8(fp)
 241              	# 0 "" 2
 242              	#NO_APP
 243 00ec 2330F4FC 		sd	a5,-64(s0)
  94:src/../h/riscv.hpp **** }
 244              		.loc 4 94 5 is_stmt 1
  94:src/../h/riscv.hpp **** }
 245              		.loc 4 94 12 is_stmt 0
 246 00f0 833704FC 		ld	a5,-64(s0)
 247              	.LBE86:
 248              	.LBE85:
  26:src/riscv.cpp **** 
 249              		.loc 1 26 42
 250 00f4 2330F4FA 		sd	a5,-96(s0)
  28:src/riscv.cpp ****             uint64 num_of_blocks;
 251              		.loc 1 28 9 is_stmt 1
 252              	.LBB87:
  28:src/riscv.cpp ****             uint64 num_of_blocks;
 253              		.loc 1 28 15 is_stmt 0
 254 00f8 033704FA 		ld	a4,-96(s0)
  28:src/riscv.cpp ****             uint64 num_of_blocks;
GAS LISTING /tmp/ccIVzTZe.s 			page 13


 255              		.loc 1 28 9
 256 00fc 93071000 		li	a5,1
 257 0100 6306F70C 		beq	a4,a5,.L32
 258              	.LBE87:
 259              	.LBE84:
 260              	.LBE83:
  37:src/riscv.cpp ****             void* ptr;
 261              		.loc 1 37 15 is_stmt 1
 262              	.LBB227:
 263              	.LBB213:
 264              	.LBB195:
 265              	.LBB88:
  37:src/riscv.cpp ****             void* ptr;
 266              		.loc 1 37 21 is_stmt 0
 267 0104 033704FA 		ld	a4,-96(s0)
  37:src/riscv.cpp ****             void* ptr;
 268              		.loc 1 37 15
 269 0108 93072000 		li	a5,2
 270 010c 630EF70E 		beq	a4,a5,.L33
 271              	.LBE88:
 272              	.LBE195:
 273              	.LBE213:
 274              	.LBE227:
  46:src/riscv.cpp ****             thread_t* handle;
 275              		.loc 1 46 15 is_stmt 1
 276              	.LBB228:
 277              	.LBB214:
 278              	.LBB196:
 279              	.LBB182:
 280              	.LBB89:
  46:src/riscv.cpp ****             thread_t* handle;
 281              		.loc 1 46 21 is_stmt 0
 282 0110 033704FA 		ld	a4,-96(s0)
  46:src/riscv.cpp ****             thread_t* handle;
 283              		.loc 1 46 15
 284 0114 93071001 		li	a5,17
 285 0118 6304F710 		beq	a4,a5,.L34
 286              	.LBE89:
 287              	.LBE182:
 288              	.LBE196:
 289              	.LBE214:
 290              	.LBE228:
  61:src/riscv.cpp ****             TCB::running->set_finished(true);
 291              		.loc 1 61 15 is_stmt 1
 292              	.LBB229:
 293              	.LBB215:
 294              	.LBB197:
 295              	.LBB183:
 296              	.LBB170:
 297              	.LBB90:
  61:src/riscv.cpp ****             TCB::running->set_finished(true);
 298              		.loc 1 61 21 is_stmt 0
 299 011c 033704FA 		ld	a4,-96(s0)
  61:src/riscv.cpp ****             TCB::running->set_finished(true);
 300              		.loc 1 61 15
 301 0120 93072001 		li	a5,18
 302 0124 6308F712 		beq	a4,a5,.L35
GAS LISTING /tmp/ccIVzTZe.s 			page 14


 303              	.LBE90:
 304              	.LBE170:
 305              	.LBE183:
 306              	.LBE197:
 307              	.LBE215:
 308              	.LBE229:
  69:src/riscv.cpp ****             TCB::time_slice_counter = 0;
 309              		.loc 1 69 15 is_stmt 1
 310              	.LBB230:
 311              	.LBB216:
 312              	.LBB198:
 313              	.LBB184:
 314              	.LBB171:
 315              	.LBB158:
 316              	.LBB91:
  69:src/riscv.cpp ****             TCB::time_slice_counter = 0;
 317              		.loc 1 69 21 is_stmt 0
 318 0128 033704FA 		ld	a4,-96(s0)
  69:src/riscv.cpp ****             TCB::time_slice_counter = 0;
 319              		.loc 1 69 15
 320 012c 93073001 		li	a5,19
 321 0130 6308F714 		beq	a4,a5,.L36
 322              	.LBE91:
 323              	.LBE158:
 324              	.LBE171:
 325              	.LBE184:
 326              	.LBE198:
 327              	.LBE216:
 328              	.LBE230:
  73:src/riscv.cpp ****             thread_t handle;
 329              		.loc 1 73 15 is_stmt 1
 330              	.LBB231:
 331              	.LBB217:
 332              	.LBB199:
 333              	.LBB185:
 334              	.LBB172:
 335              	.LBB159:
 336              	.LBB146:
 337              	.LBB92:
  73:src/riscv.cpp ****             thread_t handle;
 338              		.loc 1 73 21 is_stmt 0
 339 0134 033704FA 		ld	a4,-96(s0)
  73:src/riscv.cpp ****             thread_t handle;
 340              		.loc 1 73 15
 341 0138 93074001 		li	a5,20
 342 013c 630EF714 		beq	a4,a5,.L37
 343              	.LBE92:
 344              	.LBE146:
 345              	.LBE159:
 346              	.LBE172:
 347              	.LBE185:
 348              	.LBE199:
 349              	.LBE217:
 350              	.LBE231:
  79:src/riscv.cpp ****             sem_t* handle;
 351              		.loc 1 79 15 is_stmt 1
 352              	.LBB232:
GAS LISTING /tmp/ccIVzTZe.s 			page 15


 353              	.LBB218:
 354              	.LBB200:
 355              	.LBB186:
 356              	.LBB173:
 357              	.LBB160:
 358              	.LBB147:
 359              	.LBB138:
 360              	.LBB93:
  79:src/riscv.cpp ****             sem_t* handle;
 361              		.loc 1 79 21 is_stmt 0
 362 0140 033704FA 		ld	a4,-96(s0)
  79:src/riscv.cpp ****             sem_t* handle;
 363              		.loc 1 79 15
 364 0144 93071002 		li	a5,33
 365 0148 6300F716 		beq	a4,a5,.L38
 366              	.LBE93:
 367              	.LBE138:
 368              	.LBE147:
 369              	.LBE160:
 370              	.LBE173:
 371              	.LBE186:
 372              	.LBE200:
 373              	.LBE218:
 374              	.LBE232:
  94:src/riscv.cpp ****             sem_t handle;
 375              		.loc 1 94 15 is_stmt 1
 376              	.LBB233:
 377              	.LBB219:
 378              	.LBB201:
 379              	.LBB187:
 380              	.LBB174:
 381              	.LBB161:
 382              	.LBB148:
 383              	.LBB139:
 384              	.LBB130:
 385              	.LBB94:
  94:src/riscv.cpp ****             sem_t handle;
 386              		.loc 1 94 21 is_stmt 0
 387 014c 033704FA 		ld	a4,-96(s0)
  94:src/riscv.cpp ****             sem_t handle;
 388              		.loc 1 94 15
 389 0150 93072002 		li	a5,34
 390 0154 6302F718 		beq	a4,a5,.L39
 391              	.LBE94:
 392              	.LBE130:
 393              	.LBE139:
 394              	.LBE148:
 395              	.LBE161:
 396              	.LBE174:
 397              	.LBE187:
 398              	.LBE201:
 399              	.LBE219:
 400              	.LBE233:
 103:src/riscv.cpp ****             sem_t handle;
 401              		.loc 1 103 15 is_stmt 1
 402              	.LBB234:
 403              	.LBB220:
GAS LISTING /tmp/ccIVzTZe.s 			page 16


 404              	.LBB202:
 405              	.LBB188:
 406              	.LBB175:
 407              	.LBB162:
 408              	.LBB149:
 409              	.LBB140:
 410              	.LBB131:
 411              	.LBB123:
 412              	.LBB95:
 103:src/riscv.cpp ****             sem_t handle;
 413              		.loc 1 103 21 is_stmt 0
 414 0158 033704FA 		ld	a4,-96(s0)
 103:src/riscv.cpp ****             sem_t handle;
 415              		.loc 1 103 15
 416 015c 93073002 		li	a5,35
 417 0160 6308F718 		beq	a4,a5,.L40
 418              	.LBE95:
 419              	.LBE123:
 420              	.LBE131:
 421              	.LBE140:
 422              	.LBE149:
 423              	.LBE162:
 424              	.LBE175:
 425              	.LBE188:
 426              	.LBE202:
 427              	.LBE220:
 428              	.LBE234:
 112:src/riscv.cpp ****             sem_t handle;
 429              		.loc 1 112 15 is_stmt 1
 430              	.LBB235:
 431              	.LBB221:
 432              	.LBB203:
 433              	.LBB189:
 434              	.LBB176:
 435              	.LBB163:
 436              	.LBB150:
 437              	.LBB141:
 438              	.LBB132:
 439              	.LBB124:
 440              	.LBB117:
 441              	.LBB96:
 112:src/riscv.cpp ****             sem_t handle;
 442              		.loc 1 112 21 is_stmt 0
 443 0164 033704FA 		ld	a4,-96(s0)
 112:src/riscv.cpp ****             sem_t handle;
 444              		.loc 1 112 15
 445 0168 93074002 		li	a5,36
 446 016c 630EF718 		beq	a4,a5,.L41
 447              	.LBE96:
 448              	.LBE117:
 449              	.LBE124:
 450              	.LBE132:
 451              	.LBE141:
 452              	.LBE150:
 453              	.LBE163:
 454              	.LBE176:
 455              	.LBE189:
GAS LISTING /tmp/ccIVzTZe.s 			page 17


 456              	.LBE203:
 457              	.LBE221:
 458              	.LBE235:
 121:src/riscv.cpp ****             time_t slice;
 459              		.loc 1 121 15 is_stmt 1
 460              	.LBB236:
 461              	.LBB222:
 462              	.LBB204:
 463              	.LBB190:
 464              	.LBB177:
 465              	.LBB164:
 466              	.LBB151:
 467              	.LBB142:
 468              	.LBB133:
 469              	.LBB125:
 470              	.LBB118:
 471              	.LBB112:
 472              	.LBB97:
 121:src/riscv.cpp ****             time_t slice;
 473              		.loc 1 121 21 is_stmt 0
 474 0170 033704FA 		ld	a4,-96(s0)
 121:src/riscv.cpp ****             time_t slice;
 475              		.loc 1 121 15
 476 0174 93071003 		li	a5,49
 477 0178 6304F71A 		beq	a4,a5,.L42
 478              	.LBE97:
 479              	.LBE112:
 480              	.LBE118:
 481              	.LBE125:
 482              	.LBE133:
 483              	.LBE142:
 484              	.LBE151:
 485              	.LBE164:
 486              	.LBE177:
 487              	.LBE190:
 488              	.LBE204:
 489              	.LBE222:
 490              	.LBE236:
 133:src/riscv.cpp ****             char* ret;
 491              		.loc 1 133 15 is_stmt 1
 492              	.LBB237:
 493              	.LBB223:
 494              	.LBB205:
 495              	.LBB191:
 496              	.LBB178:
 497              	.LBB165:
 498              	.LBB152:
 499              	.LBB143:
 500              	.LBB134:
 501              	.LBB126:
 502              	.LBB119:
 503              	.LBB113:
 504              	.LBB108:
 505              	.LBB98:
 133:src/riscv.cpp ****             char* ret;
 506              		.loc 1 133 21 is_stmt 0
 507 017c 033704FA 		ld	a4,-96(s0)
GAS LISTING /tmp/ccIVzTZe.s 			page 18


 133:src/riscv.cpp ****             char* ret;
 508              		.loc 1 133 15
 509 0180 93071004 		li	a5,65
 510 0184 630CF71C 		beq	a4,a5,.L43
 511              	.LBE98:
 512              	.LBE108:
 513              	.LBE113:
 514              	.LBE119:
 515              	.LBE126:
 516              	.LBE134:
 517              	.LBE143:
 518              	.LBE152:
 519              	.LBE165:
 520              	.LBE178:
 521              	.LBE191:
 522              	.LBE205:
 523              	.LBE223:
 524              	.LBE237:
 139:src/riscv.cpp ****             char c;
 525              		.loc 1 139 15 is_stmt 1
 526              	.LBB238:
 527              	.LBB224:
 528              	.LBB206:
 529              	.LBB192:
 530              	.LBB179:
 531              	.LBB166:
 532              	.LBB153:
 533              	.LBB144:
 534              	.LBB135:
 535              	.LBB127:
 536              	.LBB120:
 537              	.LBB114:
 538              	.LBB109:
 539              	.LBB102:
 540              	.LBB99:
 139:src/riscv.cpp ****             char c;
 541              		.loc 1 139 21 is_stmt 0
 542 0188 033704FA 		ld	a4,-96(s0)
 139:src/riscv.cpp ****             char c;
 543              		.loc 1 139 15
 544 018c 93072004 		li	a5,66
 545 0190 631AF704 		bne	a4,a5,.L13
 546              	.LBB100:
 140:src/riscv.cpp ****             __asm__ volatile ("ld %0, 11*8(fp)" : "=r"(c));
 547              		.loc 1 140 13 is_stmt 1
 141:src/riscv.cpp **** 
 548              		.loc 1 141 13
 141:src/riscv.cpp **** 
 549              		.loc 1 141 59 is_stmt 0
 550              	#APP
 551              	# 141 "src/riscv.cpp" 1
 552              		ld a0, 11*8(fp)
 553              	# 0 "" 2
 554              	.LVL8:
 143:src/riscv.cpp ****         }
 555              		.loc 1 143 13 is_stmt 1
 143:src/riscv.cpp ****         }
GAS LISTING /tmp/ccIVzTZe.s 			page 19


 556              		.loc 1 143 19 is_stmt 0
 557              	#NO_APP
 558 0198 1375F50F 		andi	a0,a0,0xff
 559 019c 97000000 		call	__putc@plt
 559      E7800000 
 560              	.LVL9:
 561              	.LBE100:
 562 01a4 6F000004 		j	.L13
 563              	.L31:
 564              	.LBE99:
 565              	.LBE102:
 566              	.LBE109:
 567              	.LBE114:
 568              	.LBE120:
 569              	.LBE127:
 570              	.LBE135:
 571              	.LBE144:
 572              	.LBE153:
 573              	.LBE166:
 574              	.LBE179:
 575              	.LBE192:
 576              	.LBE206:
 577              	.LBE224:
 149:src/riscv.cpp ****         __putc('\n');
 578              		.loc 1 149 9 is_stmt 1
 149:src/riscv.cpp ****         __putc('\n');
 579              		.loc 1 149 15 is_stmt 0
 580 01a8 033584FD 		ld	a0,-40(s0)
 581 01ac 1B050503 		addiw	a0,a0,48
 582 01b0 1375F50F 		andi	a0,a0,0xff
 583 01b4 97000000 		call	__putc@plt
 583      E7800000 
 584              	.LVL10:
 150:src/riscv.cpp ****         while(true);
 585              		.loc 1 150 9 is_stmt 1
 150:src/riscv.cpp ****         while(true);
 586              		.loc 1 150 15 is_stmt 0
 587 01bc 1305A000 		li	a0,10
 588 01c0 97000000 		call	__putc@plt
 588      E7800000 
 589              	.LVL11:
 590              	.L11:
 151:src/riscv.cpp ****     }
 591              		.loc 1 151 9 is_stmt 1 discriminator 1
 151:src/riscv.cpp ****     }
 592              		.loc 1 151 9 discriminator 1
 593 01c8 6F000000 		j	.L11
 594              	.L32:
 595              	.LBB225:
 596              	.LBB207:
 597              	.LBB193:
  29:src/riscv.cpp ****             uint64* ret;
 598              		.loc 1 29 13
  30:src/riscv.cpp **** 
 599              		.loc 1 30 13
  32:src/riscv.cpp ****             __asm__ volatile ("ld %0, 12*8(fp)" : "=r"(ret));
 600              		.loc 1 32 13
GAS LISTING /tmp/ccIVzTZe.s 			page 20


  32:src/riscv.cpp ****             __asm__ volatile ("ld %0, 12*8(fp)" : "=r"(ret));
 601              		.loc 1 32 71 is_stmt 0
 602              	#APP
 603              	# 32 "src/riscv.cpp" 1
 604              		ld a0, 11*8(fp)
 605              	# 0 "" 2
 606              	.LVL12:
  33:src/riscv.cpp **** 
 607              		.loc 1 33 13 is_stmt 1
  33:src/riscv.cpp **** 
 608              		.loc 1 33 61 is_stmt 0
 609              	# 33 "src/riscv.cpp" 1
 610              		ld s1, 12*8(fp)
 611              	# 0 "" 2
 612              	.LVL13:
  35:src/riscv.cpp **** 
 613              		.loc 1 35 13 is_stmt 1
  35:src/riscv.cpp **** 
 614              		.loc 1 35 40 is_stmt 0
 615              	#NO_APP
 616 01d4 13156500 		slli	a0,a0,6
 617              	.LVL14:
 618 01d8 97000000 		call	__mem_alloc@plt
 618      E7800000 
 619              	.LVL15:
  35:src/riscv.cpp **** 
 620              		.loc 1 35 18
 621 01e0 23B0A400 		sd	a0,0(s1)
 622              	.LVL16:
 623              	.L13:
 624              	.LBE193:
 625              	.LBE207:
 146:src/riscv.cpp ****         w_sstatus(sstatus);
 626              		.loc 1 146 9 is_stmt 1
 146:src/riscv.cpp ****         w_sstatus(sstatus);
 627              		.loc 1 146 15 is_stmt 0
 628 01e4 833704FD 		ld	a5,-48(s0)
 629              	.LVL17:
 630              	.LBB208:
 631              	.LBB209:
  68:src/../h/riscv.hpp **** }
 632              		.loc 4 68 5 is_stmt 1
  68:src/../h/riscv.hpp **** }
 633              		.loc 4 68 65 is_stmt 0
 634              	#APP
 635              	# 68 "src/../h/riscv.hpp" 1
 636              		csrw sepc, a5
 637              	# 0 "" 2
 638              	.LVL18:
 639              	#NO_APP
 640              	.LBE209:
 641              	.LBE208:
 147:src/riscv.cpp ****     }else{
 642              		.loc 1 147 9 is_stmt 1
 147:src/riscv.cpp ****     }else{
 643              		.loc 1 147 18 is_stmt 0
 644 01ec 833784FC 		ld	a5,-56(s0)
GAS LISTING /tmp/ccIVzTZe.s 			page 21


 645              	.LVL19:
 646              	.LBB210:
 647              	.LBB211:
  79:src/../h/riscv.hpp **** }
 648              		.loc 4 79 5 is_stmt 1
  79:src/../h/riscv.hpp **** }
 649              		.loc 4 79 77 is_stmt 0
 650              	#APP
 651              	# 79 "src/../h/riscv.hpp" 1
 652              		csrw sstatus, a5
 653              	# 0 "" 2
 654              	.LVL20:
 655              	#NO_APP
 656              	.LBE211:
 657              	.LBE210:
 658              	.LBE225:
 659              	.LBE238:
 153:src/riscv.cpp **** 
 660              		.loc 1 153 1
 661 01f4 83308105 		ld	ra,88(sp)
 662              		.cfi_remember_state
 663              		.cfi_restore 1
 664 01f8 03340105 		ld	s0,80(sp)
 665              		.cfi_restore 8
 666              		.cfi_def_cfa 2, 96
 667 01fc 83348104 		ld	s1,72(sp)
 668              		.cfi_restore 9
 669 0200 13010106 		addi	sp,sp,96
 670              		.cfi_def_cfa_offset 0
 671 0204 67800000 		jr	ra
 672              	.L33:
 673              		.cfi_restore_state
 674              	.LBB239:
 675              	.LBB226:
 676              	.LBB212:
 677              	.LBB194:
 678              	.LBB180:
  38:src/riscv.cpp ****             uint64* ret;
 679              		.loc 1 38 13 is_stmt 1
  39:src/riscv.cpp **** 
 680              		.loc 1 39 13
  41:src/riscv.cpp ****             __asm__ volatile ("ld %0, 12*8(fp)" : "=r"(ret));
 681              		.loc 1 41 13
  41:src/riscv.cpp ****             __asm__ volatile ("ld %0, 12*8(fp)" : "=r"(ret));
 682              		.loc 1 41 61 is_stmt 0
 683              	#APP
 684              	# 41 "src/riscv.cpp" 1
 685              		ld a0, 11*8(fp)
 686              	# 0 "" 2
 687              	.LVL21:
  42:src/riscv.cpp **** 
 688              		.loc 1 42 13 is_stmt 1
  42:src/riscv.cpp **** 
 689              		.loc 1 42 61 is_stmt 0
 690              	# 42 "src/riscv.cpp" 1
 691              		ld s1, 12*8(fp)
 692              	# 0 "" 2
GAS LISTING /tmp/ccIVzTZe.s 			page 22


 693              	.LVL22:
  44:src/riscv.cpp **** 
 694              		.loc 1 44 13 is_stmt 1
  44:src/riscv.cpp **** 
 695              		.loc 1 44 30 is_stmt 0
 696              	#NO_APP
 697 0210 97000000 		call	__mem_free@plt
 697      E7800000 
 698              	.LVL23:
  44:src/riscv.cpp **** 
 699              		.loc 1 44 18
 700 0218 23B0A400 		sd	a0,0(s1)
 701              	.LBE180:
 702 021c 6FF09FFC 		j	.L13
 703              	.LVL24:
 704              	.L34:
 705              	.LBB181:
 706              	.LBB167:
  47:src/riscv.cpp ****             TCB::Body start_routine;
 707              		.loc 1 47 13 is_stmt 1
  48:src/riscv.cpp ****             void* args = nullptr;
 708              		.loc 1 48 13
  49:src/riscv.cpp ****             uint64* stack;
 709              		.loc 1 49 13
  50:src/riscv.cpp ****             int *ret;
 710              		.loc 1 50 13
  51:src/riscv.cpp **** 
 711              		.loc 1 51 13
  53:src/riscv.cpp ****             __asm__ volatile ("ld %0, 12*8(fp)" : "=r"(start_routine));
 712              		.loc 1 53 13
  53:src/riscv.cpp ****             __asm__ volatile ("ld %0, 12*8(fp)" : "=r"(start_routine));
 713              		.loc 1 53 64 is_stmt 0
 714              	#APP
 715              	# 53 "src/riscv.cpp" 1
 716              		ld a0, 11*8(fp)
 717              	# 0 "" 2
 718              	.LVL25:
  54:src/riscv.cpp ****             __asm__ volatile ("ld %0, 13*8(fp)" : "=r"(args));
 719              		.loc 1 54 13 is_stmt 1
  54:src/riscv.cpp ****             __asm__ volatile ("ld %0, 13*8(fp)" : "=r"(args));
 720              		.loc 1 54 71 is_stmt 0
 721              	# 54 "src/riscv.cpp" 1
 722              		ld a1, 12*8(fp)
 723              	# 0 "" 2
 724              	.LVL26:
  55:src/riscv.cpp ****             __asm__ volatile ("ld %0, 14*8(fp)" : "=r"(stack));
 725              		.loc 1 55 13 is_stmt 1
  55:src/riscv.cpp ****             __asm__ volatile ("ld %0, 14*8(fp)" : "=r"(stack));
 726              		.loc 1 55 62 is_stmt 0
 727              	# 55 "src/riscv.cpp" 1
 728              		ld a2, 13*8(fp)
 729              	# 0 "" 2
 730              	.LVL27:
  56:src/riscv.cpp ****             __asm__ volatile ("ld %0, 15*8(fp)" : "=r"(ret));
 731              		.loc 1 56 13 is_stmt 1
  56:src/riscv.cpp ****             __asm__ volatile ("ld %0, 15*8(fp)" : "=r"(ret));
 732              		.loc 1 56 63 is_stmt 0
GAS LISTING /tmp/ccIVzTZe.s 			page 23


 733              	# 56 "src/riscv.cpp" 1
 734              		ld a3, 14*8(fp)
 735              	# 0 "" 2
 736              	.LVL28:
  57:src/riscv.cpp **** 
 737              		.loc 1 57 13 is_stmt 1
  57:src/riscv.cpp **** 
 738              		.loc 1 57 61 is_stmt 0
 739              	# 57 "src/riscv.cpp" 1
 740              		ld s1, 15*8(fp)
 741              	# 0 "" 2
 742              	.LVL29:
  59:src/riscv.cpp **** 
 743              		.loc 1 59 13 is_stmt 1
  59:src/riscv.cpp **** 
 744              		.loc 1 59 38 is_stmt 0
 745              	#NO_APP
 746 0234 97000000 		call	_ZN3TCB13create_threadEPPS_PFvPvES2_Pm@plt
 746      E7800000 
 747              	.LVL30:
  59:src/riscv.cpp **** 
 748              		.loc 1 59 86
 749 023c 63080500 		beqz	a0,.L28
 750 0240 93070000 		li	a5,0
 751              	.L16:
  59:src/riscv.cpp **** 
 752              		.loc 1 59 18 discriminator 4
 753 0244 23A0F400 		sw	a5,0(s1)
 754              	.LBE167:
 755 0248 6FF0DFF9 		j	.L13
 756              	.L28:
 757              	.LBB168:
  59:src/riscv.cpp **** 
 758              		.loc 1 59 86
 759 024c 9307F0FF 		li	a5,-1
 760 0250 6FF05FFF 		j	.L16
 761              	.LVL31:
 762              	.L35:
 763              	.LBE168:
 764              	.LBB169:
 765              	.LBB154:
  62:src/riscv.cpp ****             TCB* temp = TCB::running;
 766              		.loc 1 62 13 is_stmt 1
  62:src/riscv.cpp ****             TCB* temp = TCB::running;
 767              		.loc 1 62 39 is_stmt 0
 768 0254 97070000 		la	a5,_ZN3TCB7runningE
 768      83B70700 
 769 025c 83B40700 		ld	s1,0(a5)
 770              	.LVL32:
 771              	.LBB155:
 772              	.LBB156:
  64:src/../h/../h/../h/tcb.hpp **** 
 773              		.loc 3 64 33 is_stmt 1
  64:src/../h/../h/../h/tcb.hpp **** 
 774              		.loc 3 64 48 is_stmt 0
 775 0260 93071000 		li	a5,1
 776 0264 238AF402 		sb	a5,52(s1)
GAS LISTING /tmp/ccIVzTZe.s 			page 24


 777              	.LVL33:
 778              	.LBE156:
 779              	.LBE155:
  63:src/riscv.cpp **** 
 780              		.loc 1 63 13 is_stmt 1
  65:src/riscv.cpp **** 
 781              		.loc 1 65 13
  65:src/riscv.cpp **** 
 782              		.loc 1 65 26 is_stmt 0
 783 0268 97000000 		call	_ZN3TCB8dispatchEv@plt
 783      E7800000 
 784              	.LVL34:
  67:src/riscv.cpp **** 
 785              		.loc 1 67 13 is_stmt 1
  67:src/riscv.cpp **** 
 786              		.loc 1 67 23 is_stmt 0
 787 0270 13850400 		mv	a0,s1
 788 0274 97000000 		call	__mem_free@plt
 788      E7800000 
 789              	.LVL35:
 790              	.LBE154:
 791 027c 6FF09FF6 		j	.L13
 792              	.LVL36:
 793              	.L36:
 794              	.LBB157:
  70:src/riscv.cpp ****             TCB::dispatch();
 795              		.loc 1 70 13 is_stmt 1
  70:src/riscv.cpp ****             TCB::dispatch();
 796              		.loc 1 70 37 is_stmt 0
 797 0280 97070000 		la	a5,_ZN3TCB18time_slice_counterE
 797      83B70700 
 798 0288 23B00700 		sd	zero,0(a5)
  71:src/riscv.cpp **** 
 799              		.loc 1 71 13 is_stmt 1
  71:src/riscv.cpp **** 
 800              		.loc 1 71 26 is_stmt 0
 801 028c 97000000 		call	_ZN3TCB8dispatchEv@plt
 801      E7800000 
 802              	.LVL37:
 803 0294 6FF01FF5 		j	.L13
 804              	.L37:
 805              	.LBB145:
 806              	.LBB136:
  74:src/riscv.cpp ****             __asm__ volatile ("ld %0, 11*8(fp)" : "=r"(handle));
 807              		.loc 1 74 13 is_stmt 1
  75:src/riscv.cpp **** 
 808              		.loc 1 75 13
  75:src/riscv.cpp **** 
 809              		.loc 1 75 64 is_stmt 0
 810              	#APP
 811              	# 75 "src/riscv.cpp" 1
 812              		ld a0, 11*8(fp)
 813              	# 0 "" 2
 814              	.LVL38:
  77:src/riscv.cpp **** 
 815              		.loc 1 77 13 is_stmt 1
  77:src/riscv.cpp **** 
GAS LISTING /tmp/ccIVzTZe.s 			page 25


 816              		.loc 1 77 22 is_stmt 0
 817              	#NO_APP
 818 029c 97000000 		call	_ZN3TCB4joinEPS_@plt
 818      E7800000 
 819              	.LVL39:
 820              	.LBE136:
 821 02a4 6FF01FF4 		j	.L13
 822              	.L38:
 823              	.LBB137:
 824              	.LBB128:
  80:src/riscv.cpp ****             int val;
 825              		.loc 1 80 13 is_stmt 1
  81:src/riscv.cpp ****             int* ret;
 826              		.loc 1 81 13
  82:src/riscv.cpp **** 
 827              		.loc 1 82 13
  84:src/riscv.cpp ****             __asm__ volatile ("ld %0, 12*8(fp)" : "=r"(val));
 828              		.loc 1 84 13
  84:src/riscv.cpp ****             __asm__ volatile ("ld %0, 12*8(fp)" : "=r"(val));
 829              		.loc 1 84 64 is_stmt 0
 830              	#APP
 831              	# 84 "src/riscv.cpp" 1
 832              		ld a0, 11*8(fp)
 833              	# 0 "" 2
 834              	.LVL40:
  85:src/riscv.cpp ****             __asm__ volatile ("ld %0, 13*8(fp)" : "=r"(ret));
 835              		.loc 1 85 13 is_stmt 1
  85:src/riscv.cpp ****             __asm__ volatile ("ld %0, 13*8(fp)" : "=r"(ret));
 836              		.loc 1 85 61 is_stmt 0
 837              	# 85 "src/riscv.cpp" 1
 838              		ld a1, 12*8(fp)
 839              	# 0 "" 2
 840              	#NO_APP
 841 02b0 9B850500 		sext.w	a1,a1
 842              	.LVL41:
  86:src/riscv.cpp **** 
 843              		.loc 1 86 13 is_stmt 1
  86:src/riscv.cpp **** 
 844              		.loc 1 86 61 is_stmt 0
 845              	#APP
 846              	# 86 "src/riscv.cpp" 1
 847              		ld s1, 13*8(fp)
 848              	# 0 "" 2
 849              	.LVL42:
  88:src/riscv.cpp ****                 *ret = 0;
 850              		.loc 1 88 13 is_stmt 1
  88:src/riscv.cpp ****                 *ret = 0;
 851              		.loc 1 88 37 is_stmt 0
 852              	#NO_APP
 853 02b8 97000000 		call	_ZN3sem16create_semaphoreEPPS_i@plt
 853      E7800000 
 854              	.LVL43:
  88:src/riscv.cpp ****                 *ret = 0;
 855              		.loc 1 88 13
 856 02c0 63060500 		beqz	a0,.L21
  89:src/riscv.cpp ****             }else{
 857              		.loc 1 89 17 is_stmt 1
GAS LISTING /tmp/ccIVzTZe.s 			page 26


  89:src/riscv.cpp ****             }else{
 858              		.loc 1 89 22 is_stmt 0
 859 02c4 23A00400 		sw	zero,0(s1)
 860 02c8 6FF0DFF1 		j	.L13
 861              	.L21:
  91:src/riscv.cpp ****             }
 862              		.loc 1 91 17 is_stmt 1
  91:src/riscv.cpp ****             }
 863              		.loc 1 91 22 is_stmt 0
 864 02cc 9307F0FF 		li	a5,-1
 865 02d0 23A0F400 		sw	a5,0(s1)
 866 02d4 6FF01FF1 		j	.L13
 867              	.LVL44:
 868              	.L39:
 869              	.LBE128:
 870              	.LBB129:
 871              	.LBB121:
  95:src/riscv.cpp ****             int* ret;
 872              		.loc 1 95 13 is_stmt 1
  96:src/riscv.cpp **** 
 873              		.loc 1 96 13
  98:src/riscv.cpp ****             __asm__ volatile("ld %0, 12*8(fp)" : "=r"(ret));
 874              		.loc 1 98 13
  98:src/riscv.cpp ****             __asm__ volatile("ld %0, 12*8(fp)" : "=r"(ret));
 875              		.loc 1 98 63 is_stmt 0
 876              	#APP
 877              	# 98 "src/riscv.cpp" 1
 878              		ld a0, 11*8(fp)
 879              	# 0 "" 2
 880              	.LVL45:
  99:src/riscv.cpp **** 
 881              		.loc 1 99 13 is_stmt 1
  99:src/riscv.cpp **** 
 882              		.loc 1 99 60 is_stmt 0
 883              	# 99 "src/riscv.cpp" 1
 884              		ld s1, 12*8(fp)
 885              	# 0 "" 2
 886              	.LVL46:
 101:src/riscv.cpp **** 
 887              		.loc 1 101 13 is_stmt 1
 101:src/riscv.cpp **** 
 888              		.loc 1 101 33 is_stmt 0
 889              	#NO_APP
 890 02e0 97000000 		call	_ZN3sem5closeEv@plt
 890      E7800000 
 891              	.LVL47:
 101:src/riscv.cpp **** 
 892              		.loc 1 101 18
 893 02e8 23A0A400 		sw	a0,0(s1)
 894              	.LBE121:
 895 02ec 6FF09FEF 		j	.L13
 896              	.LVL48:
 897              	.L40:
 898              	.LBB122:
 899              	.LBB115:
 104:src/riscv.cpp ****             int* ret;
 900              		.loc 1 104 13 is_stmt 1
GAS LISTING /tmp/ccIVzTZe.s 			page 27


 105:src/riscv.cpp **** 
 901              		.loc 1 105 13
 107:src/riscv.cpp ****             __asm__ volatile("ld %0, 12*8(fp)" : "=r"(ret));
 902              		.loc 1 107 13
 107:src/riscv.cpp ****             __asm__ volatile("ld %0, 12*8(fp)" : "=r"(ret));
 903              		.loc 1 107 63 is_stmt 0
 904              	#APP
 905              	# 107 "src/riscv.cpp" 1
 906              		ld a0, 11*8(fp)
 907              	# 0 "" 2
 908              	.LVL49:
 108:src/riscv.cpp **** 
 909              		.loc 1 108 13 is_stmt 1
 108:src/riscv.cpp **** 
 910              		.loc 1 108 60 is_stmt 0
 911              	# 108 "src/riscv.cpp" 1
 912              		ld s1, 12*8(fp)
 913              	# 0 "" 2
 914              	.LVL50:
 110:src/riscv.cpp **** 
 915              		.loc 1 110 13 is_stmt 1
 110:src/riscv.cpp **** 
 916              		.loc 1 110 32 is_stmt 0
 917              	#NO_APP
 918 02f8 97000000 		call	_ZN3sem4waitEv@plt
 918      E7800000 
 919              	.LVL51:
 110:src/riscv.cpp **** 
 920              		.loc 1 110 18
 921 0300 23A0A400 		sw	a0,0(s1)
 922              	.LBE115:
 923 0304 6FF01FEE 		j	.L13
 924              	.LVL52:
 925              	.L41:
 926              	.LBB116:
 927              	.LBB110:
 113:src/riscv.cpp ****             int* ret;
 928              		.loc 1 113 13 is_stmt 1
 114:src/riscv.cpp **** 
 929              		.loc 1 114 13
 116:src/riscv.cpp ****             __asm__ volatile("ld %0, 12*8(fp)" : "=r"(ret));
 930              		.loc 1 116 13
 116:src/riscv.cpp ****             __asm__ volatile("ld %0, 12*8(fp)" : "=r"(ret));
 931              		.loc 1 116 63 is_stmt 0
 932              	#APP
 933              	# 116 "src/riscv.cpp" 1
 934              		ld a0, 11*8(fp)
 935              	# 0 "" 2
 936              	.LVL53:
 117:src/riscv.cpp **** 
 937              		.loc 1 117 13 is_stmt 1
 117:src/riscv.cpp **** 
 938              		.loc 1 117 60 is_stmt 0
 939              	# 117 "src/riscv.cpp" 1
 940              		ld s1, 12*8(fp)
 941              	# 0 "" 2
 942              	.LVL54:
GAS LISTING /tmp/ccIVzTZe.s 			page 28


 119:src/riscv.cpp **** 
 943              		.loc 1 119 13 is_stmt 1
 119:src/riscv.cpp **** 
 944              		.loc 1 119 34 is_stmt 0
 945              	#NO_APP
 946 0310 97000000 		call	_ZN3sem6signalEv@plt
 946      E7800000 
 947              	.LVL55:
 119:src/riscv.cpp **** 
 948              		.loc 1 119 18
 949 0318 23A0A400 		sw	a0,0(s1)
 950              	.LBE110:
 951 031c 6FF09FEC 		j	.L13
 952              	.LVL56:
 953              	.L42:
 954              	.LBB111:
 955              	.LBB103:
 122:src/riscv.cpp **** 
 956              		.loc 1 122 13 is_stmt 1
 124:src/riscv.cpp **** 
 957              		.loc 1 124 13
 124:src/riscv.cpp **** 
 958              		.loc 1 124 62 is_stmt 0
 959              	#APP
 960              	# 124 "src/riscv.cpp" 1
 961              		ld a2, 11*8(fp)
 962              	# 0 "" 2
 963              	.LVL57:
 126:src/riscv.cpp ****                 TCB::running->set_sleeping(true);
 964              		.loc 1 126 13 is_stmt 1
 965              	#NO_APP
 966 0324 63180600 		bnez	a2,.L44
 967              	.LVL58:
 968              	.L26:
 131:src/riscv.cpp **** 
 969              		.loc 1 131 13
 131:src/riscv.cpp **** 
 970              		.loc 1 131 26 is_stmt 0
 971 0328 97000000 		call	_ZN3TCB8dispatchEv@plt
 971      E7800000 
 972              	.LVL59:
 973              	.LBE103:
 974 0330 6FF05FEB 		j	.L13
 975              	.LVL60:
 976              	.L44:
 977              	.LBB106:
 127:src/riscv.cpp ****                 RiscV::list_of_sleeping_threads.put(TCB::running, slice);
 978              		.loc 1 127 17 is_stmt 1
 127:src/riscv.cpp ****                 RiscV::list_of_sleeping_threads.put(TCB::running, slice);
 979              		.loc 1 127 43 is_stmt 0
 980 0334 97070000 		la	a5,_ZN3TCB7runningE
 980      83B70700 
 981 033c 83B50700 		ld	a1,0(a5)
 982              	.LVL61:
 983              	.LBB104:
 984              	.LBB105:
  67:src/../h/../h/../h/tcb.hpp **** 
GAS LISTING /tmp/ccIVzTZe.s 			page 29


 985              		.loc 3 67 33 is_stmt 1
  67:src/../h/../h/../h/tcb.hpp **** 
 986              		.loc 3 67 48 is_stmt 0
 987 0340 93071000 		li	a5,1
 988 0344 238BF502 		sb	a5,54(a1)
 989              	.LVL62:
 990              	.LBE105:
 991              	.LBE104:
 128:src/riscv.cpp ****             }
 992              		.loc 1 128 17 is_stmt 1
 128:src/riscv.cpp ****             }
 993              		.loc 1 128 52 is_stmt 0
 994 0348 17050000 		lla	a0,.LANCHOR0
 994      13050500 
 995 0350 97000000 		call	_ZN19SleepingThreadsList3putEP3TCBm@plt
 995      E7800000 
 996              	.LVL63:
 997 0358 6FF01FFD 		j	.L26
 998              	.L43:
 999              	.LBE106:
 1000              	.LBB107:
 1001              	.LBB101:
 134:src/riscv.cpp ****             __asm__ volatile ("ld %0, 11*8(fp)" : "=r"(ret));
 1002              		.loc 1 134 13 is_stmt 1
 135:src/riscv.cpp **** 
 1003              		.loc 1 135 13
 135:src/riscv.cpp **** 
 1004              		.loc 1 135 61 is_stmt 0
 1005              	#APP
 1006              	# 135 "src/riscv.cpp" 1
 1007              		ld s1, 11*8(fp)
 1008              	# 0 "" 2
 1009              	.LVL64:
 137:src/riscv.cpp **** 
 1010              		.loc 1 137 13 is_stmt 1
 137:src/riscv.cpp **** 
 1011              		.loc 1 137 26 is_stmt 0
 1012              	#NO_APP
 1013 0360 97000000 		call	__getc@plt
 1013      E7800000 
 1014              	.LVL65:
 137:src/riscv.cpp **** 
 1015              		.loc 1 137 18
 1016 0368 2380A400 		sb	a0,0(s1)
 1017              	.LBE101:
 1018 036c 6FF09FE7 		j	.L13
 1019              	.LBE107:
 1020              	.LBE111:
 1021              	.LBE116:
 1022              	.LBE122:
 1023              	.LBE129:
 1024              	.LBE137:
 1025              	.LBE145:
 1026              	.LBE157:
 1027              	.LBE169:
 1028              	.LBE181:
 1029              	.LBE194:
GAS LISTING /tmp/ccIVzTZe.s 			page 30


 1030              	.LBE212:
 1031              	.LBE226:
 1032              	.LBE239:
 1033              		.cfi_endproc
 1034              	.LFE39:
 1036              		.align	2
 1037              		.globl	_ZN5RiscV20handleTimerInterruptEv
 1039              	_ZN5RiscV20handleTimerInterruptEv:
 1040              	.LFB40:
 155:src/riscv.cpp **** //    uint64 volatile sepc = RiscV::r_sepc();
 1041              		.loc 1 155 36 is_stmt 1
 1042              		.cfi_startproc
 1043 0370 130101FB 		addi	sp,sp,-80
 1044              		.cfi_def_cfa_offset 80
 1045 0374 23341104 		sd	ra,72(sp)
 1046 0378 23308104 		sd	s0,64(sp)
 1047 037c 233C9102 		sd	s1,56(sp)
 1048              		.cfi_offset 1, -8
 1049              		.cfi_offset 8, -16
 1050              		.cfi_offset 9, -24
 1051 0380 13040105 		addi	s0,sp,80
 1052              		.cfi_def_cfa 8, 0
 165:src/riscv.cpp **** 
 1053              		.loc 1 165 5
 165:src/riscv.cpp **** 
 1054              		.loc 1 165 75 is_stmt 0
 1055 0384 17050000 		lla	a0,.LANCHOR0
 1055      13050500 
 1056 038c 97000000 		call	_ZN19SleepingThreadsList15peek_time_firstEv@plt
 1056      E7800000 
 1057              	.LVL66:
 165:src/riscv.cpp **** 
 1058              		.loc 1 165 76
 1059 0394 233CA4FC 		sd	a0,-40(s0)
 167:src/riscv.cpp ****         RiscV::list_of_sleeping_threads.dec_time_first();
 1060              		.loc 1 167 5 is_stmt 1
 167:src/riscv.cpp ****         RiscV::list_of_sleeping_threads.dec_time_first();
 1061              		.loc 1 167 13 is_stmt 0
 1062 0398 033784FD 		ld	a4,-40(s0)
 167:src/riscv.cpp ****         RiscV::list_of_sleeping_threads.dec_time_first();
 1063              		.loc 1 167 5
 1064 039c 9307F0FF 		li	a5,-1
 1065 03a0 6314F704 		bne	a4,a5,.L49
 1066              	.L46:
 174:src/riscv.cpp **** 
 1067              		.loc 1 174 5 is_stmt 1
 1068              	.LVL67:
 1069              	.LBB240:
 1070              	.LBB241:
 102:src/../h/riscv.hpp **** }
 103:src/../h/riscv.hpp **** 
 104:src/../h/riscv.hpp **** inline void RiscV::mc_sip(uint64 mask) {
 105:src/../h/riscv.hpp ****     __asm__ volatile ("csrc sip, %[mask]" : : [mask] "r"(mask));
 1071              		.loc 4 105 5
 1072              		.loc 4 105 64 is_stmt 0
 1073 03a4 93072000 		li	a5,2
 1074              	#APP
GAS LISTING /tmp/ccIVzTZe.s 			page 31


 1075              	# 105 "src/../h/riscv.hpp" 1
 106              	}
 1076              		csrc sip, a5
 1077              	# 0 "" 2
 1078              	.LVL68:
 1079              	#NO_APP
 1080              	.LBE241:
 1081              	.LBE240:
 176:src/riscv.cpp ****     if(TCB::time_slice_counter >= TCB::running->get_time_slice()){
 1082              		.loc 1 176 5 is_stmt 1
 176:src/riscv.cpp ****     if(TCB::time_slice_counter >= TCB::running->get_time_slice()){
 1083              		.loc 1 176 28 is_stmt 0
 1084 03ac 17070000 		la	a4,_ZN3TCB18time_slice_counterE
 1084      03370700 
 1085 03b4 83370700 		ld	a5,0(a4)
 1086 03b8 93871700 		addi	a5,a5,1
 1087 03bc 2330F700 		sd	a5,0(a4)
 177:src/riscv.cpp ****         uint64 volatile sepc = RiscV::r_sepc();
 1088              		.loc 1 177 5 is_stmt 1
 1089              	.LBB242:
 177:src/riscv.cpp ****         uint64 volatile sepc = RiscV::r_sepc();
 1090              		.loc 1 177 63 is_stmt 0
 1091 03c0 17070000 		la	a4,_ZN3TCB7runningE
 1091      03370700 
 1092 03c8 03370700 		ld	a4,0(a4)
 1093              	.LVL69:
 1094              	.LBB243:
 1095              	.LBB244:
  74:src/../h/../h/../h/tcb.hpp **** 
 1096              		.loc 3 74 37 is_stmt 1
  74:src/../h/../h/../h/tcb.hpp **** 
 1097              		.loc 3 74 44 is_stmt 0
 1098 03cc 03378702 		ld	a4,40(a4)
 1099              	.LVL70:
 1100              	.LBE244:
 1101              	.LBE243:
 177:src/riscv.cpp ****         uint64 volatile sepc = RiscV::r_sepc();
 1102              		.loc 1 177 5
 1103 03d0 63F6E704 		bgeu	a5,a4,.L50
 1104              	.L45:
 1105              	.LBE242:
 187:src/riscv.cpp **** 
 1106              		.loc 1 187 1
 1107 03d4 83308104 		ld	ra,72(sp)
 1108              		.cfi_remember_state
 1109              		.cfi_restore 1
 1110 03d8 03340104 		ld	s0,64(sp)
 1111              		.cfi_restore 8
 1112              		.cfi_def_cfa 2, 80
 1113 03dc 83348103 		ld	s1,56(sp)
 1114              		.cfi_restore 9
 1115 03e0 13010105 		addi	sp,sp,80
 1116              		.cfi_def_cfa_offset 0
 1117 03e4 67800000 		jr	ra
 1118              	.L49:
 1119              		.cfi_restore_state
 168:src/riscv.cpp ****         if(RiscV::list_of_sleeping_threads.peek_time_first() <= 0){
GAS LISTING /tmp/ccIVzTZe.s 			page 32


 1120              		.loc 1 168 9 is_stmt 1
 168:src/riscv.cpp ****         if(RiscV::list_of_sleeping_threads.peek_time_first() <= 0){
 1121              		.loc 1 168 55 is_stmt 0
 1122 03e8 97040000 		lla	s1,.LANCHOR0
 1122      93840400 
 1123 03f0 13850400 		mv	a0,s1
 1124 03f4 97000000 		call	_ZN19SleepingThreadsList14dec_time_firstEv@plt
 1124      E7800000 
 1125              	.LVL71:
 169:src/riscv.cpp ****             RiscV::list_of_sleeping_threads.remove_finished();
 1126              		.loc 1 169 9 is_stmt 1
 169:src/riscv.cpp ****             RiscV::list_of_sleeping_threads.remove_finished();
 1127              		.loc 1 169 59 is_stmt 0
 1128 03fc 13850400 		mv	a0,s1
 1129 0400 97000000 		call	_ZN19SleepingThreadsList15peek_time_firstEv@plt
 1129      E7800000 
 1130              	.LVL72:
 169:src/riscv.cpp ****             RiscV::list_of_sleeping_threads.remove_finished();
 1131              		.loc 1 169 9
 1132 0408 E31E05F8 		bnez	a0,.L46
 170:src/riscv.cpp ****         }
 1133              		.loc 1 170 13 is_stmt 1
 170:src/riscv.cpp ****         }
 1134              		.loc 1 170 60 is_stmt 0
 1135 040c 13850400 		mv	a0,s1
 1136 0410 97000000 		call	_ZN19SleepingThreadsList15remove_finishedEv@plt
 1136      E7800000 
 1137              	.LVL73:
 1138 0418 6FF0DFF8 		j	.L46
 1139              	.L50:
 1140              	.LBB254:
 1141              	.LBB245:
 178:src/riscv.cpp ****         uint64 volatile sstatus = RiscV::r_sstatus();
 1142              		.loc 1 178 9 is_stmt 1
 1143              	.LBB246:
 1144              	.LBB247:
  61:src/../h/riscv.hpp ****     __asm__ volatile ("csrr %[sepc], sepc" : [sepc] "=r"(sepc));
 1145              		.loc 4 61 5
  62:src/../h/riscv.hpp **** 
 1146              		.loc 4 62 5
  62:src/../h/riscv.hpp **** 
 1147              		.loc 4 62 64 is_stmt 0
 1148              	#APP
 1149              	# 62 "src/../h/riscv.hpp" 1
 1150              		csrr a5, sepc
 1151              	# 0 "" 2
 1152              	#NO_APP
 1153 0420 2338F4FC 		sd	a5,-48(s0)
  64:src/../h/riscv.hpp **** }
 1154              		.loc 4 64 5 is_stmt 1
  64:src/../h/riscv.hpp **** }
 1155              		.loc 4 64 12 is_stmt 0
 1156 0424 833704FD 		ld	a5,-48(s0)
 1157              	.LBE247:
 1158              	.LBE246:
 178:src/riscv.cpp ****         uint64 volatile sstatus = RiscV::r_sstatus();
 1159              		.loc 1 178 46
GAS LISTING /tmp/ccIVzTZe.s 			page 33


 1160 0428 233CF4FA 		sd	a5,-72(s0)
 179:src/riscv.cpp **** 
 1161              		.loc 1 179 9 is_stmt 1
 1162              	.LBB248:
 1163              	.LBB249:
  72:src/../h/riscv.hpp ****     __asm__ volatile ("csrr %[sstatus], sstatus" : [sstatus] "=r"(sstatus));
 1164              		.loc 4 72 5
  73:src/../h/riscv.hpp **** 
 1165              		.loc 4 73 5
  73:src/../h/riscv.hpp **** 
 1166              		.loc 4 73 76 is_stmt 0
 1167              	#APP
 1168              	# 73 "src/../h/riscv.hpp" 1
 1169              		csrr a5, sstatus
 1170              	# 0 "" 2
 1171              	#NO_APP
 1172 0430 2334F4FC 		sd	a5,-56(s0)
  75:src/../h/riscv.hpp **** }
 1173              		.loc 4 75 5 is_stmt 1
  75:src/../h/riscv.hpp **** }
 1174              		.loc 4 75 12 is_stmt 0
 1175 0434 833784FC 		ld	a5,-56(s0)
 1176              	.LBE249:
 1177              	.LBE248:
 179:src/riscv.cpp **** 
 1178              		.loc 1 179 52
 1179 0438 2330F4FC 		sd	a5,-64(s0)
 181:src/riscv.cpp ****         TCB::dispatch();
 1180              		.loc 1 181 9 is_stmt 1
 181:src/riscv.cpp ****         TCB::dispatch();
 1181              		.loc 1 181 33 is_stmt 0
 1182 043c 97070000 		la	a5,_ZN3TCB18time_slice_counterE
 1182      83B70700 
 1183 0444 23B00700 		sd	zero,0(a5)
 182:src/riscv.cpp **** 
 1184              		.loc 1 182 9 is_stmt 1
 182:src/riscv.cpp **** 
 1185              		.loc 1 182 22 is_stmt 0
 1186 0448 97000000 		call	_ZN3TCB8dispatchEv@plt
 1186      E7800000 
 1187              	.LVL74:
 184:src/riscv.cpp ****         w_sstatus(sstatus);
 1188              		.loc 1 184 9 is_stmt 1
 184:src/riscv.cpp ****         w_sstatus(sstatus);
 1189              		.loc 1 184 15 is_stmt 0
 1190 0450 833784FB 		ld	a5,-72(s0)
 1191              	.LVL75:
 1192              	.LBB250:
 1193              	.LBB251:
  68:src/../h/riscv.hpp **** }
 1194              		.loc 4 68 5 is_stmt 1
  68:src/../h/riscv.hpp **** }
 1195              		.loc 4 68 65 is_stmt 0
 1196              	#APP
 1197              	# 68 "src/../h/riscv.hpp" 1
 1198              		csrw sepc, a5
 1199              	# 0 "" 2
GAS LISTING /tmp/ccIVzTZe.s 			page 34


 1200              	.LVL76:
 1201              	#NO_APP
 1202              	.LBE251:
 1203              	.LBE250:
 185:src/riscv.cpp ****     }
 1204              		.loc 1 185 9 is_stmt 1
 185:src/riscv.cpp ****     }
 1205              		.loc 1 185 18 is_stmt 0
 1206 0458 833704FC 		ld	a5,-64(s0)
 1207              	.LVL77:
 1208              	.LBB252:
 1209              	.LBB253:
  79:src/../h/riscv.hpp **** }
 1210              		.loc 4 79 5 is_stmt 1
  79:src/../h/riscv.hpp **** }
 1211              		.loc 4 79 77 is_stmt 0
 1212              	#APP
 1213              	# 79 "src/../h/riscv.hpp" 1
 1214              		csrw sstatus, a5
 1215              	# 0 "" 2
 1216              	.LVL78:
 1217              	#NO_APP
 1218              	.LBE253:
 1219              	.LBE252:
 1220              	.LBE245:
 1221              	.LBE254:
 187:src/riscv.cpp **** 
 1222              		.loc 1 187 1
 1223 0460 6FF05FF7 		j	.L45
 1224              		.cfi_endproc
 1225              	.LFE40:
 1227              		.align	2
 1228              		.globl	_ZN5RiscV23handleExternalInterruptEv
 1230              	_ZN5RiscV23handleExternalInterruptEv:
 1231              	.LFB41:
 189:src/riscv.cpp ****     console_handler();
 1232              		.loc 1 189 39 is_stmt 1
 1233              		.cfi_startproc
 1234 0464 130101FF 		addi	sp,sp,-16
 1235              		.cfi_def_cfa_offset 16
 1236 0468 23341100 		sd	ra,8(sp)
 1237 046c 23308100 		sd	s0,0(sp)
 1238              		.cfi_offset 1, -8
 1239              		.cfi_offset 8, -16
 1240 0470 13040101 		addi	s0,sp,16
 1241              		.cfi_def_cfa 8, 0
 190:src/riscv.cpp **** }
 1242              		.loc 1 190 5
 190:src/riscv.cpp **** }
 1243              		.loc 1 190 20 is_stmt 0
 1244 0474 97000000 		call	console_handler@plt
 1244      E7800000 
 1245              	.LVL79:
 1246              		.loc 1 191 1
 1247 047c 83308100 		ld	ra,8(sp)
 1248              		.cfi_restore 1
 1249 0480 03340100 		ld	s0,0(sp)
GAS LISTING /tmp/ccIVzTZe.s 			page 35


 1250              		.cfi_restore 8
 1251              		.cfi_def_cfa 2, 16
 1252 0484 13010101 		addi	sp,sp,16
 1253              		.cfi_def_cfa_offset 0
 1254 0488 67800000 		jr	ra
 1255              		.cfi_endproc
 1256              	.LFE41:
 1258              		.align	2
 1260              	_GLOBAL__sub_I__ZN5RiscV9user_modeE:
 1261              	.LFB43:
 1262              		.loc 1 191 1 is_stmt 1
 1263              		.cfi_startproc
 1264 048c 130101FF 		addi	sp,sp,-16
 1265              		.cfi_def_cfa_offset 16
 1266 0490 23341100 		sd	ra,8(sp)
 1267 0494 23308100 		sd	s0,0(sp)
 1268              		.cfi_offset 1, -8
 1269              		.cfi_offset 8, -16
 1270 0498 13040101 		addi	s0,sp,16
 1271              		.cfi_def_cfa 8, 0
 1272              		.loc 1 191 1 is_stmt 0
 1273 049c B7050100 		li	a1,65536
 1274 04a0 9385F5FF 		addi	a1,a1,-1
 1275 04a4 13051000 		li	a0,1
 1276 04a8 97000000 		call	_Z41__static_initialization_and_destruction_0ii
 1276      E7800000 
 1277              	.LVL80:
 1278 04b0 83308100 		ld	ra,8(sp)
 1279              		.cfi_restore 1
 1280 04b4 03340100 		ld	s0,0(sp)
 1281              		.cfi_restore 8
 1282              		.cfi_def_cfa 2, 16
 1283 04b8 13010101 		addi	sp,sp,16
 1284              		.cfi_def_cfa_offset 0
 1285 04bc 67800000 		jr	ra
 1286              		.cfi_endproc
 1287              	.LFE43:
 1289              		.section	.init_array,"aw"
 1290              		.align	3
 1291 0000 00000000 		.dword	_GLOBAL__sub_I__ZN5RiscV9user_modeE
 1291      00000000 
 1292              		.globl	_ZN5RiscV24list_of_sleeping_threadsE
 1293              		.globl	_ZN5RiscV9user_modeE
 1294              		.bss
 1295              		.align	3
 1296              		.set	.LANCHOR0,. + 0
 1299              	_ZN5RiscV24list_of_sleeping_threadsE:
 1300 0000 00000000 		.zero	16
 1300      00000000 
 1300      00000000 
 1300      00000000 
 1303              	_ZN5RiscV9user_modeE:
 1304 0010 00       		.zero	1
 1305              		.text
 1306              	.Letext0:
 1307              		.file 5 "src/../h/../lib/hw.h"
 1308              		.file 6 "src/../h/../h/syscall_c.h"
GAS LISTING /tmp/ccIVzTZe.s 			page 36


 1309              		.file 7 "src/../h/../h/sem.hpp"
 1310              		.file 8 "src/../lib/console.h"
 1311              		.file 9 "src/../h/../lib/mem.h"
GAS LISTING /tmp/ccIVzTZe.s 			page 37

