GAS LISTING /tmp/ccZVyotD.s 			page 1


   1              		.file	"SleepingThreadsList.cpp"
   2              		.option pic
   3              		.option norelax
   4              		.text
   5              	.Ltext0:
   6              		.align	2
   7              		.globl	_ZN19SleepingThreadsListC2Ev
   9              	_ZN19SleepingThreadsListC2Ev:
  10              	.LFB37:
  11              		.file 1 "src/SleepingThreadsList.cpp"
   1:src/SleepingThreadsList.cpp **** #include "../h/SleepingThreadsList.hpp"
   2:src/SleepingThreadsList.cpp **** 
   3:src/SleepingThreadsList.cpp **** SleepingThreadsList::SleepingThreadsList() : head(nullptr), tail(nullptr) {}
  12              		.loc 1 3 1
  13              		.cfi_startproc
  14              	.LVL0:
  15 0000 130101FF 		addi	sp,sp,-16
  16              		.cfi_def_cfa_offset 16
  17 0004 23348100 		sd	s0,8(sp)
  18              		.cfi_offset 8, -8
  19 0008 13040101 		addi	s0,sp,16
  20              		.cfi_def_cfa 8, 0
  21              	.LBB5:
  22              		.loc 1 3 73 is_stmt 0
  23 000c 23300500 		sd	zero,0(a0)
  24 0010 23340500 		sd	zero,8(a0)
  25              	.LBE5:
  26              		.loc 1 3 76
  27 0014 03348100 		ld	s0,8(sp)
  28              		.cfi_restore 8
  29              		.cfi_def_cfa 2, 16
  30 0018 13010101 		addi	sp,sp,16
  31              		.cfi_def_cfa_offset 0
  32 001c 67800000 		jr	ra
  33              		.cfi_endproc
  34              	.LFE37:
  36              		.globl	_ZN19SleepingThreadsListC1Ev
  37              		.set	_ZN19SleepingThreadsListC1Ev,_ZN19SleepingThreadsListC2Ev
  38              		.align	2
  39              		.globl	_ZN19SleepingThreadsList14dec_time_firstEv
  41              	_ZN19SleepingThreadsList14dec_time_firstEv:
  42              	.LFB39:
   4:src/SleepingThreadsList.cpp **** 
   5:src/SleepingThreadsList.cpp **** void SleepingThreadsList::dec_time_first() {
  43              		.loc 1 5 44 is_stmt 1
  44              		.cfi_startproc
  45              	.LVL1:
  46 0020 130101FF 		addi	sp,sp,-16
  47              		.cfi_def_cfa_offset 16
  48 0024 23348100 		sd	s0,8(sp)
  49              		.cfi_offset 8, -8
  50 0028 13040101 		addi	s0,sp,16
  51              		.cfi_def_cfa 8, 0
   6:src/SleepingThreadsList.cpp ****     if(!head) return;
  52              		.loc 1 6 5
  53              		.loc 1 6 9 is_stmt 0
  54 002c 83370500 		ld	a5,0(a0)
GAS LISTING /tmp/ccZVyotD.s 			page 2


  55              		.loc 1 6 5
  56 0030 63880700 		beqz	a5,.L3
   7:src/SleepingThreadsList.cpp ****     head->slice--;
  57              		.loc 1 7 5 is_stmt 1
  58              		.loc 1 7 11 is_stmt 0
  59 0034 03B78700 		ld	a4,8(a5)
  60              		.loc 1 7 16
  61 0038 1307F7FF 		addi	a4,a4,-1
  62 003c 23B4E700 		sd	a4,8(a5)
  63              	.L3:
   8:src/SleepingThreadsList.cpp **** }
  64              		.loc 1 8 1
  65 0040 03348100 		ld	s0,8(sp)
  66              		.cfi_restore 8
  67              		.cfi_def_cfa 2, 16
  68 0044 13010101 		addi	sp,sp,16
  69              		.cfi_def_cfa_offset 0
  70 0048 67800000 		jr	ra
  71              		.cfi_endproc
  72              	.LFE39:
  74              		.align	2
  75              		.globl	_ZN19SleepingThreadsList15peek_time_firstEv
  77              	_ZN19SleepingThreadsList15peek_time_firstEv:
  78              	.LFB40:
   9:src/SleepingThreadsList.cpp **** 
  10:src/SleepingThreadsList.cpp **** time_t SleepingThreadsList::peek_time_first() {
  79              		.loc 1 10 47 is_stmt 1
  80              		.cfi_startproc
  81              	.LVL2:
  82 004c 130101FF 		addi	sp,sp,-16
  83              		.cfi_def_cfa_offset 16
  84 0050 23348100 		sd	s0,8(sp)
  85              		.cfi_offset 8, -8
  86 0054 13040101 		addi	s0,sp,16
  87              		.cfi_def_cfa 8, 0
  11:src/SleepingThreadsList.cpp ****     if(head) {
  88              		.loc 1 11 5
  89              		.loc 1 11 8 is_stmt 0
  90 0058 83370500 		ld	a5,0(a0)
  91              		.loc 1 11 5
  92 005c 638A0700 		beqz	a5,.L8
  12:src/SleepingThreadsList.cpp ****         return head->slice;
  93              		.loc 1 12 9 is_stmt 1
  94              		.loc 1 12 22 is_stmt 0
  95 0060 03B58700 		ld	a0,8(a5)
  96              	.LVL3:
  97              	.L6:
  13:src/SleepingThreadsList.cpp ****     }
  14:src/SleepingThreadsList.cpp **** 
  15:src/SleepingThreadsList.cpp ****     return -1;
  16:src/SleepingThreadsList.cpp **** }
  98              		.loc 1 16 1
  99 0064 03348100 		ld	s0,8(sp)
 100              		.cfi_remember_state
 101              		.cfi_restore 8
 102              		.cfi_def_cfa 2, 16
 103 0068 13010101 		addi	sp,sp,16
GAS LISTING /tmp/ccZVyotD.s 			page 3


 104              		.cfi_def_cfa_offset 0
 105 006c 67800000 		jr	ra
 106              	.LVL4:
 107              	.L8:
 108              		.cfi_restore_state
  15:src/SleepingThreadsList.cpp **** }
 109              		.loc 1 15 13
 110 0070 1305F0FF 		li	a0,-1
 111              	.LVL5:
 112 0074 6FF01FFF 		j	.L6
 113              		.cfi_endproc
 114              	.LFE40:
 116              		.align	2
 117              		.globl	_ZN19SleepingThreadsList15remove_finishedEv
 119              	_ZN19SleepingThreadsList15remove_finishedEv:
 120              	.LFB41:
  17:src/SleepingThreadsList.cpp **** 
  18:src/SleepingThreadsList.cpp **** void SleepingThreadsList::remove_finished() {
 121              		.loc 1 18 45 is_stmt 1
 122              		.cfi_startproc
 123              	.LVL6:
 124 0078 130101FE 		addi	sp,sp,-32
 125              		.cfi_def_cfa_offset 32
 126 007c 233C1100 		sd	ra,24(sp)
 127 0080 23388100 		sd	s0,16(sp)
 128 0084 23349100 		sd	s1,8(sp)
 129 0088 23302101 		sd	s2,0(sp)
 130              		.cfi_offset 1, -8
 131              		.cfi_offset 8, -16
 132              		.cfi_offset 9, -24
 133              		.cfi_offset 18, -32
 134 008c 13040102 		addi	s0,sp,32
 135              		.cfi_def_cfa 8, 0
 136 0090 13090500 		mv	s2,a0
 137 0094 6F000003 		j	.L13
 138              	.LVL7:
 139              	.L15:
 140              	.LBB6:
  19:src/SleepingThreadsList.cpp ****     while(head != nullptr && head->slice <= 0){
  20:src/SleepingThreadsList.cpp ****         Elem* elem = head;
  21:src/SleepingThreadsList.cpp ****         head = head->next;
  22:src/SleepingThreadsList.cpp ****         if(!head) {tail = nullptr;}
 141              		.loc 1 22 20 discriminator 1
 142              		.loc 1 22 25 is_stmt 0 discriminator 1
 143 0098 23340900 		sd	zero,8(s2)
 144              	.L12:
  23:src/SleepingThreadsList.cpp ****         elem->thread->set_sleeping(false);
 145              		.loc 1 23 9 is_stmt 1
 146              		.loc 1 23 15 is_stmt 0
 147 009c 83B70400 		ld	a5,0(s1)
 148              	.LVL8:
 149              	.LBB7:
 150              	.LBB8:
 151              		.file 2 "src/../h/../h/tcb.hpp"
   1:src/../h/../h/tcb.hpp **** #ifndef PROJECT_BASE_V1_1_TCB_HPP
   2:src/../h/../h/tcb.hpp **** #define PROJECT_BASE_V1_1_TCB_HPP
   3:src/../h/../h/tcb.hpp **** 
GAS LISTING /tmp/ccZVyotD.s 			page 4


   4:src/../h/../h/tcb.hpp **** #include "../lib/hw.h"
   5:src/../h/../h/tcb.hpp **** #include "../h/scheduler.hpp"
   6:src/../h/../h/tcb.hpp **** #include "../h/riscv.hpp"
   7:src/../h/../h/tcb.hpp **** 
   8:src/../h/../h/tcb.hpp **** class TCB{
   9:src/../h/../h/tcb.hpp **** private:
  10:src/../h/../h/tcb.hpp ****     struct Context{
  11:src/../h/../h/tcb.hpp ****         uint64 sp, ra;
  12:src/../h/../h/tcb.hpp ****     };
  13:src/../h/../h/tcb.hpp **** 
  14:src/../h/../h/tcb.hpp ****     using Body = void(*)(void*);
  15:src/../h/../h/tcb.hpp ****     Body body;
  16:src/../h/../h/tcb.hpp ****     void* args;
  17:src/../h/../h/tcb.hpp **** 
  18:src/../h/../h/tcb.hpp ****     uint64* stack;
  19:src/../h/../h/tcb.hpp ****     Context context;
  20:src/../h/../h/tcb.hpp **** 
  21:src/../h/../h/tcb.hpp ****     time_t time_slice;
  22:src/../h/../h/tcb.hpp ****     int id;
  23:src/../h/../h/tcb.hpp ****     bool finished, blocked, sleeping, main, user_mode;
  24:src/../h/../h/tcb.hpp **** 
  25:src/../h/../h/tcb.hpp ****     TCB(Body body, void* args, uint64 time_slice, uint64* stack) :
  26:src/../h/../h/tcb.hpp ****         body(body),
  27:src/../h/../h/tcb.hpp ****         args(args),
  28:src/../h/../h/tcb.hpp ****         stack(body != nullptr ? stack : nullptr),
  29:src/../h/../h/tcb.hpp ****         context({(uint64) &thread_wrapper, stack != nullptr ? reinterpret_cast<uint64>(&stack[DEFAU
  30:src/../h/../h/tcb.hpp ****         time_slice(time_slice),
  31:src/../h/../h/tcb.hpp ****         id(ID),
  32:src/../h/../h/tcb.hpp ****         finished(false),
  33:src/../h/../h/tcb.hpp ****         blocked(false),
  34:src/../h/../h/tcb.hpp ****         sleeping(false),
  35:src/../h/../h/tcb.hpp ****         main(body == nullptr){
  36:src/../h/../h/tcb.hpp **** 
  37:src/../h/../h/tcb.hpp ****         if(body != nullptr){
  38:src/../h/../h/tcb.hpp ****             Scheduler::put(this);
  39:src/../h/../h/tcb.hpp ****         }
  40:src/../h/../h/tcb.hpp **** 
  41:src/../h/../h/tcb.hpp ****     }
  42:src/../h/../h/tcb.hpp **** 
  43:src/../h/../h/tcb.hpp ****     static time_t time_slice_counter;
  44:src/../h/../h/tcb.hpp **** 
  45:src/../h/../h/tcb.hpp ****     static void contextSwitch(Context* old_context, Context* new_context);
  46:src/../h/../h/tcb.hpp ****     static void thread_wrapper();
  47:src/../h/../h/tcb.hpp ****     static void dispatch();
  48:src/../h/../h/tcb.hpp **** public:
  49:src/../h/../h/tcb.hpp ****     friend class RiscV;
  50:src/../h/../h/tcb.hpp ****     friend class sem;
  51:src/../h/../h/tcb.hpp **** 
  52:src/../h/../h/tcb.hpp ****     static int ID;
  53:src/../h/../h/tcb.hpp ****     static TCB* running;
  54:src/../h/../h/tcb.hpp ****     static TCB* create_thread(TCB** handle, Body body, void* args, uint64* stack);
  55:src/../h/../h/tcb.hpp ****     static void yield();
  56:src/../h/../h/tcb.hpp ****     static void join(TCB*);
  57:src/../h/../h/tcb.hpp ****     static void outputThreadBody(void*);
  58:src/../h/../h/tcb.hpp **** 
  59:src/../h/../h/tcb.hpp **** //    void start(){
  60:src/../h/../h/tcb.hpp **** //        Scheduler::put(this);
GAS LISTING /tmp/ccZVyotD.s 			page 5


  61:src/../h/../h/tcb.hpp **** //    }
  62:src/../h/../h/tcb.hpp **** 
  63:src/../h/../h/tcb.hpp ****     bool is_finished() const { return finished; }
  64:src/../h/../h/tcb.hpp ****     void set_finished(bool f) { this->finished = f; }
  65:src/../h/../h/tcb.hpp **** 
  66:src/../h/../h/tcb.hpp ****     bool is_sleeping() const { return sleeping; }
  67:src/../h/../h/tcb.hpp ****     void set_sleeping(bool s) { this->sleeping = s; }
 152              		.loc 2 67 33 is_stmt 1
 153              		.loc 2 67 48 is_stmt 0
 154 00a0 238B0702 		sb	zero,54(a5)
 155              	.LVL9:
 156              	.LBE8:
 157              	.LBE7:
  24:src/SleepingThreadsList.cpp ****         Scheduler::put(elem->thread);
 158              		.loc 1 24 9 is_stmt 1
 159              		.loc 1 24 23 is_stmt 0
 160 00a4 03B50400 		ld	a0,0(s1)
 161 00a8 97000000 		call	_ZN9Scheduler3putEP3TCB@plt
 161      E7800000 
 162              	.LVL10:
  25:src/SleepingThreadsList.cpp ****         MemoryAllocator::getInstance().free(elem);
 163              		.loc 1 25 9 is_stmt 1
 164              		.loc 1 25 38 is_stmt 0
 165 00b0 97000000 		call	_ZN15MemoryAllocator11getInstanceEv@plt
 165      E7800000 
 166              	.LVL11:
 167              		.loc 1 25 44
 168 00b8 93850400 		mv	a1,s1
 169 00bc 97000000 		call	_ZN15MemoryAllocator4freeEPv@plt
 169      E7800000 
 170              	.LVL12:
 171              	.L13:
 172              	.LBE6:
  19:src/SleepingThreadsList.cpp ****         Elem* elem = head;
 173              		.loc 1 19 5 is_stmt 1
  19:src/SleepingThreadsList.cpp ****         Elem* elem = head;
 174              		.loc 1 19 27
  19:src/SleepingThreadsList.cpp ****         Elem* elem = head;
 175              		.loc 1 19 11 is_stmt 0
 176 00c4 83340900 		ld	s1,0(s2)
  19:src/SleepingThreadsList.cpp ****         Elem* elem = head;
 177              		.loc 1 19 27
 178 00c8 638E0400 		beqz	s1,.L10
  19:src/SleepingThreadsList.cpp ****         Elem* elem = head;
 179              		.loc 1 19 36 discriminator 1
 180 00cc 83B78400 		ld	a5,8(s1)
  19:src/SleepingThreadsList.cpp ****         Elem* elem = head;
 181              		.loc 1 19 27 discriminator 1
 182 00d0 639A0700 		bnez	a5,.L10
 183              	.LBB9:
  20:src/SleepingThreadsList.cpp ****         head = head->next;
 184              		.loc 1 20 9 is_stmt 1
 185              	.LVL13:
  21:src/SleepingThreadsList.cpp ****         if(!head) {tail = nullptr;}
 186              		.loc 1 21 9
  21:src/SleepingThreadsList.cpp ****         if(!head) {tail = nullptr;}
 187              		.loc 1 21 22 is_stmt 0
GAS LISTING /tmp/ccZVyotD.s 			page 6


 188 00d4 83B70401 		ld	a5,16(s1)
  21:src/SleepingThreadsList.cpp ****         if(!head) {tail = nullptr;}
 189              		.loc 1 21 14
 190 00d8 2330F900 		sd	a5,0(s2)
  22:src/SleepingThreadsList.cpp ****         elem->thread->set_sleeping(false);
 191              		.loc 1 22 9 is_stmt 1
 192 00dc E39007FC 		bnez	a5,.L12
 193 00e0 6FF09FFB 		j	.L15
 194              	.LVL14:
 195              	.L10:
 196              	.LBE9:
  26:src/SleepingThreadsList.cpp ****     }
  27:src/SleepingThreadsList.cpp **** }
 197              		.loc 1 27 1 is_stmt 0
 198 00e4 83308101 		ld	ra,24(sp)
 199              		.cfi_restore 1
 200 00e8 03340101 		ld	s0,16(sp)
 201              		.cfi_restore 8
 202              		.cfi_def_cfa 2, 32
 203 00ec 83348100 		ld	s1,8(sp)
 204              		.cfi_restore 9
 205 00f0 03390100 		ld	s2,0(sp)
 206              		.cfi_restore 18
 207              	.LVL15:
 208 00f4 13010102 		addi	sp,sp,32
 209              		.cfi_def_cfa_offset 0
 210 00f8 67800000 		jr	ra
 211              		.cfi_endproc
 212              	.LFE41:
 214              		.align	2
 215              		.globl	_ZN19SleepingThreadsList3putEP3TCBm
 217              	_ZN19SleepingThreadsList3putEP3TCBm:
 218              	.LFB42:
  28:src/SleepingThreadsList.cpp **** 
  29:src/SleepingThreadsList.cpp **** void SleepingThreadsList::put(TCB *thread, time_t slice) {
 219              		.loc 1 29 58 is_stmt 1
 220              		.cfi_startproc
 221              	.LVL16:
 222 00fc 130101FC 		addi	sp,sp,-64
 223              		.cfi_def_cfa_offset 64
 224 0100 233C1102 		sd	ra,56(sp)
 225 0104 23388102 		sd	s0,48(sp)
 226 0108 23349102 		sd	s1,40(sp)
 227 010c 23302103 		sd	s2,32(sp)
 228 0110 233C3101 		sd	s3,24(sp)
 229 0114 23384101 		sd	s4,16(sp)
 230 0118 23345101 		sd	s5,8(sp)
 231              		.cfi_offset 1, -8
 232              		.cfi_offset 8, -16
 233              		.cfi_offset 9, -24
 234              		.cfi_offset 18, -32
 235              		.cfi_offset 19, -40
 236              		.cfi_offset 20, -48
 237              		.cfi_offset 21, -56
 238 011c 13040104 		addi	s0,sp,64
 239              		.cfi_def_cfa 8, 0
 240 0120 130A0500 		mv	s4,a0
GAS LISTING /tmp/ccZVyotD.s 			page 7


 241 0124 938A0500 		mv	s5,a1
 242 0128 13090600 		mv	s2,a2
  30:src/SleepingThreadsList.cpp ****     if(head == nullptr){
 243              		.loc 1 30 5
 244              	.LBB10:
 245              		.loc 1 30 8 is_stmt 0
 246 012c 83340500 		ld	s1,0(a0)
 247              		.loc 1 30 5
 248 0130 63840402 		beqz	s1,.L28
 249              	.LBB11:
  31:src/SleepingThreadsList.cpp ****         head = (Elem*) MemoryAllocator::getInstance().mallocBytes(sizeof(Elem));
  32:src/SleepingThreadsList.cpp ****         head->thread = thread;
  33:src/SleepingThreadsList.cpp ****         head->next = nullptr;
  34:src/SleepingThreadsList.cpp ****         head->slice = slice;
  35:src/SleepingThreadsList.cpp ****         tail = head;
  36:src/SleepingThreadsList.cpp **** 
  37:src/SleepingThreadsList.cpp ****     } else {
  38:src/SleepingThreadsList.cpp ****         Elem* temp = head;
  39:src/SleepingThreadsList.cpp ****         Elem* prev = nullptr;
 250              		.loc 1 39 15
 251 0134 93090000 		li	s3,0
 252              	.LVL17:
 253              	.L17:
  40:src/SleepingThreadsList.cpp **** 
  41:src/SleepingThreadsList.cpp ****         while(temp != tail && slice >= temp->slice){
 254              		.loc 1 41 9 is_stmt 1
 255              		.loc 1 41 28
 256              		.loc 1 41 23 is_stmt 0
 257 0138 03378A00 		ld	a4,8(s4)
 258              		.loc 1 41 28
 259 013c 630A9704 		beq	a4,s1,.L19
 260              		.loc 1 41 46 discriminator 1
 261 0140 83B78400 		ld	a5,8(s1)
 262              		.loc 1 41 28 discriminator 1
 263 0144 6366F904 		bgtu	a5,s2,.L19
  42:src/SleepingThreadsList.cpp ****             slice -= temp->slice;
 264              		.loc 1 42 13 is_stmt 1
 265              		.loc 1 42 19 is_stmt 0
 266 0148 3309F940 		sub	s2,s2,a5
 267              	.LVL18:
  43:src/SleepingThreadsList.cpp ****             prev = temp;
 268              		.loc 1 43 13 is_stmt 1
  44:src/SleepingThreadsList.cpp ****             temp = temp->next;
 269              		.loc 1 44 13
  43:src/SleepingThreadsList.cpp ****             prev = temp;
 270              		.loc 1 43 18 is_stmt 0
 271 014c 93890400 		mv	s3,s1
 272              		.loc 1 44 18
 273 0150 83B40401 		ld	s1,16(s1)
 274              	.LVL19:
  41:src/SleepingThreadsList.cpp ****             slice -= temp->slice;
 275              		.loc 1 41 9
 276 0154 6FF05FFE 		j	.L17
 277              	.LVL20:
 278              	.L28:
 279              	.LBE11:
  31:src/SleepingThreadsList.cpp ****         head->thread = thread;
GAS LISTING /tmp/ccZVyotD.s 			page 8


 280              		.loc 1 31 9 is_stmt 1
  31:src/SleepingThreadsList.cpp ****         head->thread = thread;
 281              		.loc 1 31 53 is_stmt 0
 282 0158 97000000 		call	_ZN15MemoryAllocator11getInstanceEv@plt
 282      E7800000 
 283              	.LVL21:
  31:src/SleepingThreadsList.cpp ****         head->thread = thread;
 284              		.loc 1 31 66
 285 0160 93058001 		li	a1,24
 286 0164 97000000 		call	_ZN15MemoryAllocator11mallocBytesEm@plt
 286      E7800000 
 287              	.LVL22:
  31:src/SleepingThreadsList.cpp ****         head->thread = thread;
 288              		.loc 1 31 14
 289 016c 2330AA00 		sd	a0,0(s4)
  32:src/SleepingThreadsList.cpp ****         head->next = nullptr;
 290              		.loc 1 32 9 is_stmt 1
  32:src/SleepingThreadsList.cpp ****         head->next = nullptr;
 291              		.loc 1 32 22 is_stmt 0
 292 0170 23305501 		sd	s5,0(a0)
  33:src/SleepingThreadsList.cpp ****         head->slice = slice;
 293              		.loc 1 33 9 is_stmt 1
 294 0174 83370A00 		ld	a5,0(s4)
  33:src/SleepingThreadsList.cpp ****         head->slice = slice;
 295              		.loc 1 33 20 is_stmt 0
 296 0178 23B80700 		sd	zero,16(a5)
  34:src/SleepingThreadsList.cpp ****         tail = head;
 297              		.loc 1 34 9 is_stmt 1
 298 017c 83370A00 		ld	a5,0(s4)
  34:src/SleepingThreadsList.cpp ****         tail = head;
 299              		.loc 1 34 21 is_stmt 0
 300 0180 23B42701 		sd	s2,8(a5)
  35:src/SleepingThreadsList.cpp **** 
 301              		.loc 1 35 9 is_stmt 1
  35:src/SleepingThreadsList.cpp **** 
 302              		.loc 1 35 16 is_stmt 0
 303 0184 83370A00 		ld	a5,0(s4)
  35:src/SleepingThreadsList.cpp **** 
 304              		.loc 1 35 14
 305 0188 2334FA00 		sd	a5,8(s4)
 306 018c 6F00C003 		j	.L16
 307              	.LVL23:
 308              	.L19:
 309              	.LBB19:
  45:src/SleepingThreadsList.cpp **** 
  46:src/SleepingThreadsList.cpp ****         }
  47:src/SleepingThreadsList.cpp **** 
  48:src/SleepingThreadsList.cpp ****         if(temp == tail) {
 310              		.loc 1 48 9 is_stmt 1
 311              	.LBB12:
 312 0190 630E9704 		beq	a4,s1,.L29
 313              	.LBB13:
  49:src/SleepingThreadsList.cpp ****             if(slice >= tail->slice){
  50:src/SleepingThreadsList.cpp ****                 Elem* novi = (Elem*) MemoryAllocator::getInstance().mallocBytes(sizeof(Elem));
  51:src/SleepingThreadsList.cpp ****                 novi->thread = thread;
  52:src/SleepingThreadsList.cpp ****                 novi->next = nullptr;
  53:src/SleepingThreadsList.cpp ****                 novi->slice = slice - tail->slice;
GAS LISTING /tmp/ccZVyotD.s 			page 9


  54:src/SleepingThreadsList.cpp ****                 tail->next = novi;
  55:src/SleepingThreadsList.cpp ****                 tail = novi;
  56:src/SleepingThreadsList.cpp ****             }
  57:src/SleepingThreadsList.cpp ****             else {
  58:src/SleepingThreadsList.cpp ****                 Elem* novi = (Elem*) MemoryAllocator::getInstance().mallocBytes(sizeof(Elem));
  59:src/SleepingThreadsList.cpp ****                 novi->thread = thread;
  60:src/SleepingThreadsList.cpp ****                 novi->next = tail;
  61:src/SleepingThreadsList.cpp ****                 novi->slice= slice;
  62:src/SleepingThreadsList.cpp **** 
  63:src/SleepingThreadsList.cpp ****                 if(prev != nullptr){
  64:src/SleepingThreadsList.cpp ****                     prev->next = novi;
  65:src/SleepingThreadsList.cpp ****                 } else {
  66:src/SleepingThreadsList.cpp ****                     head = novi;
  67:src/SleepingThreadsList.cpp ****                 }
  68:src/SleepingThreadsList.cpp **** 
  69:src/SleepingThreadsList.cpp ****                 tail->slice -= slice;
  70:src/SleepingThreadsList.cpp ****             }
  71:src/SleepingThreadsList.cpp **** 
  72:src/SleepingThreadsList.cpp ****         }
  73:src/SleepingThreadsList.cpp ****         else {
  74:src/SleepingThreadsList.cpp ****             Elem* novi = (Elem*) MemoryAllocator::getInstance().mallocBytes(sizeof(Elem));
 314              		.loc 1 74 13
 315              		.loc 1 74 63 is_stmt 0
 316 0194 97000000 		call	_ZN15MemoryAllocator11getInstanceEv@plt
 316      E7800000 
 317              	.LVL24:
 318              		.loc 1 74 76
 319 019c 93058001 		li	a1,24
 320 01a0 97000000 		call	_ZN15MemoryAllocator11mallocBytesEm@plt
 320      E7800000 
 321              	.LVL25:
  75:src/SleepingThreadsList.cpp ****             novi->thread = thread;
 322              		.loc 1 75 13 is_stmt 1
 323              		.loc 1 75 26 is_stmt 0
 324 01a8 23305501 		sd	s5,0(a0)
  76:src/SleepingThreadsList.cpp ****             novi->next  = temp;
 325              		.loc 1 76 13 is_stmt 1
 326              		.loc 1 76 25 is_stmt 0
 327 01ac 23389500 		sd	s1,16(a0)
  77:src/SleepingThreadsList.cpp ****             novi->slice = slice;
 328              		.loc 1 77 13 is_stmt 1
 329              		.loc 1 77 25 is_stmt 0
 330 01b0 23342501 		sd	s2,8(a0)
  78:src/SleepingThreadsList.cpp **** 
  79:src/SleepingThreadsList.cpp ****             if(prev) {
 331              		.loc 1 79 13 is_stmt 1
 332 01b4 6382090C 		beqz	s3,.L24
  80:src/SleepingThreadsList.cpp ****                 prev->next = novi;
 333              		.loc 1 80 17
 334              		.loc 1 80 28 is_stmt 0
 335 01b8 23B8A900 		sd	a0,16(s3)
 336              	.L25:
  81:src/SleepingThreadsList.cpp ****             } else {
  82:src/SleepingThreadsList.cpp ****                 head = novi;
  83:src/SleepingThreadsList.cpp ****             }
  84:src/SleepingThreadsList.cpp **** 
  85:src/SleepingThreadsList.cpp ****             temp->slice -= slice;
GAS LISTING /tmp/ccZVyotD.s 			page 10


 337              		.loc 1 85 13 is_stmt 1
 338              		.loc 1 85 25 is_stmt 0
 339 01bc 83B78400 		ld	a5,8(s1)
 340 01c0 33892741 		sub	s2,a5,s2
 341              	.LVL26:
 342 01c4 23B42401 		sd	s2,8(s1)
 343              	.LVL27:
 344              	.L16:
 345              	.LBE13:
 346              	.LBE12:
 347              	.LBE19:
 348              	.LBE10:
  86:src/SleepingThreadsList.cpp ****         }
  87:src/SleepingThreadsList.cpp ****     }
  88:src/SleepingThreadsList.cpp **** }...
 349              		.loc 1 88 1
 350 01c8 83308103 		ld	ra,56(sp)
 351              		.cfi_remember_state
 352              		.cfi_restore 1
 353 01cc 03340103 		ld	s0,48(sp)
 354              		.cfi_restore 8
 355              		.cfi_def_cfa 2, 64
 356 01d0 83348102 		ld	s1,40(sp)
 357              		.cfi_restore 9
 358 01d4 03390102 		ld	s2,32(sp)
 359              		.cfi_restore 18
 360 01d8 83398101 		ld	s3,24(sp)
 361              		.cfi_restore 19
 362 01dc 033A0101 		ld	s4,16(sp)
 363              		.cfi_restore 20
 364              	.LVL28:
 365 01e0 833A8100 		ld	s5,8(sp)
 366              		.cfi_restore 21
 367              	.LVL29:
 368 01e4 13010104 		addi	sp,sp,64
 369              		.cfi_def_cfa_offset 0
 370 01e8 67800000 		jr	ra
 371              	.LVL30:
 372              	.L29:
 373              		.cfi_restore_state
  49:src/SleepingThreadsList.cpp ****             if(slice >= tail->slice){
 374              		.loc 1 49 13 is_stmt 1
 375              	.LBB21:
 376              	.LBB20:
 377              	.LBB18:
 378              	.LBB14:
  49:src/SleepingThreadsList.cpp ****             if(slice >= tail->slice){
 379              		.loc 1 49 31 is_stmt 0
 380 01ec 83378700 		ld	a5,8(a4)
  49:src/SleepingThreadsList.cpp ****             if(slice >= tail->slice){
 381              		.loc 1 49 13
 382 01f0 6360F904 		bgtu	a5,s2,.L21
 383              	.LBB15:
  50:src/SleepingThreadsList.cpp ****                 Elem* novi = (Elem*) MemoryAllocator::getInstance().mallocBytes(sizeof(Elem));
 384              		.loc 1 50 17 is_stmt 1
  50:src/SleepingThreadsList.cpp ****                 Elem* novi = (Elem*) MemoryAllocator::getInstance().mallocBytes(sizeof(Elem));
 385              		.loc 1 50 67 is_stmt 0
GAS LISTING /tmp/ccZVyotD.s 			page 11


 386 01f4 97000000 		call	_ZN15MemoryAllocator11getInstanceEv@plt
 386      E7800000 
 387              	.LVL31:
  50:src/SleepingThreadsList.cpp ****                 Elem* novi = (Elem*) MemoryAllocator::getInstance().mallocBytes(sizeof(Elem));
 388              		.loc 1 50 80
 389 01fc 93058001 		li	a1,24
 390 0200 97000000 		call	_ZN15MemoryAllocator11mallocBytesEm@plt
 390      E7800000 
 391              	.LVL32:
  51:src/SleepingThreadsList.cpp ****                 novi->thread = thread;
 392              		.loc 1 51 17 is_stmt 1
  51:src/SleepingThreadsList.cpp ****                 novi->thread = thread;
 393              		.loc 1 51 30 is_stmt 0
 394 0208 23305501 		sd	s5,0(a0)
  52:src/SleepingThreadsList.cpp ****                 novi->next = nullptr;
 395              		.loc 1 52 17 is_stmt 1
  52:src/SleepingThreadsList.cpp ****                 novi->next = nullptr;
 396              		.loc 1 52 28 is_stmt 0
 397 020c 23380500 		sd	zero,16(a0)
  53:src/SleepingThreadsList.cpp ****                 novi->slice = slice - tail->slice;
 398              		.loc 1 53 17 is_stmt 1
  53:src/SleepingThreadsList.cpp ****                 novi->slice = slice - tail->slice;
 399              		.loc 1 53 39 is_stmt 0
 400 0210 83378A00 		ld	a5,8(s4)
  53:src/SleepingThreadsList.cpp ****                 novi->slice = slice - tail->slice;
 401              		.loc 1 53 45
 402 0214 83B78700 		ld	a5,8(a5)
  53:src/SleepingThreadsList.cpp ****                 novi->slice = slice - tail->slice;
 403              		.loc 1 53 37
 404 0218 3309F940 		sub	s2,s2,a5
 405              	.LVL33:
  53:src/SleepingThreadsList.cpp ****                 novi->slice = slice - tail->slice;
 406              		.loc 1 53 29
 407 021c 23342501 		sd	s2,8(a0)
  54:src/SleepingThreadsList.cpp ****                 tail->next = novi;
 408              		.loc 1 54 17 is_stmt 1
 409 0220 83378A00 		ld	a5,8(s4)
  54:src/SleepingThreadsList.cpp ****                 tail->next = novi;
 410              		.loc 1 54 28 is_stmt 0
 411 0224 23B8A700 		sd	a0,16(a5)
  55:src/SleepingThreadsList.cpp ****                 tail = novi;
 412              		.loc 1 55 17 is_stmt 1
  55:src/SleepingThreadsList.cpp ****                 tail = novi;
 413              		.loc 1 55 22 is_stmt 0
 414 0228 2334AA00 		sd	a0,8(s4)
 415              	.LBE15:
 416 022c 6FF0DFF9 		j	.L16
 417              	.LVL34:
 418              	.L21:
 419              	.LBB16:
  58:src/SleepingThreadsList.cpp ****                 Elem* novi = (Elem*) MemoryAllocator::getInstance().mallocBytes(sizeof(Elem));
 420              		.loc 1 58 17 is_stmt 1
  58:src/SleepingThreadsList.cpp ****                 Elem* novi = (Elem*) MemoryAllocator::getInstance().mallocBytes(sizeof(Elem));
 421              		.loc 1 58 67 is_stmt 0
 422 0230 97000000 		call	_ZN15MemoryAllocator11getInstanceEv@plt
 422      E7800000 
 423              	.LVL35:
GAS LISTING /tmp/ccZVyotD.s 			page 12


  58:src/SleepingThreadsList.cpp ****                 Elem* novi = (Elem*) MemoryAllocator::getInstance().mallocBytes(sizeof(Elem));
 424              		.loc 1 58 80
 425 0238 93058001 		li	a1,24
 426 023c 97000000 		call	_ZN15MemoryAllocator11mallocBytesEm@plt
 426      E7800000 
 427              	.LVL36:
  59:src/SleepingThreadsList.cpp ****                 novi->thread = thread;
 428              		.loc 1 59 17 is_stmt 1
  59:src/SleepingThreadsList.cpp ****                 novi->thread = thread;
 429              		.loc 1 59 30 is_stmt 0
 430 0244 23305501 		sd	s5,0(a0)
  60:src/SleepingThreadsList.cpp ****                 novi->next = tail;
 431              		.loc 1 60 17 is_stmt 1
  60:src/SleepingThreadsList.cpp ****                 novi->next = tail;
 432              		.loc 1 60 30 is_stmt 0
 433 0248 83378A00 		ld	a5,8(s4)
  60:src/SleepingThreadsList.cpp ****                 novi->next = tail;
 434              		.loc 1 60 28
 435 024c 2338F500 		sd	a5,16(a0)
  61:src/SleepingThreadsList.cpp ****                 novi->slice= slice;
 436              		.loc 1 61 17 is_stmt 1
  61:src/SleepingThreadsList.cpp ****                 novi->slice= slice;
 437              		.loc 1 61 28 is_stmt 0
 438 0250 23342501 		sd	s2,8(a0)
  63:src/SleepingThreadsList.cpp ****                 if(prev != nullptr){
 439              		.loc 1 63 17 is_stmt 1
 440 0254 638E0900 		beqz	s3,.L22
  64:src/SleepingThreadsList.cpp ****                     prev->next = novi;
 441              		.loc 1 64 21
  64:src/SleepingThreadsList.cpp ****                     prev->next = novi;
 442              		.loc 1 64 32 is_stmt 0
 443 0258 23B8A900 		sd	a0,16(s3)
 444              	.L23:
  69:src/SleepingThreadsList.cpp ****                 tail->slice -= slice;
 445              		.loc 1 69 17 is_stmt 1
 446 025c 03378A00 		ld	a4,8(s4)
  69:src/SleepingThreadsList.cpp ****                 tail->slice -= slice;
 447              		.loc 1 69 29 is_stmt 0
 448 0260 83378700 		ld	a5,8(a4)
 449 0264 33892741 		sub	s2,a5,s2
 450              	.LVL37:
 451 0268 23342701 		sd	s2,8(a4)
 452 026c 6FF0DFF5 		j	.L16
 453              	.LVL38:
 454              	.L22:
  66:src/SleepingThreadsList.cpp ****                     head = novi;
 455              		.loc 1 66 21 is_stmt 1
  66:src/SleepingThreadsList.cpp ****                     head = novi;
 456              		.loc 1 66 26 is_stmt 0
 457 0270 2330AA00 		sd	a0,0(s4)
 458 0274 6FF09FFE 		j	.L23
 459              	.LVL39:
 460              	.L24:
 461              	.LBE16:
 462              	.LBE14:
 463              	.LBB17:
  82:src/SleepingThreadsList.cpp ****                 head = novi;
GAS LISTING /tmp/ccZVyotD.s 			page 13


 464              		.loc 1 82 17 is_stmt 1
  82:src/SleepingThreadsList.cpp ****                 head = novi;
 465              		.loc 1 82 22 is_stmt 0
 466 0278 2330AA00 		sd	a0,0(s4)
 467 027c 6FF01FF4 		j	.L25
 468              	.LBE17:
 469              	.LBE18:
 470              	.LBE20:
 471              	.LBE21:
 472              		.cfi_endproc
 473              	.LFE42:
 475              	.Letext0:
 476              		.file 3 "src/../h/../h/scheduler.hpp"
 477              		.file 4 "src/../h/../h/../lib/hw.h"
 478              		.file 5 "src/../h/../h/../h/../h/MemoryAllocator.hpp"
 479              		.file 6 "src/../h/../h/../h/../h/syscall_c.h"
 480              		.file 7 "src/../h/SleepingThreadsList.hpp"
GAS LISTING /tmp/ccZVyotD.s 			page 14

