GAS LISTING /tmp/ccC99QUp.s 			page 1


   1              		.file	"sycall_c.cpp"
   2              		.option pic
   3              		.option norelax
   4              		.text
   5              	.Ltext0:
   6              		.align	2
   7              		.globl	_Z9mem_allocm
   9              	_Z9mem_allocm:
  10              	.LFB0:
  11              		.file 1 "src/sycall_c.cpp"
   1:src/sycall_c.cpp **** #include "../h/syscall_c.h"
   2:src/sycall_c.cpp **** #include "../lib/console.h"
   3:src/sycall_c.cpp **** 
   4:src/sycall_c.cpp **** void* mem_alloc(size_t size) {
  12              		.loc 1 4 30
  13              		.cfi_startproc
  14              	.LVL0:
  15 0000 130101FE 		addi	sp,sp,-32
  16              		.cfi_def_cfa_offset 32
  17 0004 233C8100 		sd	s0,24(sp)
  18              		.cfi_offset 8, -8
  19 0008 13040102 		addi	s0,sp,32
  20              		.cfi_def_cfa 8, 0
   5:src/sycall_c.cpp ****     uint64 num_of_blocks = (size + MEM_BLOCK_SIZE - 1) / MEM_BLOCK_SIZE;
  21              		.loc 1 5 5
  22              		.loc 1 5 51 is_stmt 0
  23 000c 1305F503 		addi	a0,a0,63
  24              	.LVL1:
  25              		.loc 1 5 12
  26 0010 13556500 		srli	a0,a0,6
  27              	.LVL2:
   6:src/sycall_c.cpp **** 
   7:src/sycall_c.cpp ****     uint64 res = 0;
  28              		.loc 1 7 5 is_stmt 1
  29              		.loc 1 7 12 is_stmt 0
  30 0014 233404FE 		sd	zero,-24(s0)
   8:src/sycall_c.cpp ****     uint64* ret = &res;
  31              		.loc 1 8 5 is_stmt 1
  32              	.LVL3:
   9:src/sycall_c.cpp **** 
  10:src/sycall_c.cpp ****     __asm__ volatile ("mv a2, %0" : : "r"(ret));
  33              		.loc 1 10 5
  34              		.loc 1 10 48 is_stmt 0
  35 0018 930784FE 		addi	a5,s0,-24
  36              	.LVL4:
  37              	#APP
  38              	# 10 "src/sycall_c.cpp" 1
  11              	    __asm__ volatile ("mv a1, %0" : : "r"(num_of_blocks));
  39              		mv a2, a5
  40              	# 0 "" 2
  41              		.loc 1 11 5 is_stmt 1
  42              		.loc 1 11 58 is_stmt 0
  43              	# 11 "src/sycall_c.cpp" 1
  12              	    __asm__ volatile ("mv a0, %0" : : "r"(MEM_ALLOC));
  44              		mv a1, a0
  45              	# 0 "" 2
  46              		.loc 1 12 5 is_stmt 1
GAS LISTING /tmp/ccC99QUp.s 			page 2


  47              		.loc 1 12 54 is_stmt 0
  48              	#NO_APP
  49 0024 93071000 		li	a5,1
  50              	.LVL5:
  51              	#APP
  52              	# 12 "src/sycall_c.cpp" 1
  13              	    __asm__ volatile ("ecall");
  53              		mv a0, a5
  54              	# 0 "" 2
  55              		.loc 1 13 5 is_stmt 1
  56              		.loc 1 13 31 is_stmt 0
  57              	# 13 "src/sycall_c.cpp" 1
  14              	
  15:src/sycall_c.cpp ****     return (void*) *ret;
  58              		ecall
  59              	# 0 "" 2
  60              		.loc 1 15 5 is_stmt 1
  16:src/sycall_c.cpp **** }
  61              		.loc 1 16 1 is_stmt 0
  62              	#NO_APP
  63 0030 033584FE 		ld	a0,-24(s0)
  64              	.LVL6:
  65 0034 03348101 		ld	s0,24(sp)
  66              		.cfi_restore 8
  67              		.cfi_def_cfa 2, 32
  68              	.LVL7:
  69 0038 13010102 		addi	sp,sp,32
  70              		.cfi_def_cfa_offset 0
  71              	.LVL8:
  72 003c 67800000 		jr	ra
  73              		.cfi_endproc
  74              	.LFE0:
  76              		.align	2
  77              		.globl	_Z8mem_freePv
  79              	_Z8mem_freePv:
  80              	.LFB1:
  17:src/sycall_c.cpp **** 
  18:src/sycall_c.cpp **** int mem_free(void* ptr) {
  81              		.loc 1 18 25 is_stmt 1
  82              		.cfi_startproc
  83              	.LVL9:
  84 0040 130101FE 		addi	sp,sp,-32
  85              		.cfi_def_cfa_offset 32
  86 0044 233C8100 		sd	s0,24(sp)
  87              		.cfi_offset 8, -8
  88 0048 13040102 		addi	s0,sp,32
  89              		.cfi_def_cfa 8, 0
  19:src/sycall_c.cpp ****     uint64 res = 0;
  90              		.loc 1 19 5
  91              		.loc 1 19 12 is_stmt 0
  92 004c 233404FE 		sd	zero,-24(s0)
  20:src/sycall_c.cpp ****     uint64* ret = &res;
  93              		.loc 1 20 5 is_stmt 1
  94              	.LVL10:
  21:src/sycall_c.cpp **** 
  22:src/sycall_c.cpp ****     __asm__ volatile ("mv a2, %0" : : "r"(ret));
  95              		.loc 1 22 5
GAS LISTING /tmp/ccC99QUp.s 			page 3


  96              		.loc 1 22 48 is_stmt 0
  97 0050 930784FE 		addi	a5,s0,-24
  98              	.LVL11:
  99              	#APP
 100              	# 22 "src/sycall_c.cpp" 1
  23              	    __asm__ volatile ("mv a1, %0" : : "r"(ptr));
 101              		mv a2, a5
 102              	# 0 "" 2
 103              		.loc 1 23 5 is_stmt 1
 104              		.loc 1 23 48 is_stmt 0
 105              	# 23 "src/sycall_c.cpp" 1
  24              	    __asm__ volatile ("mv a0, %0" : : "r"(MEM_FREE));
 106              		mv a1, a0
 107              	# 0 "" 2
 108              		.loc 1 24 5 is_stmt 1
 109              		.loc 1 24 53 is_stmt 0
 110              	#NO_APP
 111 005c 93072000 		li	a5,2
 112              	.LVL12:
 113              	#APP
 114              	# 24 "src/sycall_c.cpp" 1
  25              	    __asm__ volatile ("ecall");
 115              		mv a0, a5
 116              	# 0 "" 2
 117              		.loc 1 25 5 is_stmt 1
 118              		.loc 1 25 31 is_stmt 0
 119              	# 25 "src/sycall_c.cpp" 1
  26              	
  27:src/sycall_c.cpp ****     return (int) *ret;
 120              		ecall
 121              	# 0 "" 2
 122              		.loc 1 27 5 is_stmt 1
  28:src/sycall_c.cpp **** }
 123              		.loc 1 28 1 is_stmt 0
 124              	#NO_APP
 125 0068 032584FE 		lw	a0,-24(s0)
 126              	.LVL13:
 127 006c 03348101 		ld	s0,24(sp)
 128              		.cfi_restore 8
 129              		.cfi_def_cfa 2, 32
 130              	.LVL14:
 131 0070 13010102 		addi	sp,sp,32
 132              		.cfi_def_cfa_offset 0
 133              	.LVL15:
 134 0074 67800000 		jr	ra
 135              		.cfi_endproc
 136              	.LFE1:
 138              		.align	2
 139              		.globl	_Z13thread_createPP3TCBPFvPvES2_
 141              	_Z13thread_createPP3TCBPFvPvES2_:
 142              	.LFB2:
  29:src/sycall_c.cpp **** 
  30:src/sycall_c.cpp **** int thread_create(thread_t* handle, void (*start_routine)(void *), void* args) {
 143              		.loc 1 30 80 is_stmt 1
 144              		.cfi_startproc
 145              	.LVL16:
 146 0078 130101FC 		addi	sp,sp,-64
GAS LISTING /tmp/ccC99QUp.s 			page 4


 147              		.cfi_def_cfa_offset 64
 148 007c 233C1102 		sd	ra,56(sp)
 149 0080 23388102 		sd	s0,48(sp)
 150 0084 23349102 		sd	s1,40(sp)
 151 0088 23302103 		sd	s2,32(sp)
 152 008c 233C3101 		sd	s3,24(sp)
 153              		.cfi_offset 1, -8
 154              		.cfi_offset 8, -16
 155              		.cfi_offset 9, -24
 156              		.cfi_offset 18, -32
 157              		.cfi_offset 19, -40
 158 0090 13040104 		addi	s0,sp,64
 159              		.cfi_def_cfa 8, 0
 160 0094 93040500 		mv	s1,a0
 161 0098 13890500 		mv	s2,a1
 162 009c 93090600 		mv	s3,a2
  31:src/sycall_c.cpp ****     int id = 0;
 163              		.loc 1 31 5
 164              		.loc 1 31 9 is_stmt 0
 165 00a0 232604FC 		sw	zero,-52(s0)
  32:src/sycall_c.cpp ****     int* res = &id;
 166              		.loc 1 32 5 is_stmt 1
 167              	.LVL17:
  33:src/sycall_c.cpp **** 
  34:src/sycall_c.cpp ****     auto* stack = new uint64[DEFAULT_STACK_SIZE];
 168              		.loc 1 34 5
 169              		.loc 1 34 48 is_stmt 0
 170 00a4 37850000 		li	a0,32768
 171              	.LVL18:
 172 00a8 97000000 		call	_Znam@plt
 172      E7800000 
 173              	.LVL19:
  35:src/sycall_c.cpp ****     __asm__ volatile ("mv a4, %0" : : "r"(stack));
 174              		.loc 1 35 5 is_stmt 1
 175              		.loc 1 35 50 is_stmt 0
 176              	#APP
 177              	# 35 "src/sycall_c.cpp" 1
  36              	    __asm__ volatile ("mv a3, %0" : : "r"(args));
 178              		mv a4, a0
 179              	# 0 "" 2
 180              		.loc 1 36 5 is_stmt 1
 181              		.loc 1 36 49 is_stmt 0
 182              	# 36 "src/sycall_c.cpp" 1
  37              	    __asm__ volatile ("mv a2, %0" : : "r"(start_routine));
 183              		mv a3, s3
 184              	# 0 "" 2
 185              		.loc 1 37 5 is_stmt 1
 186              		.loc 1 37 58 is_stmt 0
 187              	# 37 "src/sycall_c.cpp" 1
  38              	    __asm__ volatile ("mv a1, %0" : : "r"(handle));
 188              		mv a2, s2
 189              	# 0 "" 2
 190              		.loc 1 38 5 is_stmt 1
 191              		.loc 1 38 51 is_stmt 0
 192              	# 38 "src/sycall_c.cpp" 1
  39              	    __asm__ volatile ("mv a0, %0" : : "r"(THREAD_CREATE));
 193              		mv a1, s1
GAS LISTING /tmp/ccC99QUp.s 			page 5


 194              	# 0 "" 2
 195              		.loc 1 39 5 is_stmt 1
 196              		.loc 1 39 58 is_stmt 0
 197              	#NO_APP
 198 00c0 93071001 		li	a5,17
 199              	#APP
 200              	# 39 "src/sycall_c.cpp" 1
  40              	    __asm__ volatile ("mv a5, %0" : : "r"(res));
 201              		mv a0, a5
 202              	# 0 "" 2
 203              		.loc 1 40 5 is_stmt 1
 204              		.loc 1 40 48 is_stmt 0
 205              	#NO_APP
 206 00c8 9307C4FC 		addi	a5,s0,-52
 207              	.LVL20:
 208              	#APP
 209              	# 40 "src/sycall_c.cpp" 1
  41              	    __asm__ volatile ("ecall");
 210              		mv a5, a5
 211              	# 0 "" 2
 212              		.loc 1 41 5 is_stmt 1
 213              		.loc 1 41 31 is_stmt 0
 214              	# 41 "src/sycall_c.cpp" 1
  42              	
  43:src/sycall_c.cpp ****     return *res;
 215              		ecall
 216              	# 0 "" 2
 217              		.loc 1 43 5 is_stmt 1
  44:src/sycall_c.cpp **** }
 218              		.loc 1 44 1 is_stmt 0
 219              	#NO_APP
 220 00d4 0325C4FC 		lw	a0,-52(s0)
 221              	.LVL21:
 222 00d8 83308103 		ld	ra,56(sp)
 223              		.cfi_restore 1
 224 00dc 03340103 		ld	s0,48(sp)
 225              		.cfi_restore 8
 226              		.cfi_def_cfa 2, 64
 227 00e0 83348102 		ld	s1,40(sp)
 228              		.cfi_restore 9
 229              	.LVL22:
 230 00e4 03390102 		ld	s2,32(sp)
 231              		.cfi_restore 18
 232              	.LVL23:
 233 00e8 83398101 		ld	s3,24(sp)
 234              		.cfi_restore 19
 235              	.LVL24:
 236 00ec 13010104 		addi	sp,sp,64
 237              		.cfi_def_cfa_offset 0
 238 00f0 67800000 		jr	ra
 239              		.cfi_endproc
 240              	.LFE2:
 242              		.align	2
 243              		.globl	_Z11thread_exitv
 245              	_Z11thread_exitv:
 246              	.LFB3:
  45:src/sycall_c.cpp **** 
GAS LISTING /tmp/ccC99QUp.s 			page 6


  46:src/sycall_c.cpp **** int thread_exit() {
 247              		.loc 1 46 19 is_stmt 1
 248              		.cfi_startproc
 249 00f4 130101FF 		addi	sp,sp,-16
 250              		.cfi_def_cfa_offset 16
 251 00f8 23348100 		sd	s0,8(sp)
 252              		.cfi_offset 8, -8
 253 00fc 13040101 		addi	s0,sp,16
 254              		.cfi_def_cfa 8, 0
  47:src/sycall_c.cpp ****     int id = 0;
 255              		.loc 1 47 5
 256              	.LVL25:
  48:src/sycall_c.cpp ****     int* res = &id;
 257              		.loc 1 48 5
  49:src/sycall_c.cpp **** 
  50:src/sycall_c.cpp ****     __asm__ volatile ("mv a0, %0" : : "r"(THREAD_EXIT));
 258              		.loc 1 50 5
 259              		.loc 1 50 56 is_stmt 0
 260 0100 93072001 		li	a5,18
 261              	#APP
 262              	# 50 "src/sycall_c.cpp" 1
  51              	    __asm__ volatile ("ecall");
 263              		mv a0, a5
 264              	# 0 "" 2
 265              		.loc 1 51 5 is_stmt 1
 266              		.loc 1 51 31 is_stmt 0
 267              	# 51 "src/sycall_c.cpp" 1
  52              	
  53:src/sycall_c.cpp ****     return *res;
 268              		ecall
 269              	# 0 "" 2
 270              		.loc 1 53 5 is_stmt 1
 271              	.LVL26:
  54:src/sycall_c.cpp **** }
 272              		.loc 1 54 1 is_stmt 0
 273              	#NO_APP
 274 010c 13050000 		li	a0,0
 275 0110 03348100 		ld	s0,8(sp)
 276              		.cfi_restore 8
 277              		.cfi_def_cfa 2, 16
 278 0114 13010101 		addi	sp,sp,16
 279              		.cfi_def_cfa_offset 0
 280 0118 67800000 		jr	ra
 281              		.cfi_endproc
 282              	.LFE3:
 284              		.align	2
 285              		.globl	_Z15thread_dispatchv
 287              	_Z15thread_dispatchv:
 288              	.LFB4:
  55:src/sycall_c.cpp **** 
  56:src/sycall_c.cpp **** void thread_dispatch() {
 289              		.loc 1 56 24 is_stmt 1
 290              		.cfi_startproc
 291 011c 130101FF 		addi	sp,sp,-16
 292              		.cfi_def_cfa_offset 16
 293 0120 23348100 		sd	s0,8(sp)
 294              		.cfi_offset 8, -8
GAS LISTING /tmp/ccC99QUp.s 			page 7


 295 0124 13040101 		addi	s0,sp,16
 296              		.cfi_def_cfa 8, 0
  57:src/sycall_c.cpp ****     __asm__ volatile ("mv a0, %0" : : "r"(THREAD_DISPATCH));
 297              		.loc 1 57 5
 298              		.loc 1 57 60 is_stmt 0
 299 0128 93073001 		li	a5,19
 300              	#APP
 301              	# 57 "src/sycall_c.cpp" 1
  58              	    __asm__ volatile ("ecall");
 302              		mv a0, a5
 303              	# 0 "" 2
 304              		.loc 1 58 5 is_stmt 1
 305              		.loc 1 58 31 is_stmt 0
 306              	# 58 "src/sycall_c.cpp" 1
  59              	}
 307              		ecall
 308              	# 0 "" 2
 309              		.loc 1 59 1
 310              	#NO_APP
 311 0134 03348100 		ld	s0,8(sp)
 312              		.cfi_restore 8
 313              		.cfi_def_cfa 2, 16
 314 0138 13010101 		addi	sp,sp,16
 315              		.cfi_def_cfa_offset 0
 316 013c 67800000 		jr	ra
 317              		.cfi_endproc
 318              	.LFE4:
 320              		.align	2
 321              		.globl	_Z11thread_joinP3TCB
 323              	_Z11thread_joinP3TCB:
 324              	.LFB5:
  60:src/sycall_c.cpp **** 
  61:src/sycall_c.cpp **** void thread_join(thread_t handle) {
 325              		.loc 1 61 35 is_stmt 1
 326              		.cfi_startproc
 327              	.LVL27:
 328 0140 130101FF 		addi	sp,sp,-16
 329              		.cfi_def_cfa_offset 16
 330 0144 23348100 		sd	s0,8(sp)
 331              		.cfi_offset 8, -8
 332 0148 13040101 		addi	s0,sp,16
 333              		.cfi_def_cfa 8, 0
  62:src/sycall_c.cpp ****     __asm__ volatile ("mv a1, %0" : : "r"(handle));
 334              		.loc 1 62 5
 335              		.loc 1 62 51 is_stmt 0
 336              	#APP
 337              	# 62 "src/sycall_c.cpp" 1
  63              	    __asm__ volatile ("mv a0, %0" : : "r"(THREAD_JOIN));
 338              		mv a1, a0
 339              	# 0 "" 2
 340              		.loc 1 63 5 is_stmt 1
 341              		.loc 1 63 56 is_stmt 0
 342              	#NO_APP
 343 0150 93074001 		li	a5,20
 344              	#APP
 345              	# 63 "src/sycall_c.cpp" 1
  64              	    __asm__ volatile ("ecall");
GAS LISTING /tmp/ccC99QUp.s 			page 8


 346              		mv a0, a5
 347              	# 0 "" 2
 348              		.loc 1 64 5 is_stmt 1
 349              		.loc 1 64 31 is_stmt 0
 350              	# 64 "src/sycall_c.cpp" 1
  65              	}
 351              		ecall
 352              	# 0 "" 2
 353              		.loc 1 65 1
 354              	#NO_APP
 355 015c 03348100 		ld	s0,8(sp)
 356              		.cfi_restore 8
 357              		.cfi_def_cfa 2, 16
 358 0160 13010101 		addi	sp,sp,16
 359              		.cfi_def_cfa_offset 0
 360 0164 67800000 		jr	ra
 361              		.cfi_endproc
 362              	.LFE5:
 364              		.align	2
 365              		.globl	_Z8sem_openPP3semj
 367              	_Z8sem_openPP3semj:
 368              	.LFB6:
  66:src/sycall_c.cpp **** 
  67:src/sycall_c.cpp **** int sem_open(sem_t* handle, unsigned int val) {
 369              		.loc 1 67 47 is_stmt 1
 370              		.cfi_startproc
 371              	.LVL28:
 372 0168 130101FE 		addi	sp,sp,-32
 373              		.cfi_def_cfa_offset 32
 374 016c 233C8100 		sd	s0,24(sp)
 375              		.cfi_offset 8, -8
 376 0170 13040102 		addi	s0,sp,32
 377              		.cfi_def_cfa 8, 0
  68:src/sycall_c.cpp ****     int x = 0;
 378              		.loc 1 68 5
 379              		.loc 1 68 9 is_stmt 0
 380 0174 232604FE 		sw	zero,-20(s0)
  69:src/sycall_c.cpp ****     int* ret = &x;
 381              		.loc 1 69 5 is_stmt 1
 382              	.LVL29:
  70:src/sycall_c.cpp **** 
  71:src/sycall_c.cpp ****     __asm__ volatile ("mv a2, %0" : : "r"(val));
 383              		.loc 1 71 5
 384              		.loc 1 71 48 is_stmt 0
 385              	#APP
 386              	# 71 "src/sycall_c.cpp" 1
  72              	    __asm__ volatile ("mv a1, %0" : : "r"(handle));
 387              		mv a2, a1
 388              	# 0 "" 2
 389              		.loc 1 72 5 is_stmt 1
 390              		.loc 1 72 51 is_stmt 0
 391              	# 72 "src/sycall_c.cpp" 1
  73              	    __asm__ volatile ("mv a0, %0" : : "r"(SEM_OPEN));
 392              		mv a1, a0
 393              	# 0 "" 2
 394              		.loc 1 73 5 is_stmt 1
 395              		.loc 1 73 53 is_stmt 0
GAS LISTING /tmp/ccC99QUp.s 			page 9


 396              	#NO_APP
 397 0180 93071002 		li	a5,33
 398              	#APP
 399              	# 73 "src/sycall_c.cpp" 1
  74              	    __asm__ volatile ("mv a3, %0" : : "r"(ret));
 400              		mv a0, a5
 401              	# 0 "" 2
 402              		.loc 1 74 5 is_stmt 1
 403              		.loc 1 74 48 is_stmt 0
 404              	#NO_APP
 405 0188 9307C4FE 		addi	a5,s0,-20
 406              	.LVL30:
 407              	#APP
 408              	# 74 "src/sycall_c.cpp" 1
  75              	    __asm__ volatile ("ecall");
 409              		mv a3, a5
 410              	# 0 "" 2
 411              		.loc 1 75 5 is_stmt 1
 412              		.loc 1 75 31 is_stmt 0
 413              	# 75 "src/sycall_c.cpp" 1
  76              	
  77:src/sycall_c.cpp ****     return *ret;
 414              		ecall
 415              	# 0 "" 2
 416              		.loc 1 77 5 is_stmt 1
  78:src/sycall_c.cpp **** }
 417              		.loc 1 78 1 is_stmt 0
 418              	#NO_APP
 419 0194 0325C4FE 		lw	a0,-20(s0)
 420              	.LVL31:
 421 0198 03348101 		ld	s0,24(sp)
 422              		.cfi_restore 8
 423              		.cfi_def_cfa 2, 32
 424 019c 13010102 		addi	sp,sp,32
 425              		.cfi_def_cfa_offset 0
 426 01a0 67800000 		jr	ra
 427              		.cfi_endproc
 428              	.LFE6:
 430              		.align	2
 431              		.globl	_Z9sem_closeP3sem
 433              	_Z9sem_closeP3sem:
 434              	.LFB7:
  79:src/sycall_c.cpp **** 
  80:src/sycall_c.cpp **** int sem_close(sem_t handle) {
 435              		.loc 1 80 29 is_stmt 1
 436              		.cfi_startproc
 437              	.LVL32:
 438 01a4 130101FE 		addi	sp,sp,-32
 439              		.cfi_def_cfa_offset 32
 440 01a8 233C8100 		sd	s0,24(sp)
 441              		.cfi_offset 8, -8
 442 01ac 13040102 		addi	s0,sp,32
 443              		.cfi_def_cfa 8, 0
  81:src/sycall_c.cpp ****     int x = 0;
 444              		.loc 1 81 5
 445              		.loc 1 81 9 is_stmt 0
 446 01b0 232604FE 		sw	zero,-20(s0)
GAS LISTING /tmp/ccC99QUp.s 			page 10


  82:src/sycall_c.cpp ****     int* ret = &x;
 447              		.loc 1 82 5 is_stmt 1
 448              	.LVL33:
  83:src/sycall_c.cpp **** 
  84:src/sycall_c.cpp ****     __asm__ volatile ("mv a1, %0" : : "r"(handle));
 449              		.loc 1 84 5
 450              		.loc 1 84 51 is_stmt 0
 451              	#APP
 452              	# 84 "src/sycall_c.cpp" 1
  85              	    __asm__ volatile ("mv a0, %0" : : "r"(SEM_CLOSE));
 453              		mv a1, a0
 454              	# 0 "" 2
 455              		.loc 1 85 5 is_stmt 1
 456              		.loc 1 85 54 is_stmt 0
 457              	#NO_APP
 458 01b8 93072002 		li	a5,34
 459              	#APP
 460              	# 85 "src/sycall_c.cpp" 1
  86              	    __asm__ volatile ("mv a2, %0" : : "r"(ret));
 461              		mv a0, a5
 462              	# 0 "" 2
 463              		.loc 1 86 5 is_stmt 1
 464              		.loc 1 86 48 is_stmt 0
 465              	#NO_APP
 466 01c0 9307C4FE 		addi	a5,s0,-20
 467              	.LVL34:
 468              	#APP
 469              	# 86 "src/sycall_c.cpp" 1
  87              	    __asm__ volatile ("ecall");
 470              		mv a2, a5
 471              	# 0 "" 2
 472              		.loc 1 87 5 is_stmt 1
 473              		.loc 1 87 31 is_stmt 0
 474              	# 87 "src/sycall_c.cpp" 1
  88              	
  89:src/sycall_c.cpp ****     return *ret;
 475              		ecall
 476              	# 0 "" 2
 477              		.loc 1 89 5 is_stmt 1
  90:src/sycall_c.cpp **** }
 478              		.loc 1 90 1 is_stmt 0
 479              	#NO_APP
 480 01cc 0325C4FE 		lw	a0,-20(s0)
 481              	.LVL35:
 482 01d0 03348101 		ld	s0,24(sp)
 483              		.cfi_restore 8
 484              		.cfi_def_cfa 2, 32
 485 01d4 13010102 		addi	sp,sp,32
 486              		.cfi_def_cfa_offset 0
 487 01d8 67800000 		jr	ra
 488              		.cfi_endproc
 489              	.LFE7:
 491              		.align	2
 492              		.globl	_Z8sem_waitP3sem
 494              	_Z8sem_waitP3sem:
 495              	.LFB8:
  91:src/sycall_c.cpp **** 
GAS LISTING /tmp/ccC99QUp.s 			page 11


  92:src/sycall_c.cpp **** int sem_wait(sem_t handle) {
 496              		.loc 1 92 28 is_stmt 1
 497              		.cfi_startproc
 498              	.LVL36:
 499 01dc 130101FE 		addi	sp,sp,-32
 500              		.cfi_def_cfa_offset 32
 501 01e0 233C8100 		sd	s0,24(sp)
 502              		.cfi_offset 8, -8
 503 01e4 13040102 		addi	s0,sp,32
 504              		.cfi_def_cfa 8, 0
  93:src/sycall_c.cpp ****     int x = 0;
 505              		.loc 1 93 5
 506              		.loc 1 93 9 is_stmt 0
 507 01e8 232604FE 		sw	zero,-20(s0)
  94:src/sycall_c.cpp ****     int* ret = &x;
 508              		.loc 1 94 5 is_stmt 1
 509              	.LVL37:
  95:src/sycall_c.cpp **** 
  96:src/sycall_c.cpp ****     __asm__ volatile ("mv a1, %0" : : "r"(handle));
 510              		.loc 1 96 5
 511              		.loc 1 96 51 is_stmt 0
 512              	#APP
 513              	# 96 "src/sycall_c.cpp" 1
  97              	    __asm__ volatile ("mv a0, %0" : : "r"(SEM_WAIT));
 514              		mv a1, a0
 515              	# 0 "" 2
 516              		.loc 1 97 5 is_stmt 1
 517              		.loc 1 97 53 is_stmt 0
 518              	#NO_APP
 519 01f0 93073002 		li	a5,35
 520              	#APP
 521              	# 97 "src/sycall_c.cpp" 1
  98              	    __asm__ volatile ("mv a2, %0" : : "r"(ret));
 522              		mv a0, a5
 523              	# 0 "" 2
 524              		.loc 1 98 5 is_stmt 1
 525              		.loc 1 98 48 is_stmt 0
 526              	#NO_APP
 527 01f8 9307C4FE 		addi	a5,s0,-20
 528              	.LVL38:
 529              	#APP
 530              	# 98 "src/sycall_c.cpp" 1
  99              	    __asm__ volatile ("ecall");
 531              		mv a2, a5
 532              	# 0 "" 2
 533              		.loc 1 99 5 is_stmt 1
 534              		.loc 1 99 31 is_stmt 0
 535              	# 99 "src/sycall_c.cpp" 1
 100              	
 101:src/sycall_c.cpp ****     return *ret;
 536              		ecall
 537              	# 0 "" 2
 538              		.loc 1 101 5 is_stmt 1
 102:src/sycall_c.cpp **** }
 539              		.loc 1 102 1 is_stmt 0
 540              	#NO_APP
 541 0204 0325C4FE 		lw	a0,-20(s0)
GAS LISTING /tmp/ccC99QUp.s 			page 12


 542              	.LVL39:
 543 0208 03348101 		ld	s0,24(sp)
 544              		.cfi_restore 8
 545              		.cfi_def_cfa 2, 32
 546 020c 13010102 		addi	sp,sp,32
 547              		.cfi_def_cfa_offset 0
 548 0210 67800000 		jr	ra
 549              		.cfi_endproc
 550              	.LFE8:
 552              		.align	2
 553              		.globl	_Z10sem_signalP3sem
 555              	_Z10sem_signalP3sem:
 556              	.LFB9:
 103:src/sycall_c.cpp **** 
 104:src/sycall_c.cpp **** int sem_signal(sem_t handle) {
 557              		.loc 1 104 30 is_stmt 1
 558              		.cfi_startproc
 559              	.LVL40:
 560 0214 130101FE 		addi	sp,sp,-32
 561              		.cfi_def_cfa_offset 32
 562 0218 233C8100 		sd	s0,24(sp)
 563              		.cfi_offset 8, -8
 564 021c 13040102 		addi	s0,sp,32
 565              		.cfi_def_cfa 8, 0
 105:src/sycall_c.cpp ****     int x = 0;
 566              		.loc 1 105 5
 567              		.loc 1 105 9 is_stmt 0
 568 0220 232604FE 		sw	zero,-20(s0)
 106:src/sycall_c.cpp ****     int* ret = &x;
 569              		.loc 1 106 5 is_stmt 1
 570              	.LVL41:
 107:src/sycall_c.cpp **** 
 108:src/sycall_c.cpp ****     __asm__ volatile ("mv a1, %0" : : "r"(handle));
 571              		.loc 1 108 5
 572              		.loc 1 108 51 is_stmt 0
 573              	#APP
 574              	# 108 "src/sycall_c.cpp" 1
 109              	    __asm__ volatile ("mv a0, %0" : : "r"(SEM_SIGNAL));
 575              		mv a1, a0
 576              	# 0 "" 2
 577              		.loc 1 109 5 is_stmt 1
 578              		.loc 1 109 55 is_stmt 0
 579              	#NO_APP
 580 0228 93074002 		li	a5,36
 581              	#APP
 582              	# 109 "src/sycall_c.cpp" 1
 110              	    __asm__ volatile ("mv a2, %0" : : "r"(ret));
 583              		mv a0, a5
 584              	# 0 "" 2
 585              		.loc 1 110 5 is_stmt 1
 586              		.loc 1 110 48 is_stmt 0
 587              	#NO_APP
 588 0230 9307C4FE 		addi	a5,s0,-20
 589              	.LVL42:
 590              	#APP
 591              	# 110 "src/sycall_c.cpp" 1
 111              	    __asm__ volatile ("ecall");
GAS LISTING /tmp/ccC99QUp.s 			page 13


 592              		mv a2, a5
 593              	# 0 "" 2
 594              		.loc 1 111 5 is_stmt 1
 595              		.loc 1 111 31 is_stmt 0
 596              	# 111 "src/sycall_c.cpp" 1
 112              	
 113:src/sycall_c.cpp ****     return *ret;
 597              		ecall
 598              	# 0 "" 2
 599              		.loc 1 113 5 is_stmt 1
 114:src/sycall_c.cpp **** }
 600              		.loc 1 114 1 is_stmt 0
 601              	#NO_APP
 602 023c 0325C4FE 		lw	a0,-20(s0)
 603              	.LVL43:
 604 0240 03348101 		ld	s0,24(sp)
 605              		.cfi_restore 8
 606              		.cfi_def_cfa 2, 32
 607 0244 13010102 		addi	sp,sp,32
 608              		.cfi_def_cfa_offset 0
 609 0248 67800000 		jr	ra
 610              		.cfi_endproc
 611              	.LFE9:
 613              		.align	2
 614              		.globl	_Z10time_sleepm
 616              	_Z10time_sleepm:
 617              	.LFB10:
 115:src/sycall_c.cpp **** 
 116:src/sycall_c.cpp **** int time_sleep(time_t slice) {
 618              		.loc 1 116 30 is_stmt 1
 619              		.cfi_startproc
 620              	.LVL44:
 621 024c 130101FF 		addi	sp,sp,-16
 622              		.cfi_def_cfa_offset 16
 623 0250 23348100 		sd	s0,8(sp)
 624              		.cfi_offset 8, -8
 625 0254 13040101 		addi	s0,sp,16
 626              		.cfi_def_cfa 8, 0
 117:src/sycall_c.cpp ****     __asm__ volatile ("mv a1, %0" : : "r"(slice));
 627              		.loc 1 117 5
 628              		.loc 1 117 50 is_stmt 0
 629              	#APP
 630              	# 117 "src/sycall_c.cpp" 1
 118              	    __asm__ volatile ("mv a0, %0" : : "r"(TIME_SLEEP));
 631              		mv a1, a0
 632              	# 0 "" 2
 633              		.loc 1 118 5 is_stmt 1
 634              		.loc 1 118 55 is_stmt 0
 635              	#NO_APP
 636 025c 93071003 		li	a5,49
 637              	#APP
 638              	# 118 "src/sycall_c.cpp" 1
 119              	    __asm__ volatile ("ecall");
 639              		mv a0, a5
 640              	# 0 "" 2
 641              		.loc 1 119 5 is_stmt 1
 642              		.loc 1 119 31 is_stmt 0
GAS LISTING /tmp/ccC99QUp.s 			page 14


 643              	# 119 "src/sycall_c.cpp" 1
 120              	
 121:src/sycall_c.cpp ****     return 0;
 644              		ecall
 645              	# 0 "" 2
 646              		.loc 1 121 5 is_stmt 1
 122:src/sycall_c.cpp **** }
 647              		.loc 1 122 1 is_stmt 0
 648              	#NO_APP
 649 0268 13050000 		li	a0,0
 650              	.LVL45:
 651 026c 03348100 		ld	s0,8(sp)
 652              		.cfi_restore 8
 653              		.cfi_def_cfa 2, 16
 654 0270 13010101 		addi	sp,sp,16
 655              		.cfi_def_cfa_offset 0
 656 0274 67800000 		jr	ra
 657              		.cfi_endproc
 658              	.LFE10:
 660              		.align	2
 661              		.globl	_Z4getcv
 663              	_Z4getcv:
 664              	.LFB11:
 123:src/sycall_c.cpp **** 
 124:src/sycall_c.cpp **** char getc() {
 665              		.loc 1 124 13 is_stmt 1
 666              		.cfi_startproc
 667 0278 130101FE 		addi	sp,sp,-32
 668              		.cfi_def_cfa_offset 32
 669 027c 233C8100 		sd	s0,24(sp)
 670              		.cfi_offset 8, -8
 671 0280 13040102 		addi	s0,sp,32
 672              		.cfi_def_cfa 8, 0
 125:src/sycall_c.cpp ****     char c = '\0';
 673              		.loc 1 125 5
 674              		.loc 1 125 10 is_stmt 0
 675 0284 A30704FE 		sb	zero,-17(s0)
 126:src/sycall_c.cpp ****     char* ret = &c;
 676              		.loc 1 126 5 is_stmt 1
 677              	.LVL46:
 127:src/sycall_c.cpp **** 
 128:src/sycall_c.cpp ****     __asm__ volatile ("mv a1, %0" : : "r"(ret));
 678              		.loc 1 128 5
 679              		.loc 1 128 48 is_stmt 0
 680 0288 9307F4FE 		addi	a5,s0,-17
 681              	.LVL47:
 682              	#APP
 683              	# 128 "src/sycall_c.cpp" 1
 129              	    __asm__ volatile ("mv a0, %0" : : "r"(GETC));
 684              		mv a1, a5
 685              	# 0 "" 2
 686              		.loc 1 129 5 is_stmt 1
 687              		.loc 1 129 49 is_stmt 0
 688              	#NO_APP
 689 0290 93071004 		li	a5,65
 690              	.LVL48:
 691              	#APP
GAS LISTING /tmp/ccC99QUp.s 			page 15


 692              	# 129 "src/sycall_c.cpp" 1
 130              	    __asm__ volatile ("ecall");
 693              		mv a0, a5
 694              	# 0 "" 2
 695              		.loc 1 130 5 is_stmt 1
 696              		.loc 1 130 31 is_stmt 0
 697              	# 130 "src/sycall_c.cpp" 1
 131              	
 132:src/sycall_c.cpp ****     if(ret != nullptr){
 698              		ecall
 699              	# 0 "" 2
 700              		.loc 1 132 5 is_stmt 1
 133:src/sycall_c.cpp ****         return *ret;
 701              		.loc 1 133 9
 134:src/sycall_c.cpp ****     }else{
 135:src/sycall_c.cpp ****         return ' ';
 136:src/sycall_c.cpp ****     }
 137:src/sycall_c.cpp **** }
 702              		.loc 1 137 1 is_stmt 0
 703              	#NO_APP
 704 029c 0345F4FE 		lbu	a0,-17(s0)
 705 02a0 03348101 		ld	s0,24(sp)
 706              		.cfi_restore 8
 707              		.cfi_def_cfa 2, 32
 708              	.LVL49:
 709 02a4 13010102 		addi	sp,sp,32
 710              		.cfi_def_cfa_offset 0
 711              	.LVL50:
 712 02a8 67800000 		jr	ra
 713              		.cfi_endproc
 714              	.LFE11:
 716              		.align	2
 717              		.globl	_Z4putcc
 719              	_Z4putcc:
 720              	.LFB12:
 138:src/sycall_c.cpp **** 
 139:src/sycall_c.cpp **** void putc(char c) {
 721              		.loc 1 139 19 is_stmt 1
 722              		.cfi_startproc
 723              	.LVL51:
 724 02ac 130101FF 		addi	sp,sp,-16
 725              		.cfi_def_cfa_offset 16
 726 02b0 23348100 		sd	s0,8(sp)
 727              		.cfi_offset 8, -8
 728 02b4 13040101 		addi	s0,sp,16
 729              		.cfi_def_cfa 8, 0
 140:src/sycall_c.cpp ****     __asm__ volatile ("mv a1, %0" : : "r"(c));
 730              		.loc 1 140 5
 731              		.loc 1 140 46 is_stmt 0
 732              	#APP
 733              	# 140 "src/sycall_c.cpp" 1
 141              	    __asm__ volatile ("mv a0, %0" : : "r"(PUTC));
 734              		mv a1, a0
 735              	# 0 "" 2
 736              		.loc 1 141 5 is_stmt 1
 737              		.loc 1 141 49 is_stmt 0
 738              	#NO_APP
GAS LISTING /tmp/ccC99QUp.s 			page 16


 739 02bc 93072004 		li	a5,66
 740              	#APP
 741              	# 141 "src/sycall_c.cpp" 1
 142              	    __asm__ volatile ("ecall");
 742              		mv a0, a5
 743              	# 0 "" 2
 744              		.loc 1 142 5 is_stmt 1
 745              		.loc 1 142 31 is_stmt 0
 746              	# 142 "src/sycall_c.cpp" 1
 143              	}
 747              		ecall
 748              	# 0 "" 2
 749              		.loc 1 143 1
 750              	#NO_APP
 751 02c8 03348100 		ld	s0,8(sp)
 752              		.cfi_restore 8
 753              		.cfi_def_cfa 2, 16
 754 02cc 13010101 		addi	sp,sp,16
 755              		.cfi_def_cfa_offset 0
 756 02d0 67800000 		jr	ra
 757              		.cfi_endproc
 758              	.LFE12:
 760              	.Letext0:
 761              		.file 2 "src/../h/../lib/hw.h"
 762              		.file 3 "src/../h/syscall_c.h"
GAS LISTING /tmp/ccC99QUp.s 			page 17

