GAS LISTING /tmp/ccQnWgoU.s 			page 1


   1              		.file	"syscall_cpp.cpp"
   2              		.option pic
   3              		.option norelax
   4              		.text
   5              	.Ltext0:
   6              		.section	.text._ZN6Thread3runEv,"axG",@progbits,_ZN6Thread3runEv,comdat
   7              		.align	2
   8              		.weak	_ZN6Thread3runEv
  10              	_ZN6Thread3runEv:
  11              	.LFB36:
  12              		.file 1 "src/../h/syscall_cpp.hpp"
   1:src/../h/syscall_cpp.hpp **** #ifndef PROJECT_BASE_V1_1_SYSCALL_CPP_HPP
   2:src/../h/syscall_cpp.hpp **** #define PROJECT_BASE_V1_1_SYSCALL_CPP_HPP
   3:src/../h/syscall_cpp.hpp **** 
   4:src/../h/syscall_cpp.hpp **** #include "../h/MemoryAllocator.hpp"
   5:src/../h/syscall_cpp.hpp **** #include "../h/syscall_c.h"
   6:src/../h/syscall_cpp.hpp **** #include "../h/tcb.hpp"
   7:src/../h/syscall_cpp.hpp **** 
   8:src/../h/syscall_cpp.hpp **** void* operator new(size_t);
   9:src/../h/syscall_cpp.hpp **** void* operator new[](size_t);
  10:src/../h/syscall_cpp.hpp **** 
  11:src/../h/syscall_cpp.hpp **** void operator delete(void*);
  12:src/../h/syscall_cpp.hpp **** void operator delete[](void*);
  13:src/../h/syscall_cpp.hpp **** 
  14:src/../h/syscall_cpp.hpp **** class Thread {
  15:src/../h/syscall_cpp.hpp **** public:
  16:src/../h/syscall_cpp.hpp ****     Thread (void (*body)(void*), void* arg);
  17:src/../h/syscall_cpp.hpp ****     virtual ~Thread ();
  18:src/../h/syscall_cpp.hpp ****     int start ();
  19:src/../h/syscall_cpp.hpp ****     void join();
  20:src/../h/syscall_cpp.hpp ****     static void dispatch ();
  21:src/../h/syscall_cpp.hpp ****     static int sleep (time_t);
  22:src/../h/syscall_cpp.hpp ****     static void threadWrapper(void *);
  23:src/../h/syscall_cpp.hpp **** protected:
  24:src/../h/syscall_cpp.hpp ****     Thread ();
  25:src/../h/syscall_cpp.hpp ****     virtual void run () {}
  13              		.loc 1 25 18
  14              		.cfi_startproc
  15              	.LVL0:
  16 0000 130101FF 		addi	sp,sp,-16
  17              		.cfi_def_cfa_offset 16
  18 0004 23348100 		sd	s0,8(sp)
  19              		.cfi_offset 8, -8
  20 0008 13040101 		addi	s0,sp,16
  21              		.cfi_def_cfa 8, 0
  22              		.loc 1 25 26 is_stmt 0
  23 000c 03348100 		ld	s0,8(sp)
  24              		.cfi_restore 8
  25              		.cfi_def_cfa 2, 16
  26 0010 13010101 		addi	sp,sp,16
  27              		.cfi_def_cfa_offset 0
  28 0014 67800000 		jr	ra
  29              		.cfi_endproc
  30              	.LFE36:
  32              		.section	.text._ZN14PeriodicThread18periodicActivationEv,"axG",@progbits,_ZN14PeriodicThread18peri
  33              		.align	2
  34              		.weak	_ZN14PeriodicThread18periodicActivationEv
GAS LISTING /tmp/ccQnWgoU.s 			page 2


  36              	_ZN14PeriodicThread18periodicActivationEv:
  37              	.LFB37:
  26:src/../h/syscall_cpp.hpp **** private:
  27:src/../h/syscall_cpp.hpp ****     thread_t myHandle;
  28:src/../h/syscall_cpp.hpp **** };
  29:src/../h/syscall_cpp.hpp **** 
  30:src/../h/syscall_cpp.hpp **** class Semaphore{
  31:src/../h/syscall_cpp.hpp **** public:
  32:src/../h/syscall_cpp.hpp **** 
  33:src/../h/syscall_cpp.hpp ****     Semaphore (unsigned init = 1);
  34:src/../h/syscall_cpp.hpp ****     virtual ~Semaphore ();
  35:src/../h/syscall_cpp.hpp **** 
  36:src/../h/syscall_cpp.hpp ****     int wait();
  37:src/../h/syscall_cpp.hpp ****     int signal();
  38:src/../h/syscall_cpp.hpp **** 
  39:src/../h/syscall_cpp.hpp **** private:
  40:src/../h/syscall_cpp.hpp ****     sem_t myHandle;
  41:src/../h/syscall_cpp.hpp **** };
  42:src/../h/syscall_cpp.hpp **** 
  43:src/../h/syscall_cpp.hpp **** class PeriodicThread : public Thread {
  44:src/../h/syscall_cpp.hpp **** public:
  45:src/../h/syscall_cpp.hpp ****     static void wrapper(void*);
  46:src/../h/syscall_cpp.hpp ****     void terminate ();
  47:src/../h/syscall_cpp.hpp **** 
  48:src/../h/syscall_cpp.hpp **** protected:
  49:src/../h/syscall_cpp.hpp ****     PeriodicThread (time_t period);
  50:src/../h/syscall_cpp.hpp ****     virtual void periodicActivation() {}
  38              		.loc 1 50 18 is_stmt 1
  39              		.cfi_startproc
  40              	.LVL1:
  41 0000 130101FF 		addi	sp,sp,-16
  42              		.cfi_def_cfa_offset 16
  43 0004 23348100 		sd	s0,8(sp)
  44              		.cfi_offset 8, -8
  45 0008 13040101 		addi	s0,sp,16
  46              		.cfi_def_cfa 8, 0
  47              		.loc 1 50 40 is_stmt 0
  48 000c 03348100 		ld	s0,8(sp)
  49              		.cfi_restore 8
  50              		.cfi_def_cfa 2, 16
  51 0010 13010101 		addi	sp,sp,16
  52              		.cfi_def_cfa_offset 0
  53 0014 67800000 		jr	ra
  54              		.cfi_endproc
  55              	.LFE37:
  57              		.text
  58              		.align	2
  59              		.globl	_ZN6Thread13threadWrapperEPv
  61              	_ZN6Thread13threadWrapperEPv:
  62              	.LFB56:
  63              		.file 2 "src/syscall_cpp.cpp"
   1:src/syscall_cpp.cpp **** #include "../h/syscall_cpp.hpp"
   2:src/syscall_cpp.cpp **** #include "../h/syscall_c.h"
   3:src/syscall_cpp.cpp **** #include "../h/scheduler.hpp"
   4:src/syscall_cpp.cpp **** #include "../lib/console.h"
   5:src/syscall_cpp.cpp **** 
   6:src/syscall_cpp.cpp **** void* operator new(size_t size){
GAS LISTING /tmp/ccQnWgoU.s 			page 3


   7:src/syscall_cpp.cpp ****     return mem_alloc(size);
   8:src/syscall_cpp.cpp **** }
   9:src/syscall_cpp.cpp **** 
  10:src/syscall_cpp.cpp **** void* operator new[](size_t size){
  11:src/syscall_cpp.cpp ****     return mem_alloc(size);
  12:src/syscall_cpp.cpp **** }
  13:src/syscall_cpp.cpp **** 
  14:src/syscall_cpp.cpp **** void operator delete(void* ptr){
  15:src/syscall_cpp.cpp ****     mem_free(ptr);
  16:src/syscall_cpp.cpp **** }
  17:src/syscall_cpp.cpp **** 
  18:src/syscall_cpp.cpp **** void operator delete[](void* ptr){
  19:src/syscall_cpp.cpp ****     mem_free(ptr);
  20:src/syscall_cpp.cpp **** }
  21:src/syscall_cpp.cpp **** 
  22:src/syscall_cpp.cpp **** Thread::Thread(void (*body)(void *), void *arg) {
  23:src/syscall_cpp.cpp ****     myHandle = nullptr;
  24:src/syscall_cpp.cpp ****     thread_create(&myHandle, body, arg);
  25:src/syscall_cpp.cpp **** }
  26:src/syscall_cpp.cpp **** 
  27:src/syscall_cpp.cpp **** Thread::~Thread() {
  28:src/syscall_cpp.cpp ****     myHandle->set_finished(true);
  29:src/syscall_cpp.cpp ****     delete myHandle;
  30:src/syscall_cpp.cpp **** }
  31:src/syscall_cpp.cpp **** 
  32:src/syscall_cpp.cpp **** int Thread::start() {
  33:src/syscall_cpp.cpp ****     return 0;
  34:src/syscall_cpp.cpp **** }
  35:src/syscall_cpp.cpp **** 
  36:src/syscall_cpp.cpp **** void Thread::join() {
  37:src/syscall_cpp.cpp ****     if(myHandle) thread_join(myHandle);
  38:src/syscall_cpp.cpp **** }
  39:src/syscall_cpp.cpp **** 
  40:src/syscall_cpp.cpp **** void Thread::dispatch() {
  41:src/syscall_cpp.cpp ****     thread_dispatch();
  42:src/syscall_cpp.cpp **** }
  43:src/syscall_cpp.cpp **** 
  44:src/syscall_cpp.cpp **** int Thread::sleep(time_t time) {
  45:src/syscall_cpp.cpp ****     time_sleep(time);
  46:src/syscall_cpp.cpp ****     return 0;
  47:src/syscall_cpp.cpp **** }
  48:src/syscall_cpp.cpp **** 
  49:src/syscall_cpp.cpp **** Thread::Thread() {
  50:src/syscall_cpp.cpp ****     myHandle = nullptr;
  51:src/syscall_cpp.cpp ****     thread_create(&myHandle, Thread::threadWrapper, (void*)this);
  52:src/syscall_cpp.cpp **** }
  53:src/syscall_cpp.cpp **** 
  54:src/syscall_cpp.cpp **** void Thread::threadWrapper(void *thread) {
  64              		.loc 2 54 42 is_stmt 1
  65              		.cfi_startproc
  66              	.LVL2:
  67 0000 130101FF 		addi	sp,sp,-16
  68              		.cfi_def_cfa_offset 16
  69 0004 23341100 		sd	ra,8(sp)
  70 0008 23308100 		sd	s0,0(sp)
  71              		.cfi_offset 1, -8
  72              		.cfi_offset 8, -16
GAS LISTING /tmp/ccQnWgoU.s 			page 4


  73 000c 13040101 		addi	s0,sp,16
  74              		.cfi_def_cfa 8, 0
  55:src/syscall_cpp.cpp ****     ((Thread*)thread)->run();
  75              		.loc 2 55 5
  76              		.loc 2 55 28 is_stmt 0
  77 0010 83370500 		ld	a5,0(a0)
  78 0014 83B70701 		ld	a5,16(a5)
  79              		.loc 2 55 27
  80 0018 E7800700 		jalr	a5
  81              	.LVL3:
  56:src/syscall_cpp.cpp **** }
  82              		.loc 2 56 1
  83 001c 83308100 		ld	ra,8(sp)
  84              		.cfi_restore 1
  85 0020 03340100 		ld	s0,0(sp)
  86              		.cfi_restore 8
  87              		.cfi_def_cfa 2, 16
  88 0024 13010101 		addi	sp,sp,16
  89              		.cfi_def_cfa_offset 0
  90 0028 67800000 		jr	ra
  91              		.cfi_endproc
  92              	.LFE56:
  94              		.align	2
  95              		.globl	_ZN14PeriodicThread7wrapperEPv
  97              	_ZN14PeriodicThread7wrapperEPv:
  98              	.LFB66:
  57:src/syscall_cpp.cpp **** 
  58:src/syscall_cpp.cpp **** Semaphore::Semaphore(unsigned int init) {
  59:src/syscall_cpp.cpp ****     myHandle = nullptr;
  60:src/syscall_cpp.cpp ****     sem_open(&myHandle, init);
  61:src/syscall_cpp.cpp **** }
  62:src/syscall_cpp.cpp **** 
  63:src/syscall_cpp.cpp **** int Semaphore::wait() {
  64:src/syscall_cpp.cpp ****     return sem_wait(myHandle);
  65:src/syscall_cpp.cpp **** }
  66:src/syscall_cpp.cpp **** 
  67:src/syscall_cpp.cpp **** int Semaphore::signal() {
  68:src/syscall_cpp.cpp ****     return sem_signal(myHandle);
  69:src/syscall_cpp.cpp **** }
  70:src/syscall_cpp.cpp **** 
  71:src/syscall_cpp.cpp **** Semaphore::~Semaphore() {
  72:src/syscall_cpp.cpp ****     sem_close(myHandle);
  73:src/syscall_cpp.cpp **** }
  74:src/syscall_cpp.cpp **** 
  75:src/syscall_cpp.cpp **** void PeriodicThread::wrapper(void* arg) {
  99              		.loc 2 75 41 is_stmt 1
 100              		.cfi_startproc
 101              	.LVL4:
 102 002c 130101FE 		addi	sp,sp,-32
 103              		.cfi_def_cfa_offset 32
 104 0030 233C1100 		sd	ra,24(sp)
 105 0034 23388100 		sd	s0,16(sp)
 106 0038 23349100 		sd	s1,8(sp)
 107              		.cfi_offset 1, -8
 108              		.cfi_offset 8, -16
 109              		.cfi_offset 9, -24
 110 003c 13040102 		addi	s0,sp,32
GAS LISTING /tmp/ccQnWgoU.s 			page 5


 111              		.cfi_def_cfa 8, 0
 112 0040 93040500 		mv	s1,a0
  76:src/syscall_cpp.cpp ****     periodic_s* ps = (periodic_s*) arg;
 113              		.loc 2 76 5
 114              	.LVL5:
 115              	.L8:
  77:src/syscall_cpp.cpp **** 
  78:src/syscall_cpp.cpp ****     while(true){
 116              		.loc 2 78 5 discriminator 1
  79:src/syscall_cpp.cpp ****         time_sleep(ps->period);
 117              		.loc 2 79 9 discriminator 1
 118              		.loc 2 79 19 is_stmt 0 discriminator 1
 119 0044 03B58400 		ld	a0,8(s1)
 120 0048 97000000 		call	_Z10time_sleepm@plt
 120      E7800000 
 121              	.LVL6:
  80:src/syscall_cpp.cpp ****         ps->periodic_thread->periodicActivation();
 122              		.loc 2 80 9 is_stmt 1 discriminator 1
 123              		.loc 2 80 13 is_stmt 0 discriminator 1
 124 0050 03B50400 		ld	a0,0(s1)
 125              		.loc 2 80 49 discriminator 1
 126 0054 83370500 		ld	a5,0(a0)
 127 0058 83B78701 		ld	a5,24(a5)
 128              		.loc 2 80 48 discriminator 1
 129 005c E7800700 		jalr	a5
 130              	.LVL7:
  78:src/syscall_cpp.cpp ****         time_sleep(ps->period);
 131              		.loc 2 78 5 is_stmt 1 discriminator 1
 132 0060 6FF05FFE 		j	.L8
 133              		.cfi_endproc
 134              	.LFE66:
 136              		.align	2
 137              		.globl	_ZN9SemaphoreD2Ev
 139              	_ZN9SemaphoreD2Ev:
 140              	.LFB63:
  71:src/syscall_cpp.cpp ****     sem_close(myHandle);
 141              		.loc 2 71 1
 142              		.cfi_startproc
 143              		.cfi_personality 0x9b,DW.ref.__gxx_personality_v0
 144              		.cfi_lsda 0x1b,.LLSDA63
 145              	.LVL8:
 146 0064 130101FF 		addi	sp,sp,-16
 147              		.cfi_def_cfa_offset 16
 148 0068 23341100 		sd	ra,8(sp)
 149 006c 23308100 		sd	s0,0(sp)
 150              		.cfi_offset 1, -8
 151              		.cfi_offset 8, -16
 152 0070 13040101 		addi	s0,sp,16
 153              		.cfi_def_cfa 8, 0
 154              	.LBB11:
  71:src/syscall_cpp.cpp ****     sem_close(myHandle);
 155              		.loc 2 71 23 is_stmt 0
 156 0074 97070000 		lla	a5,_ZTV9Semaphore+16
 156      93870700 
 157 007c 2330F500 		sd	a5,0(a0)
  72:src/syscall_cpp.cpp **** }
 158              		.loc 2 72 5 is_stmt 1
GAS LISTING /tmp/ccQnWgoU.s 			page 6


  72:src/syscall_cpp.cpp **** }
 159              		.loc 2 72 14 is_stmt 0
 160 0080 03358500 		ld	a0,8(a0)
 161              	.LVL9:
 162 0084 97000000 		call	_Z9sem_closeP3sem@plt
 162      E7800000 
 163              	.LVL10:
 164              	.LBE11:
  73:src/syscall_cpp.cpp **** 
 165              		.loc 2 73 1
 166 008c 83308100 		ld	ra,8(sp)
 167              		.cfi_restore 1
 168 0090 03340100 		ld	s0,0(sp)
 169              		.cfi_restore 8
 170              		.cfi_def_cfa 2, 16
 171 0094 13010101 		addi	sp,sp,16
 172              		.cfi_def_cfa_offset 0
 173 0098 67800000 		jr	ra
 174              		.cfi_endproc
 175              	.LFE63:
 176              		.globl	__gxx_personality_v0
 177              		.section	.gcc_except_table,"a",@progbits
 178              	.LLSDA63:
 179 0000 FF       		.byte	0xff
 180 0001 FF       		.byte	0xff
 181 0002 03       		.byte	0x3
 182 0003 00       		.byte	0
 183              		.text
 185              		.globl	_ZN9SemaphoreD1Ev
 186              		.set	_ZN9SemaphoreD1Ev,_ZN9SemaphoreD2Ev
 187              		.align	2
 188              		.globl	_Znwm
 190              	_Znwm:
 191              	.LFB38:
   6:src/syscall_cpp.cpp ****     return mem_alloc(size);
 192              		.loc 2 6 32 is_stmt 1
 193              		.cfi_startproc
 194              	.LVL11:
 195 009c 130101FF 		addi	sp,sp,-16
 196              		.cfi_def_cfa_offset 16
 197 00a0 23341100 		sd	ra,8(sp)
 198 00a4 23308100 		sd	s0,0(sp)
 199              		.cfi_offset 1, -8
 200              		.cfi_offset 8, -16
 201 00a8 13040101 		addi	s0,sp,16
 202              		.cfi_def_cfa 8, 0
   7:src/syscall_cpp.cpp **** }
 203              		.loc 2 7 5
   7:src/syscall_cpp.cpp **** }
 204              		.loc 2 7 21 is_stmt 0
 205 00ac 97000000 		call	_Z9mem_allocm@plt
 205      E7800000 
 206              	.LVL12:
   8:src/syscall_cpp.cpp **** 
 207              		.loc 2 8 1
 208 00b4 83308100 		ld	ra,8(sp)
 209              		.cfi_restore 1
GAS LISTING /tmp/ccQnWgoU.s 			page 7


 210 00b8 03340100 		ld	s0,0(sp)
 211              		.cfi_restore 8
 212              		.cfi_def_cfa 2, 16
 213 00bc 13010101 		addi	sp,sp,16
 214              		.cfi_def_cfa_offset 0
 215 00c0 67800000 		jr	ra
 216              		.cfi_endproc
 217              	.LFE38:
 219              		.align	2
 220              		.globl	_Znam
 222              	_Znam:
 223              	.LFB39:
  10:src/syscall_cpp.cpp ****     return mem_alloc(size);
 224              		.loc 2 10 34 is_stmt 1
 225              		.cfi_startproc
 226              	.LVL13:
 227 00c4 130101FF 		addi	sp,sp,-16
 228              		.cfi_def_cfa_offset 16
 229 00c8 23341100 		sd	ra,8(sp)
 230 00cc 23308100 		sd	s0,0(sp)
 231              		.cfi_offset 1, -8
 232              		.cfi_offset 8, -16
 233 00d0 13040101 		addi	s0,sp,16
 234              		.cfi_def_cfa 8, 0
  11:src/syscall_cpp.cpp **** }
 235              		.loc 2 11 5
  11:src/syscall_cpp.cpp **** }
 236              		.loc 2 11 21 is_stmt 0
 237 00d4 97000000 		call	_Z9mem_allocm@plt
 237      E7800000 
 238              	.LVL14:
  12:src/syscall_cpp.cpp **** 
 239              		.loc 2 12 1
 240 00dc 83308100 		ld	ra,8(sp)
 241              		.cfi_restore 1
 242 00e0 03340100 		ld	s0,0(sp)
 243              		.cfi_restore 8
 244              		.cfi_def_cfa 2, 16
 245 00e4 13010101 		addi	sp,sp,16
 246              		.cfi_def_cfa_offset 0
 247 00e8 67800000 		jr	ra
 248              		.cfi_endproc
 249              	.LFE39:
 251              		.align	2
 252              		.globl	_ZdlPv
 254              	_ZdlPv:
 255              	.LFB40:
  14:src/syscall_cpp.cpp ****     mem_free(ptr);
 256              		.loc 2 14 32 is_stmt 1
 257              		.cfi_startproc
 258              	.LVL15:
 259 00ec 130101FF 		addi	sp,sp,-16
 260              		.cfi_def_cfa_offset 16
 261 00f0 23341100 		sd	ra,8(sp)
 262 00f4 23308100 		sd	s0,0(sp)
 263              		.cfi_offset 1, -8
 264              		.cfi_offset 8, -16
GAS LISTING /tmp/ccQnWgoU.s 			page 8


 265 00f8 13040101 		addi	s0,sp,16
 266              		.cfi_def_cfa 8, 0
  15:src/syscall_cpp.cpp **** }
 267              		.loc 2 15 5
  15:src/syscall_cpp.cpp **** }
 268              		.loc 2 15 13 is_stmt 0
 269 00fc 97000000 		call	_Z8mem_freePv@plt
 269      E7800000 
 270              	.LVL16:
  16:src/syscall_cpp.cpp **** 
 271              		.loc 2 16 1
 272 0104 83308100 		ld	ra,8(sp)
 273              		.cfi_restore 1
 274 0108 03340100 		ld	s0,0(sp)
 275              		.cfi_restore 8
 276              		.cfi_def_cfa 2, 16
 277 010c 13010101 		addi	sp,sp,16
 278              		.cfi_def_cfa_offset 0
 279 0110 67800000 		jr	ra
 280              		.cfi_endproc
 281              	.LFE40:
 283              		.align	2
 284              		.globl	_ZN9SemaphoreD0Ev
 286              	_ZN9SemaphoreD0Ev:
 287              	.LFB65:
  71:src/syscall_cpp.cpp ****     sem_close(myHandle);
 288              		.loc 2 71 1 is_stmt 1
 289              		.cfi_startproc
 290              	.LVL17:
 291 0114 130101FE 		addi	sp,sp,-32
 292              		.cfi_def_cfa_offset 32
 293 0118 233C1100 		sd	ra,24(sp)
 294 011c 23388100 		sd	s0,16(sp)
 295 0120 23349100 		sd	s1,8(sp)
 296              		.cfi_offset 1, -8
 297              		.cfi_offset 8, -16
 298              		.cfi_offset 9, -24
 299 0124 13040102 		addi	s0,sp,32
 300              		.cfi_def_cfa 8, 0
 301 0128 93040500 		mv	s1,a0
  73:src/syscall_cpp.cpp **** 
 302              		.loc 2 73 1 is_stmt 0
 303 012c 97000000 		call	_ZN9SemaphoreD1Ev
 303      E7800000 
 304              	.LVL18:
 305 0134 13850400 		mv	a0,s1
 306 0138 97000000 		call	_ZdlPv
 306      E7800000 
 307              	.LVL19:
 308 0140 83308101 		ld	ra,24(sp)
 309              		.cfi_restore 1
 310 0144 03340101 		ld	s0,16(sp)
 311              		.cfi_restore 8
 312              		.cfi_def_cfa 2, 32
 313 0148 83348100 		ld	s1,8(sp)
 314              		.cfi_restore 9
 315              	.LVL20:
GAS LISTING /tmp/ccQnWgoU.s 			page 9


 316 014c 13010102 		addi	sp,sp,32
 317              		.cfi_def_cfa_offset 0
 318 0150 67800000 		jr	ra
 319              		.cfi_endproc
 320              	.LFE65:
 322              		.align	2
 323              		.globl	_ZdaPv
 325              	_ZdaPv:
 326              	.LFB41:
  18:src/syscall_cpp.cpp ****     mem_free(ptr);
 327              		.loc 2 18 34 is_stmt 1
 328              		.cfi_startproc
 329              	.LVL21:
 330 0154 130101FF 		addi	sp,sp,-16
 331              		.cfi_def_cfa_offset 16
 332 0158 23341100 		sd	ra,8(sp)
 333 015c 23308100 		sd	s0,0(sp)
 334              		.cfi_offset 1, -8
 335              		.cfi_offset 8, -16
 336 0160 13040101 		addi	s0,sp,16
 337              		.cfi_def_cfa 8, 0
  19:src/syscall_cpp.cpp **** }
 338              		.loc 2 19 5
  19:src/syscall_cpp.cpp **** }
 339              		.loc 2 19 13 is_stmt 0
 340 0164 97000000 		call	_Z8mem_freePv@plt
 340      E7800000 
 341              	.LVL22:
  20:src/syscall_cpp.cpp **** 
 342              		.loc 2 20 1
 343 016c 83308100 		ld	ra,8(sp)
 344              		.cfi_restore 1
 345 0170 03340100 		ld	s0,0(sp)
 346              		.cfi_restore 8
 347              		.cfi_def_cfa 2, 16
 348 0174 13010101 		addi	sp,sp,16
 349              		.cfi_def_cfa_offset 0
 350 0178 67800000 		jr	ra
 351              		.cfi_endproc
 352              	.LFE41:
 354              		.align	2
 355              		.globl	_ZN6ThreadD2Ev
 357              	_ZN6ThreadD2Ev:
 358              	.LFB46:
  27:src/syscall_cpp.cpp ****     myHandle->set_finished(true);
 359              		.loc 2 27 1 is_stmt 1
 360              		.cfi_startproc
 361              		.cfi_personality 0x9b,DW.ref.__gxx_personality_v0
 362              		.cfi_lsda 0x1b,.LLSDA46
 363              	.LVL23:
 364 017c 130101FE 		addi	sp,sp,-32
 365              		.cfi_def_cfa_offset 32
 366 0180 233C1100 		sd	ra,24(sp)
 367 0184 23388100 		sd	s0,16(sp)
 368 0188 23349100 		sd	s1,8(sp)
 369              		.cfi_offset 1, -8
 370              		.cfi_offset 8, -16
GAS LISTING /tmp/ccQnWgoU.s 			page 10


 371              		.cfi_offset 9, -24
 372 018c 13040102 		addi	s0,sp,32
 373              		.cfi_def_cfa 8, 0
 374              	.LBB12:
  27:src/syscall_cpp.cpp ****     myHandle->set_finished(true);
 375              		.loc 2 27 17 is_stmt 0
 376 0190 97070000 		lla	a5,_ZTV6Thread+16
 376      93870700 
 377 0198 2330F500 		sd	a5,0(a0)
  28:src/syscall_cpp.cpp ****     delete myHandle;
 378              		.loc 2 28 5 is_stmt 1
 379 019c 83378500 		ld	a5,8(a0)
 380              	.LVL24:
 381              	.LBB13:
 382              	.LBB14:
 383              		.file 3 "src/../h/../h/tcb.hpp"
   1:src/../h/../h/tcb.hpp **** #ifndef PROJECT_BASE_V1_1_TCB_HPP
   2:src/../h/../h/tcb.hpp **** #define PROJECT_BASE_V1_1_TCB_HPP
   3:src/../h/../h/tcb.hpp **** 
   4:src/../h/../h/tcb.hpp **** #include "../lib/hw.h"
   5:src/../h/../h/tcb.hpp **** #include "../h/scheduler.hpp"
   6:src/../h/../h/tcb.hpp **** #include "../h/riscv.hpp"
   7:src/../h/../h/tcb.hpp **** 
   8:src/../h/../h/tcb.hpp **** class TCB{
   9:src/../h/../h/tcb.hpp **** private:
  10:src/../h/../h/tcb.hpp ****     struct Context{
  11:src/../h/../h/tcb.hpp ****         uint64 sp, ra;
  12:src/../h/../h/tcb.hpp ****     };
  13:src/../h/../h/tcb.hpp **** 
  14:src/../h/../h/tcb.hpp ****     using Body = void(*)(void*);
  15:src/../h/../h/tcb.hpp ****     Body body;
  16:src/../h/../h/tcb.hpp ****     void* args;
  17:src/../h/../h/tcb.hpp **** 
  18:src/../h/../h/tcb.hpp ****     uint64* stack;
  19:src/../h/../h/tcb.hpp ****     Context context;
  20:src/../h/../h/tcb.hpp **** 
  21:src/../h/../h/tcb.hpp ****     time_t time_slice;
  22:src/../h/../h/tcb.hpp ****     int id;
  23:src/../h/../h/tcb.hpp ****     bool finished, blocked, sleeping, main, user_mode;
  24:src/../h/../h/tcb.hpp **** 
  25:src/../h/../h/tcb.hpp ****     TCB(Body body, void* args, uint64 time_slice, uint64* stack) :
  26:src/../h/../h/tcb.hpp ****         body(body),
  27:src/../h/../h/tcb.hpp ****         args(args),
  28:src/../h/../h/tcb.hpp ****         stack(body != nullptr ? stack : nullptr),
  29:src/../h/../h/tcb.hpp ****         context({(uint64) &thread_wrapper, stack != nullptr ? reinterpret_cast<uint64>(&stack[DEFAU
  30:src/../h/../h/tcb.hpp ****         time_slice(time_slice),
  31:src/../h/../h/tcb.hpp ****         id(ID),
  32:src/../h/../h/tcb.hpp ****         finished(false),
  33:src/../h/../h/tcb.hpp ****         blocked(false),
  34:src/../h/../h/tcb.hpp ****         sleeping(false),
  35:src/../h/../h/tcb.hpp ****         main(body == nullptr){
  36:src/../h/../h/tcb.hpp **** 
  37:src/../h/../h/tcb.hpp ****         if(body != nullptr){
  38:src/../h/../h/tcb.hpp ****             Scheduler::put(this);
  39:src/../h/../h/tcb.hpp ****         }
  40:src/../h/../h/tcb.hpp **** 
  41:src/../h/../h/tcb.hpp ****     }
GAS LISTING /tmp/ccQnWgoU.s 			page 11


  42:src/../h/../h/tcb.hpp **** 
  43:src/../h/../h/tcb.hpp ****     static time_t time_slice_counter;
  44:src/../h/../h/tcb.hpp **** 
  45:src/../h/../h/tcb.hpp ****     static void contextSwitch(Context* old_context, Context* new_context);
  46:src/../h/../h/tcb.hpp ****     static void thread_wrapper();
  47:src/../h/../h/tcb.hpp ****     static void dispatch();
  48:src/../h/../h/tcb.hpp **** public:
  49:src/../h/../h/tcb.hpp ****     friend class RiscV;
  50:src/../h/../h/tcb.hpp ****     friend class sem;
  51:src/../h/../h/tcb.hpp **** 
  52:src/../h/../h/tcb.hpp ****     static int ID;
  53:src/../h/../h/tcb.hpp ****     static TCB* running;
  54:src/../h/../h/tcb.hpp ****     static TCB* create_thread(TCB** handle, Body body, void* args, uint64* stack);
  55:src/../h/../h/tcb.hpp ****     static void yield();
  56:src/../h/../h/tcb.hpp ****     static void join(TCB*);
  57:src/../h/../h/tcb.hpp ****     static void outputThreadBody(void*);
  58:src/../h/../h/tcb.hpp **** 
  59:src/../h/../h/tcb.hpp **** //    void start(){
  60:src/../h/../h/tcb.hpp **** //        Scheduler::put(this);
  61:src/../h/../h/tcb.hpp **** //    }
  62:src/../h/../h/tcb.hpp **** 
  63:src/../h/../h/tcb.hpp ****     bool is_finished() const { return finished; }
  64:src/../h/../h/tcb.hpp ****     void set_finished(bool f) { this->finished = f; }
 384              		.loc 3 64 33
 385              		.loc 3 64 48 is_stmt 0
 386 01a0 13071000 		li	a4,1
 387 01a4 238AE702 		sb	a4,52(a5)
 388              	.LVL25:
 389              	.LBE14:
 390              	.LBE13:
  29:src/syscall_cpp.cpp **** }
 391              		.loc 2 29 5 is_stmt 1
  29:src/syscall_cpp.cpp **** }
 392              		.loc 2 29 12 is_stmt 0
 393 01a8 83348500 		ld	s1,8(a0)
  29:src/syscall_cpp.cpp **** }
 394              		.loc 2 29 20
 395 01ac 63800402 		beqz	s1,.L22
 396              	.LVL26:
 397              	.LBB15:
 398              	.LBB16:
  65:src/../h/../h/tcb.hpp **** 
  66:src/../h/../h/tcb.hpp ****     bool is_sleeping() const { return sleeping; }
  67:src/../h/../h/tcb.hpp ****     void set_sleeping(bool s) { this->sleeping = s; }
  68:src/../h/../h/tcb.hpp **** 
  69:src/../h/../h/tcb.hpp ****     bool is_blocked() const { return blocked; }
  70:src/../h/../h/tcb.hpp ****     void set_blocked(bool b) { this->blocked = b; }
  71:src/../h/../h/tcb.hpp **** 
  72:src/../h/../h/tcb.hpp ****     bool is_main() const { return main; }
  73:src/../h/../h/tcb.hpp ****     int get_id() const { return id; }
  74:src/../h/../h/tcb.hpp ****     uint64 get_time_slice() const { return time_slice; }
  75:src/../h/../h/tcb.hpp **** 
  76:src/../h/../h/tcb.hpp ****     bool get_user_mode () const { return user_mode; }
  77:src/../h/../h/tcb.hpp ****     void set_user_mode (bool value) { user_mode = value; }
  78:src/../h/../h/tcb.hpp **** 
  79:src/../h/../h/tcb.hpp ****     ~TCB(){
  80:src/../h/../h/tcb.hpp ****         delete[] stack;
GAS LISTING /tmp/ccQnWgoU.s 			page 12


 399              		.loc 3 80 9 is_stmt 1
 400              		.loc 3 80 18 is_stmt 0
 401 01b0 03B50401 		ld	a0,16(s1)
 402              	.LVL27:
 403              		.loc 3 80 23
 404 01b4 63060500 		beqz	a0,.L24
 405              		.loc 3 80 18
 406 01b8 97000000 		call	_ZdaPv
 406      E7800000 
 407              	.LVL28:
 408              	.L24:
 409              	.LBE16:
 410              	.LBE15:
  29:src/syscall_cpp.cpp **** }
 411              		.loc 2 29 12
 412 01c0 13850400 		mv	a0,s1
 413 01c4 97000000 		call	_ZdlPv
 413      E7800000 
 414              	.LVL29:
 415              	.L22:
 416              	.LBE12:
  30:src/syscall_cpp.cpp **** 
 417              		.loc 2 30 1
 418 01cc 83308101 		ld	ra,24(sp)
 419              		.cfi_restore 1
 420 01d0 03340101 		ld	s0,16(sp)
 421              		.cfi_restore 8
 422              		.cfi_def_cfa 2, 32
 423 01d4 83348100 		ld	s1,8(sp)
 424              		.cfi_restore 9
 425 01d8 13010102 		addi	sp,sp,32
 426              		.cfi_def_cfa_offset 0
 427 01dc 67800000 		jr	ra
 428              		.cfi_endproc
 429              	.LFE46:
 430              		.section	.gcc_except_table
 431              	.LLSDA46:
 432 0004 FF       		.byte	0xff
 433 0005 FF       		.byte	0xff
 434 0006 03       		.byte	0x3
 435 0007 00       		.byte	0
 436              		.text
 438              		.globl	_ZN6ThreadD1Ev
 439              		.set	_ZN6ThreadD1Ev,_ZN6ThreadD2Ev
 440              		.align	2
 441              		.globl	_ZN6ThreadD0Ev
 443              	_ZN6ThreadD0Ev:
 444              	.LFB48:
  27:src/syscall_cpp.cpp ****     myHandle->set_finished(true);
 445              		.loc 2 27 1 is_stmt 1
 446              		.cfi_startproc
 447              	.LVL30:
 448 01e0 130101FE 		addi	sp,sp,-32
 449              		.cfi_def_cfa_offset 32
 450 01e4 233C1100 		sd	ra,24(sp)
 451 01e8 23388100 		sd	s0,16(sp)
 452 01ec 23349100 		sd	s1,8(sp)
GAS LISTING /tmp/ccQnWgoU.s 			page 13


 453              		.cfi_offset 1, -8
 454              		.cfi_offset 8, -16
 455              		.cfi_offset 9, -24
 456 01f0 13040102 		addi	s0,sp,32
 457              		.cfi_def_cfa 8, 0
 458 01f4 93040500 		mv	s1,a0
  30:src/syscall_cpp.cpp **** 
 459              		.loc 2 30 1 is_stmt 0
 460 01f8 97000000 		call	_ZN6ThreadD1Ev
 460      E7800000 
 461              	.LVL31:
 462 0200 13850400 		mv	a0,s1
 463 0204 97000000 		call	_ZdlPv
 463      E7800000 
 464              	.LVL32:
 465 020c 83308101 		ld	ra,24(sp)
 466              		.cfi_restore 1
 467 0210 03340101 		ld	s0,16(sp)
 468              		.cfi_restore 8
 469              		.cfi_def_cfa 2, 32
 470 0214 83348100 		ld	s1,8(sp)
 471              		.cfi_restore 9
 472              	.LVL33:
 473 0218 13010102 		addi	sp,sp,32
 474              		.cfi_def_cfa_offset 0
 475 021c 67800000 		jr	ra
 476              		.cfi_endproc
 477              	.LFE48:
 479              		.section	.text._ZN14PeriodicThreadD2Ev,"axG",@progbits,_ZN14PeriodicThreadD5Ev,comdat
 480              		.align	2
 481              		.weak	_ZN14PeriodicThreadD2Ev
 483              	_ZN14PeriodicThreadD2Ev:
 484              	.LFB74:
  43:src/../h/syscall_cpp.hpp **** public:
 485              		.loc 1 43 7 is_stmt 1
 486              		.cfi_startproc
 487              	.LVL34:
 488 0000 130101FF 		addi	sp,sp,-16
 489              		.cfi_def_cfa_offset 16
 490 0004 23341100 		sd	ra,8(sp)
 491 0008 23308100 		sd	s0,0(sp)
 492              		.cfi_offset 1, -8
 493              		.cfi_offset 8, -16
 494 000c 13040101 		addi	s0,sp,16
 495              		.cfi_def_cfa 8, 0
 496              	.LBB17:
  43:src/../h/syscall_cpp.hpp **** public:
 497              		.loc 1 43 7 is_stmt 0
 498 0010 97070000 		lla	a5,_ZTV14PeriodicThread+16
 498      93870700 
 499 0018 2330F500 		sd	a5,0(a0)
 500 001c 97000000 		call	_ZN6ThreadD2Ev
 500      E7800000 
 501              	.LVL35:
 502              	.LBE17:
 503 0024 83308100 		ld	ra,8(sp)
 504              		.cfi_restore 1
GAS LISTING /tmp/ccQnWgoU.s 			page 14


 505 0028 03340100 		ld	s0,0(sp)
 506              		.cfi_restore 8
 507              		.cfi_def_cfa 2, 16
 508 002c 13010101 		addi	sp,sp,16
 509              		.cfi_def_cfa_offset 0
 510 0030 67800000 		jr	ra
 511              		.cfi_endproc
 512              	.LFE74:
 514              		.weak	_ZN14PeriodicThreadD1Ev
 515              		.set	_ZN14PeriodicThreadD1Ev,_ZN14PeriodicThreadD2Ev
 516              		.section	.text._ZN14PeriodicThreadD0Ev,"axG",@progbits,_ZN14PeriodicThreadD5Ev,comdat
 517              		.align	2
 518              		.weak	_ZN14PeriodicThreadD0Ev
 520              	_ZN14PeriodicThreadD0Ev:
 521              	.LFB76:
  43:src/../h/syscall_cpp.hpp **** public:
 522              		.loc 1 43 7 is_stmt 1
 523              		.cfi_startproc
 524              	.LVL36:
 525 0000 130101FE 		addi	sp,sp,-32
 526              		.cfi_def_cfa_offset 32
 527 0004 233C1100 		sd	ra,24(sp)
 528 0008 23388100 		sd	s0,16(sp)
 529 000c 23349100 		sd	s1,8(sp)
 530              		.cfi_offset 1, -8
 531              		.cfi_offset 8, -16
 532              		.cfi_offset 9, -24
 533 0010 13040102 		addi	s0,sp,32
 534              		.cfi_def_cfa 8, 0
 535 0014 93040500 		mv	s1,a0
 536              	.LVL37:
 537              	.LBB18:
 538              	.LBB19:
  43:src/../h/syscall_cpp.hpp **** public:
 539              		.loc 1 43 7 is_stmt 0
 540 0018 97070000 		lla	a5,_ZTV14PeriodicThread+16
 540      93870700 
 541 0020 2330F500 		sd	a5,0(a0)
 542 0024 97000000 		call	_ZN6ThreadD2Ev
 542      E7800000 
 543              	.LVL38:
 544              	.LBE19:
 545              	.LBE18:
 546 002c 13850400 		mv	a0,s1
 547 0030 97000000 		call	_ZdlPv
 547      E7800000 
 548              	.LVL39:
 549 0038 83308101 		ld	ra,24(sp)
 550              		.cfi_restore 1
 551 003c 03340101 		ld	s0,16(sp)
 552              		.cfi_restore 8
 553              		.cfi_def_cfa 2, 32
 554 0040 83348100 		ld	s1,8(sp)
 555              		.cfi_restore 9
 556              	.LVL40:
 557 0044 13010102 		addi	sp,sp,32
 558              		.cfi_def_cfa_offset 0
GAS LISTING /tmp/ccQnWgoU.s 			page 15


 559 0048 67800000 		jr	ra
 560              		.cfi_endproc
 561              	.LFE76:
 563              		.text
 564              		.align	2
 565              		.globl	_ZN6ThreadC2EPFvPvES0_
 567              	_ZN6ThreadC2EPFvPvES0_:
 568              	.LFB43:
  22:src/syscall_cpp.cpp ****     myHandle = nullptr;
 569              		.loc 2 22 1 is_stmt 1
 570              		.cfi_startproc
 571              	.LVL41:
 572 0220 130101FF 		addi	sp,sp,-16
 573              		.cfi_def_cfa_offset 16
 574 0224 23341100 		sd	ra,8(sp)
 575 0228 23308100 		sd	s0,0(sp)
 576              		.cfi_offset 1, -8
 577              		.cfi_offset 8, -16
 578 022c 13040101 		addi	s0,sp,16
 579              		.cfi_def_cfa 8, 0
 580              	.LBB20:
  22:src/syscall_cpp.cpp ****     myHandle = nullptr;
 581              		.loc 2 22 47 is_stmt 0
 582 0230 97070000 		lla	a5,_ZTV6Thread+16
 582      93870700 
 583 0238 2330F500 		sd	a5,0(a0)
  23:src/syscall_cpp.cpp ****     thread_create(&myHandle, body, arg);
 584              		.loc 2 23 5 is_stmt 1
  23:src/syscall_cpp.cpp ****     thread_create(&myHandle, body, arg);
 585              		.loc 2 23 14 is_stmt 0
 586 023c 23340500 		sd	zero,8(a0)
  24:src/syscall_cpp.cpp **** }
 587              		.loc 2 24 5 is_stmt 1
  24:src/syscall_cpp.cpp **** }
 588              		.loc 2 24 18 is_stmt 0
 589 0240 13058500 		addi	a0,a0,8
 590              	.LVL42:
 591 0244 97000000 		call	_Z13thread_createPP3TCBPFvPvES2_@plt
 591      E7800000 
 592              	.LVL43:
 593              	.LBE20:
  25:src/syscall_cpp.cpp **** 
 594              		.loc 2 25 1
 595 024c 83308100 		ld	ra,8(sp)
 596              		.cfi_restore 1
 597 0250 03340100 		ld	s0,0(sp)
 598              		.cfi_restore 8
 599              		.cfi_def_cfa 2, 16
 600 0254 13010101 		addi	sp,sp,16
 601              		.cfi_def_cfa_offset 0
 602 0258 67800000 		jr	ra
 603              		.cfi_endproc
 604              	.LFE43:
 606              		.globl	_ZN6ThreadC1EPFvPvES0_
 607              		.set	_ZN6ThreadC1EPFvPvES0_,_ZN6ThreadC2EPFvPvES0_
 608              		.align	2
 609              		.globl	_ZN6Thread5startEv
GAS LISTING /tmp/ccQnWgoU.s 			page 16


 611              	_ZN6Thread5startEv:
 612              	.LFB49:
  32:src/syscall_cpp.cpp ****     return 0;
 613              		.loc 2 32 21 is_stmt 1
 614              		.cfi_startproc
 615              	.LVL44:
 616 025c 130101FF 		addi	sp,sp,-16
 617              		.cfi_def_cfa_offset 16
 618 0260 23348100 		sd	s0,8(sp)
 619              		.cfi_offset 8, -8
 620 0264 13040101 		addi	s0,sp,16
 621              		.cfi_def_cfa 8, 0
  33:src/syscall_cpp.cpp **** }
 622              		.loc 2 33 5
  34:src/syscall_cpp.cpp **** 
 623              		.loc 2 34 1 is_stmt 0
 624 0268 13050000 		li	a0,0
 625              	.LVL45:
 626 026c 03348100 		ld	s0,8(sp)
 627              		.cfi_restore 8
 628              		.cfi_def_cfa 2, 16
 629 0270 13010101 		addi	sp,sp,16
 630              		.cfi_def_cfa_offset 0
 631 0274 67800000 		jr	ra
 632              		.cfi_endproc
 633              	.LFE49:
 635              		.align	2
 636              		.globl	_ZN6Thread4joinEv
 638              	_ZN6Thread4joinEv:
 639              	.LFB50:
  36:src/syscall_cpp.cpp ****     if(myHandle) thread_join(myHandle);
 640              		.loc 2 36 21 is_stmt 1
 641              		.cfi_startproc
 642              	.LVL46:
  37:src/syscall_cpp.cpp **** }
 643              		.loc 2 37 5
  37:src/syscall_cpp.cpp **** }
 644              		.loc 2 37 8 is_stmt 0
 645 0278 03358500 		ld	a0,8(a0)
 646              	.LVL47:
  37:src/syscall_cpp.cpp **** }
 647              		.loc 2 37 5
 648 027c 63060502 		beqz	a0,.L39
  36:src/syscall_cpp.cpp ****     if(myHandle) thread_join(myHandle);
 649              		.loc 2 36 21 discriminator 1
 650 0280 130101FF 		addi	sp,sp,-16
 651              		.cfi_def_cfa_offset 16
 652 0284 23341100 		sd	ra,8(sp)
 653 0288 23308100 		sd	s0,0(sp)
 654              		.cfi_offset 1, -8
 655              		.cfi_offset 8, -16
 656 028c 13040101 		addi	s0,sp,16
 657              		.cfi_def_cfa 8, 0
  37:src/syscall_cpp.cpp **** }
 658              		.loc 2 37 18 is_stmt 1 discriminator 1
  37:src/syscall_cpp.cpp **** }
 659              		.loc 2 37 29 is_stmt 0 discriminator 1
GAS LISTING /tmp/ccQnWgoU.s 			page 17


 660 0290 97000000 		call	_Z11thread_joinP3TCB@plt
 660      E7800000 
 661              	.LVL48:
  38:src/syscall_cpp.cpp **** 
 662              		.loc 2 38 1 discriminator 1
 663 0298 83308100 		ld	ra,8(sp)
 664              		.cfi_restore 1
 665 029c 03340100 		ld	s0,0(sp)
 666              		.cfi_restore 8
 667              		.cfi_def_cfa 2, 16
 668 02a0 13010101 		addi	sp,sp,16
 669              		.cfi_def_cfa_offset 0
 670 02a4 67800000 		jr	ra
 671              	.L39:
 672 02a8 67800000 		ret
 673              		.cfi_endproc
 674              	.LFE50:
 676              		.align	2
 677              		.globl	_ZN6Thread8dispatchEv
 679              	_ZN6Thread8dispatchEv:
 680              	.LFB51:
  40:src/syscall_cpp.cpp ****     thread_dispatch();
 681              		.loc 2 40 25 is_stmt 1
 682              		.cfi_startproc
 683 02ac 130101FF 		addi	sp,sp,-16
 684              		.cfi_def_cfa_offset 16
 685 02b0 23341100 		sd	ra,8(sp)
 686 02b4 23308100 		sd	s0,0(sp)
 687              		.cfi_offset 1, -8
 688              		.cfi_offset 8, -16
 689 02b8 13040101 		addi	s0,sp,16
 690              		.cfi_def_cfa 8, 0
  41:src/syscall_cpp.cpp **** }
 691              		.loc 2 41 5
  41:src/syscall_cpp.cpp **** }
 692              		.loc 2 41 20 is_stmt 0
 693 02bc 97000000 		call	_Z15thread_dispatchv@plt
 693      E7800000 
 694              	.LVL49:
  42:src/syscall_cpp.cpp **** 
 695              		.loc 2 42 1
 696 02c4 83308100 		ld	ra,8(sp)
 697              		.cfi_restore 1
 698 02c8 03340100 		ld	s0,0(sp)
 699              		.cfi_restore 8
 700              		.cfi_def_cfa 2, 16
 701 02cc 13010101 		addi	sp,sp,16
 702              		.cfi_def_cfa_offset 0
 703 02d0 67800000 		jr	ra
 704              		.cfi_endproc
 705              	.LFE51:
 707              		.align	2
 708              		.globl	_ZN6Thread5sleepEm
 710              	_ZN6Thread5sleepEm:
 711              	.LFB52:
  44:src/syscall_cpp.cpp ****     time_sleep(time);
 712              		.loc 2 44 32 is_stmt 1
GAS LISTING /tmp/ccQnWgoU.s 			page 18


 713              		.cfi_startproc
 714              	.LVL50:
 715 02d4 130101FF 		addi	sp,sp,-16
 716              		.cfi_def_cfa_offset 16
 717 02d8 23341100 		sd	ra,8(sp)
 718 02dc 23308100 		sd	s0,0(sp)
 719              		.cfi_offset 1, -8
 720              		.cfi_offset 8, -16
 721 02e0 13040101 		addi	s0,sp,16
 722              		.cfi_def_cfa 8, 0
  45:src/syscall_cpp.cpp ****     return 0;
 723              		.loc 2 45 5
  45:src/syscall_cpp.cpp ****     return 0;
 724              		.loc 2 45 15 is_stmt 0
 725 02e4 97000000 		call	_Z10time_sleepm@plt
 725      E7800000 
 726              	.LVL51:
  46:src/syscall_cpp.cpp **** }
 727              		.loc 2 46 5 is_stmt 1
  47:src/syscall_cpp.cpp **** 
 728              		.loc 2 47 1 is_stmt 0
 729 02ec 13050000 		li	a0,0
 730 02f0 83308100 		ld	ra,8(sp)
 731              		.cfi_restore 1
 732 02f4 03340100 		ld	s0,0(sp)
 733              		.cfi_restore 8
 734              		.cfi_def_cfa 2, 16
 735 02f8 13010101 		addi	sp,sp,16
 736              		.cfi_def_cfa_offset 0
 737 02fc 67800000 		jr	ra
 738              		.cfi_endproc
 739              	.LFE52:
 741              		.align	2
 742              		.globl	_ZN6ThreadC2Ev
 744              	_ZN6ThreadC2Ev:
 745              	.LFB54:
  49:src/syscall_cpp.cpp ****     myHandle = nullptr;
 746              		.loc 2 49 1 is_stmt 1
 747              		.cfi_startproc
 748              	.LVL52:
 749 0300 130101FF 		addi	sp,sp,-16
 750              		.cfi_def_cfa_offset 16
 751 0304 23341100 		sd	ra,8(sp)
 752 0308 23308100 		sd	s0,0(sp)
 753              		.cfi_offset 1, -8
 754              		.cfi_offset 8, -16
 755 030c 13040101 		addi	s0,sp,16
 756              		.cfi_def_cfa 8, 0
 757              	.LBB21:
  49:src/syscall_cpp.cpp ****     myHandle = nullptr;
 758              		.loc 2 49 16 is_stmt 0
 759 0310 97070000 		lla	a5,_ZTV6Thread+16
 759      93870700 
 760 0318 2330F500 		sd	a5,0(a0)
  50:src/syscall_cpp.cpp ****     thread_create(&myHandle, Thread::threadWrapper, (void*)this);
 761              		.loc 2 50 5 is_stmt 1
  50:src/syscall_cpp.cpp ****     thread_create(&myHandle, Thread::threadWrapper, (void*)this);
GAS LISTING /tmp/ccQnWgoU.s 			page 19


 762              		.loc 2 50 14 is_stmt 0
 763 031c 23340500 		sd	zero,8(a0)
  51:src/syscall_cpp.cpp **** }
 764              		.loc 2 51 5 is_stmt 1
  51:src/syscall_cpp.cpp **** }
 765              		.loc 2 51 18 is_stmt 0
 766 0320 13060500 		mv	a2,a0
 767 0324 97050000 		lla	a1,_ZN6Thread13threadWrapperEPv
 767      93850500 
 768 032c 13058500 		addi	a0,a0,8
 769              	.LVL53:
 770 0330 97000000 		call	_Z13thread_createPP3TCBPFvPvES2_@plt
 770      E7800000 
 771              	.LVL54:
 772              	.LBE21:
  52:src/syscall_cpp.cpp **** 
 773              		.loc 2 52 1
 774 0338 83308100 		ld	ra,8(sp)
 775              		.cfi_restore 1
 776 033c 03340100 		ld	s0,0(sp)
 777              		.cfi_restore 8
 778              		.cfi_def_cfa 2, 16
 779 0340 13010101 		addi	sp,sp,16
 780              		.cfi_def_cfa_offset 0
 781 0344 67800000 		jr	ra
 782              		.cfi_endproc
 783              	.LFE54:
 785              		.globl	_ZN6ThreadC1Ev
 786              		.set	_ZN6ThreadC1Ev,_ZN6ThreadC2Ev
 787              		.align	2
 788              		.globl	_ZN9SemaphoreC2Ej
 790              	_ZN9SemaphoreC2Ej:
 791              	.LFB58:
  58:src/syscall_cpp.cpp ****     myHandle = nullptr;
 792              		.loc 2 58 1 is_stmt 1
 793              		.cfi_startproc
 794              	.LVL55:
 795 0348 130101FF 		addi	sp,sp,-16
 796              		.cfi_def_cfa_offset 16
 797 034c 23341100 		sd	ra,8(sp)
 798 0350 23308100 		sd	s0,0(sp)
 799              		.cfi_offset 1, -8
 800              		.cfi_offset 8, -16
 801 0354 13040101 		addi	s0,sp,16
 802              		.cfi_def_cfa 8, 0
 803              	.LBB22:
  58:src/syscall_cpp.cpp ****     myHandle = nullptr;
 804              		.loc 2 58 39 is_stmt 0
 805 0358 97070000 		lla	a5,_ZTV9Semaphore+16
 805      93870700 
 806 0360 2330F500 		sd	a5,0(a0)
  59:src/syscall_cpp.cpp ****     sem_open(&myHandle, init);
 807              		.loc 2 59 5 is_stmt 1
  59:src/syscall_cpp.cpp ****     sem_open(&myHandle, init);
 808              		.loc 2 59 14 is_stmt 0
 809 0364 23340500 		sd	zero,8(a0)
  60:src/syscall_cpp.cpp **** }
GAS LISTING /tmp/ccQnWgoU.s 			page 20


 810              		.loc 2 60 5 is_stmt 1
  60:src/syscall_cpp.cpp **** }
 811              		.loc 2 60 13 is_stmt 0
 812 0368 13058500 		addi	a0,a0,8
 813              	.LVL56:
 814 036c 97000000 		call	_Z8sem_openPP3semj@plt
 814      E7800000 
 815              	.LVL57:
 816              	.LBE22:
  61:src/syscall_cpp.cpp **** 
 817              		.loc 2 61 1
 818 0374 83308100 		ld	ra,8(sp)
 819              		.cfi_restore 1
 820 0378 03340100 		ld	s0,0(sp)
 821              		.cfi_restore 8
 822              		.cfi_def_cfa 2, 16
 823 037c 13010101 		addi	sp,sp,16
 824              		.cfi_def_cfa_offset 0
 825 0380 67800000 		jr	ra
 826              		.cfi_endproc
 827              	.LFE58:
 829              		.globl	_ZN9SemaphoreC1Ej
 830              		.set	_ZN9SemaphoreC1Ej,_ZN9SemaphoreC2Ej
 831              		.align	2
 832              		.globl	_ZN9Semaphore4waitEv
 834              	_ZN9Semaphore4waitEv:
 835              	.LFB60:
  63:src/syscall_cpp.cpp ****     return sem_wait(myHandle);
 836              		.loc 2 63 23 is_stmt 1
 837              		.cfi_startproc
 838              	.LVL58:
 839 0384 130101FF 		addi	sp,sp,-16
 840              		.cfi_def_cfa_offset 16
 841 0388 23341100 		sd	ra,8(sp)
 842 038c 23308100 		sd	s0,0(sp)
 843              		.cfi_offset 1, -8
 844              		.cfi_offset 8, -16
 845 0390 13040101 		addi	s0,sp,16
 846              		.cfi_def_cfa 8, 0
  64:src/syscall_cpp.cpp **** }
 847              		.loc 2 64 5
  64:src/syscall_cpp.cpp **** }
 848              		.loc 2 64 20 is_stmt 0
 849 0394 03358500 		ld	a0,8(a0)
 850              	.LVL59:
 851 0398 97000000 		call	_Z8sem_waitP3sem@plt
 851      E7800000 
 852              	.LVL60:
  65:src/syscall_cpp.cpp **** 
 853              		.loc 2 65 1
 854 03a0 83308100 		ld	ra,8(sp)
 855              		.cfi_restore 1
 856 03a4 03340100 		ld	s0,0(sp)
 857              		.cfi_restore 8
 858              		.cfi_def_cfa 2, 16
 859 03a8 13010101 		addi	sp,sp,16
 860              		.cfi_def_cfa_offset 0
GAS LISTING /tmp/ccQnWgoU.s 			page 21


 861 03ac 67800000 		jr	ra
 862              		.cfi_endproc
 863              	.LFE60:
 865              		.align	2
 866              		.globl	_ZN9Semaphore6signalEv
 868              	_ZN9Semaphore6signalEv:
 869              	.LFB61:
  67:src/syscall_cpp.cpp ****     return sem_signal(myHandle);
 870              		.loc 2 67 25 is_stmt 1
 871              		.cfi_startproc
 872              	.LVL61:
 873 03b0 130101FF 		addi	sp,sp,-16
 874              		.cfi_def_cfa_offset 16
 875 03b4 23341100 		sd	ra,8(sp)
 876 03b8 23308100 		sd	s0,0(sp)
 877              		.cfi_offset 1, -8
 878              		.cfi_offset 8, -16
 879 03bc 13040101 		addi	s0,sp,16
 880              		.cfi_def_cfa 8, 0
  68:src/syscall_cpp.cpp **** }
 881              		.loc 2 68 5
  68:src/syscall_cpp.cpp **** }
 882              		.loc 2 68 22 is_stmt 0
 883 03c0 03358500 		ld	a0,8(a0)
 884              	.LVL62:
 885 03c4 97000000 		call	_Z10sem_signalP3sem@plt
 885      E7800000 
 886              	.LVL63:
  69:src/syscall_cpp.cpp **** 
 887              		.loc 2 69 1
 888 03cc 83308100 		ld	ra,8(sp)
 889              		.cfi_restore 1
 890 03d0 03340100 		ld	s0,0(sp)
 891              		.cfi_restore 8
 892              		.cfi_def_cfa 2, 16
 893 03d4 13010101 		addi	sp,sp,16
 894              		.cfi_def_cfa_offset 0
 895 03d8 67800000 		jr	ra
 896              		.cfi_endproc
 897              	.LFE61:
 899              		.align	2
 900              		.globl	_ZN14PeriodicThread9terminateEv
 902              	_ZN14PeriodicThread9terminateEv:
 903              	.LFB67:
  81:src/syscall_cpp.cpp ****     }
  82:src/syscall_cpp.cpp **** 
  83:src/syscall_cpp.cpp ****     MemoryAllocator::getInstance().free(ps);
  84:src/syscall_cpp.cpp **** }
  85:src/syscall_cpp.cpp **** 
  86:src/syscall_cpp.cpp **** void PeriodicThread::terminate() {
 904              		.loc 2 86 34 is_stmt 1
 905              		.cfi_startproc
 906              	.LVL64:
 907 03dc 130101FF 		addi	sp,sp,-16
 908              		.cfi_def_cfa_offset 16
 909 03e0 23341100 		sd	ra,8(sp)
 910 03e4 23308100 		sd	s0,0(sp)
GAS LISTING /tmp/ccQnWgoU.s 			page 22


 911              		.cfi_offset 1, -8
 912              		.cfi_offset 8, -16
 913 03e8 13040101 		addi	s0,sp,16
 914              		.cfi_def_cfa 8, 0
  87:src/syscall_cpp.cpp ****     thread_exit();
 915              		.loc 2 87 5
 916              		.loc 2 87 16 is_stmt 0
 917 03ec 97000000 		call	_Z11thread_exitv@plt
 917      E7800000 
 918              	.LVL65:
  88:src/syscall_cpp.cpp **** }
 919              		.loc 2 88 1
 920 03f4 83308100 		ld	ra,8(sp)
 921              		.cfi_restore 1
 922 03f8 03340100 		ld	s0,0(sp)
 923              		.cfi_restore 8
 924              		.cfi_def_cfa 2, 16
 925 03fc 13010101 		addi	sp,sp,16
 926              		.cfi_def_cfa_offset 0
 927 0400 67800000 		jr	ra
 928              		.cfi_endproc
 929              	.LFE67:
 931              		.align	2
 932              		.globl	_ZN14PeriodicThreadC2Em
 934              	_ZN14PeriodicThreadC2Em:
 935              	.LFB69:
  89:src/syscall_cpp.cpp **** 
  90:src/syscall_cpp.cpp **** PeriodicThread::PeriodicThread(time_t period) {
 936              		.loc 2 90 1 is_stmt 1
 937              		.cfi_startproc
 938              		.cfi_personality 0x9b,DW.ref.__gxx_personality_v0
 939              		.cfi_lsda 0x1b,.LLSDA69
 940              	.LVL66:
 941 0404 130101FD 		addi	sp,sp,-48
 942              		.cfi_def_cfa_offset 48
 943 0408 23341102 		sd	ra,40(sp)
 944 040c 23308102 		sd	s0,32(sp)
 945 0410 233C9100 		sd	s1,24(sp)
 946 0414 23382101 		sd	s2,16(sp)
 947              		.cfi_offset 1, -8
 948              		.cfi_offset 8, -16
 949              		.cfi_offset 9, -24
 950              		.cfi_offset 18, -32
 951 0418 13040103 		addi	s0,sp,48
 952              		.cfi_def_cfa 8, 0
 953 041c 93040500 		mv	s1,a0
 954 0420 13890500 		mv	s2,a1
 955              	.LEHB0:
 956              	.LBB23:
 957              		.loc 2 90 45 is_stmt 0
 958 0424 97000000 		call	_ZN6ThreadC2Ev
 958      E7800000 
 959              	.LVL67:
 960              	.LEHE0:
 961 042c 97070000 		lla	a5,_ZTV14PeriodicThread+16
 961      93870700 
 962 0434 23B0F400 		sd	a5,0(s1)
GAS LISTING /tmp/ccQnWgoU.s 			page 23


 963              	.LBB24:
  91:src/syscall_cpp.cpp ****     this->period = period;
 964              		.loc 2 91 5 is_stmt 1
 965              		.loc 2 91 18 is_stmt 0
 966 0438 23B82401 		sd	s2,16(s1)
  92:src/syscall_cpp.cpp **** 
  93:src/syscall_cpp.cpp ****     periodic_s* ps = (periodic_s*) MemoryAllocator::getInstance().mallocBytes(sizeof(periodic_s));
 967              		.loc 2 93 5 is_stmt 1
 968              	.LEHB1:
 969              		.loc 2 93 65 is_stmt 0
 970 043c 97000000 		call	_ZN15MemoryAllocator11getInstanceEv@plt
 970      E7800000 
 971              	.LVL68:
 972              		.loc 2 93 78
 973 0444 93050001 		li	a1,16
 974 0448 97000000 		call	_ZN15MemoryAllocator11mallocBytesEm@plt
 974      E7800000 
 975              	.LVL69:
 976              		.loc 2 93 78 discriminator 1
 977 0450 13060500 		mv	a2,a0
 978              	.LVL70:
  94:src/syscall_cpp.cpp ****     ps->periodic_thread = this;
 979              		.loc 2 94 5 is_stmt 1 discriminator 1
 980              		.loc 2 94 25 is_stmt 0 discriminator 1
 981 0454 23309500 		sd	s1,0(a0)
  95:src/syscall_cpp.cpp ****     ps->period = period;
 982              		.loc 2 95 5 is_stmt 1 discriminator 1
 983              		.loc 2 95 16 is_stmt 0 discriminator 1
 984 0458 23342501 		sd	s2,8(a0)
  96:src/syscall_cpp.cpp **** 
  97:src/syscall_cpp.cpp ****     Thread(PeriodicThread::wrapper, ps);
 985              		.loc 2 97 5 is_stmt 1 discriminator 1
 986 045c 97050000 		lla	a1,_ZN14PeriodicThread7wrapperEPv
 986      93850500 
 987 0464 130504FD 		addi	a0,s0,-48
 988              	.LVL71:
 989 0468 97000000 		call	_ZN6ThreadC1EPFvPvES0_
 989      E7800000 
 990              	.LVL72:
 991              	.LEHE1:
 992 0470 130504FD 		addi	a0,s0,-48
 993 0474 97000000 		call	_ZN6ThreadD1Ev
 993      E7800000 
 994              	.LVL73:
 995              	.LBE24:
 996              	.LBE23:
  98:src/syscall_cpp.cpp **** }
 997              		.loc 2 98 1 is_stmt 0 discriminator 1
 998 047c 83308102 		ld	ra,40(sp)
 999              		.cfi_remember_state
 1000              		.cfi_restore 1
 1001 0480 03340102 		ld	s0,32(sp)
 1002              		.cfi_restore 8
 1003              		.cfi_def_cfa 2, 48
 1004 0484 83348101 		ld	s1,24(sp)
 1005              		.cfi_restore 9
 1006              	.LVL74:
GAS LISTING /tmp/ccQnWgoU.s 			page 24


 1007 0488 03390101 		ld	s2,16(sp)
 1008              		.cfi_restore 18
 1009              	.LVL75:
 1010 048c 13010103 		addi	sp,sp,48
 1011              		.cfi_def_cfa_offset 0
 1012 0490 67800000 		jr	ra
 1013              	.LVL76:
 1014              	.L58:
 1015              		.cfi_restore_state
 1016 0494 13090500 		mv	s2,a0
 1017              	.LVL77:
 1018              	.LBB25:
  90:src/syscall_cpp.cpp ****     this->period = period;
 1019              		.loc 2 90 45
 1020 0498 13850400 		mv	a0,s1
 1021 049c 97000000 		call	_ZN6ThreadD2Ev
 1021      E7800000 
 1022              	.LVL78:
 1023 04a4 13050900 		mv	a0,s2
 1024              	.LEHB2:
 1025 04a8 97000000 		call	_Unwind_Resume@plt
 1025      E7800000 
 1026              	.LVL79:
 1027              	.LEHE2:
 1028              	.LBE25:
 1029              		.cfi_endproc
 1030              	.LFE69:
 1031              		.section	.gcc_except_table
 1032              	.LLSDA69:
 1033 0008 FF       		.byte	0xff
 1034 0009 FF       		.byte	0xff
 1035 000a 03       		.byte	0x3
 1036 000b 27       		.byte	0x27
 1037 000c 00000000 		.4byte	.LEHB0-.LFB69
 1038 0010 00000000 		.4byte	.LEHE0-.LEHB0
 1039 0014 00000000 		.4byte	0
 1040 0018 00       		.byte	0
 1041 0019 00000000 		.4byte	.LEHB1-.LFB69
 1042 001d 00000000 		.4byte	.LEHE1-.LEHB1
 1043 0021 00000000 		.4byte	.L58-.LFB69
 1044 0025 00       		.byte	0
 1045 0026 00000000 		.4byte	.LEHB2-.LFB69
 1046 002a 00000000 		.4byte	.LEHE2-.LEHB2
 1047 002e 00000000 		.4byte	0
 1048 0032 00       		.byte	0
 1049              		.text
 1051              		.globl	_ZN14PeriodicThreadC1Em
 1052              		.set	_ZN14PeriodicThreadC1Em,_ZN14PeriodicThreadC2Em
 1053              		.align	2
 1054              		.globl	_ZN7Console4getcEv
 1056              	_ZN7Console4getcEv:
 1057              	.LFB71:
  99:src/syscall_cpp.cpp **** 
 100:src/syscall_cpp.cpp **** char Console::getc() {
 1058              		.loc 2 100 22 is_stmt 1
 1059              		.cfi_startproc
 1060 04b0 130101FF 		addi	sp,sp,-16
GAS LISTING /tmp/ccQnWgoU.s 			page 25


 1061              		.cfi_def_cfa_offset 16
 1062 04b4 23341100 		sd	ra,8(sp)
 1063 04b8 23308100 		sd	s0,0(sp)
 1064              		.cfi_offset 1, -8
 1065              		.cfi_offset 8, -16
 1066 04bc 13040101 		addi	s0,sp,16
 1067              		.cfi_def_cfa 8, 0
 101:src/syscall_cpp.cpp ****     return __getc();
 1068              		.loc 2 101 5
 1069              		.loc 2 101 18 is_stmt 0
 1070 04c0 97000000 		call	__getc@plt
 1070      E7800000 
 1071              	.LVL80:
 102:src/syscall_cpp.cpp **** }
 1072              		.loc 2 102 1
 1073 04c8 83308100 		ld	ra,8(sp)
 1074              		.cfi_restore 1
 1075 04cc 03340100 		ld	s0,0(sp)
 1076              		.cfi_restore 8
 1077              		.cfi_def_cfa 2, 16
 1078 04d0 13010101 		addi	sp,sp,16
 1079              		.cfi_def_cfa_offset 0
 1080 04d4 67800000 		jr	ra
 1081              		.cfi_endproc
 1082              	.LFE71:
 1084              		.align	2
 1085              		.globl	_ZN7Console4putcEc
 1087              	_ZN7Console4putcEc:
 1088              	.LFB72:
 103:src/syscall_cpp.cpp **** 
 104:src/syscall_cpp.cpp **** void Console::putc(char c) {
 1089              		.loc 2 104 28 is_stmt 1
 1090              		.cfi_startproc
 1091              	.LVL81:
 1092 04d8 130101FF 		addi	sp,sp,-16
 1093              		.cfi_def_cfa_offset 16
 1094 04dc 23341100 		sd	ra,8(sp)
 1095 04e0 23308100 		sd	s0,0(sp)
 1096              		.cfi_offset 1, -8
 1097              		.cfi_offset 8, -16
 1098 04e4 13040101 		addi	s0,sp,16
 1099              		.cfi_def_cfa 8, 0
 105:src/syscall_cpp.cpp ****     __putc(c);
 1100              		.loc 2 105 5
 1101              		.loc 2 105 11 is_stmt 0
 1102 04e8 97000000 		call	__putc@plt
 1102      E7800000 
 1103              	.LVL82:
 106:src/syscall_cpp.cpp **** }
 1104              		.loc 2 106 1
 1105 04f0 83308100 		ld	ra,8(sp)
 1106              		.cfi_restore 1
 1107 04f4 03340100 		ld	s0,0(sp)
 1108              		.cfi_restore 8
 1109              		.cfi_def_cfa 2, 16
 1110 04f8 13010101 		addi	sp,sp,16
 1111              		.cfi_def_cfa_offset 0
GAS LISTING /tmp/ccQnWgoU.s 			page 26


 1112 04fc 67800000 		jr	ra
 1113              		.cfi_endproc
 1114              	.LFE72:
 1116              		.weak	_ZTV14PeriodicThread
 1117              		.section	.data.rel.ro.local._ZTV14PeriodicThread,"awG",@progbits,_ZTV14PeriodicThread,comdat
 1118              		.align	3
 1121              	_ZTV14PeriodicThread:
 1122 0000 00000000 		.dword	0
 1122      00000000 
 1123 0008 00000000 		.dword	0
 1123      00000000 
 1124 0010 00000000 		.dword	_ZN14PeriodicThreadD1Ev
 1124      00000000 
 1125 0018 00000000 		.dword	_ZN14PeriodicThreadD0Ev
 1125      00000000 
 1126 0020 00000000 		.dword	_ZN6Thread3runEv
 1126      00000000 
 1127 0028 00000000 		.dword	_ZN14PeriodicThread18periodicActivationEv
 1127      00000000 
 1128              		.weak	_ZTV6Thread
 1129              		.section	.data.rel.ro.local._ZTV6Thread,"awG",@progbits,_ZTV6Thread,comdat
 1130              		.align	3
 1133              	_ZTV6Thread:
 1134 0000 00000000 		.dword	0
 1134      00000000 
 1135 0008 00000000 		.dword	0
 1135      00000000 
 1136 0010 00000000 		.dword	_ZN6ThreadD1Ev
 1136      00000000 
 1137 0018 00000000 		.dword	_ZN6ThreadD0Ev
 1137      00000000 
 1138 0020 00000000 		.dword	_ZN6Thread3runEv
 1138      00000000 
 1139              		.weak	_ZTV9Semaphore
 1140              		.section	.data.rel.ro.local._ZTV9Semaphore,"awG",@progbits,_ZTV9Semaphore,comdat
 1141              		.align	3
 1144              	_ZTV9Semaphore:
 1145 0000 00000000 		.dword	0
 1145      00000000 
 1146 0008 00000000 		.dword	0
 1146      00000000 
 1147 0010 00000000 		.dword	_ZN9SemaphoreD1Ev
 1147      00000000 
 1148 0018 00000000 		.dword	_ZN9SemaphoreD0Ev
 1148      00000000 
 1149              		.text
 1150              	.Letext0:
 1151              		.file 4 "src/../h/../h/../lib/hw.h"
 1152              		.file 5 "src/../h/../h/MemoryAllocator.hpp"
 1153              		.file 6 "src/../h/../h/syscall_c.h"
 1154              		.file 7 "src/../h/../h/../h/../h/sem.hpp"
 1155              		.file 8 "src/../lib/console.h"
 6153              		.align	3
 6156              	DW.ref.__gxx_personality_v0:
 6157 0000 00000000 		.dword	__gxx_personality_v0
 6157      00000000 
 6158              		.ident	"GCC: (Ubuntu 9.4.0-1ubuntu1~20.04) 9.4.0"
GAS LISTING /tmp/ccQnWgoU.s 			page 27


 6159              		.section	.note.GNU-stack,"",@progbits
GAS LISTING /tmp/ccQnWgoU.s 			page 28

