GAS LISTING /tmp/ccwGWzEA.s 			page 1


   1              		.file	"syscall_cpp.cpp"
   2              		.option pic
   3              		.option norelax
   4              		.text
   5              	.Ltext0:
   6              		.section	.text._ZN6Thread3runEv,"axG",@progbits,_ZN6Thread3runEv,comdat
   7              		.align	2
   8              		.weak	_ZN6Thread3runEv
  10              	_ZN6Thread3runEv:
  11              	.LFB38:
  12              		.file 1 "src/../h/syscall_cpp.hpp"
   1:src/../h/syscall_cpp.hpp **** #ifndef PROJECT_BASE_V1_1_SYSCALL_CPP_HPP
   2:src/../h/syscall_cpp.hpp **** #define PROJECT_BASE_V1_1_SYSCALL_CPP_HPP
   3:src/../h/syscall_cpp.hpp **** 
   4:src/../h/syscall_cpp.hpp **** #include "../lib/mem.h"
   5:src/../h/syscall_cpp.hpp **** #include "../h/syscall_c.h"
   6:src/../h/syscall_cpp.hpp **** #include "../h/tcb.hpp"
   7:src/../h/syscall_cpp.hpp **** 
   8:src/../h/syscall_cpp.hpp **** void* operator new(size_t);
   9:src/../h/syscall_cpp.hpp **** void* operator new[](size_t);
  10:src/../h/syscall_cpp.hpp **** 
  11:src/../h/syscall_cpp.hpp **** void operator delete(void*);
  12:src/../h/syscall_cpp.hpp **** void operator delete[](void*);
  13:src/../h/syscall_cpp.hpp **** 
  14:src/../h/syscall_cpp.hpp **** class Thread {
  15:src/../h/syscall_cpp.hpp **** public:
  16:src/../h/syscall_cpp.hpp ****     Thread (void (*body)(void*), void* arg);
  17:src/../h/syscall_cpp.hpp ****     virtual ~Thread ();
  18:src/../h/syscall_cpp.hpp ****     int start ();
  19:src/../h/syscall_cpp.hpp ****     void join();
  20:src/../h/syscall_cpp.hpp ****     static void dispatch ();
  21:src/../h/syscall_cpp.hpp ****     static int sleep (time_t);
  22:src/../h/syscall_cpp.hpp ****     static void threadWrapper(void *);
  23:src/../h/syscall_cpp.hpp **** protected:
  24:src/../h/syscall_cpp.hpp ****     Thread ();
  25:src/../h/syscall_cpp.hpp ****     virtual void run () {}
  13              		.loc 1 25 18
  14              		.cfi_startproc
  15              	.LVL0:
  16 0000 130101FF 		addi	sp,sp,-16
  17              		.cfi_def_cfa_offset 16
  18 0004 23348100 		sd	s0,8(sp)
  19              		.cfi_offset 8, -8
  20 0008 13040101 		addi	s0,sp,16
  21              		.cfi_def_cfa 8, 0
  22              		.loc 1 25 26 is_stmt 0
  23 000c 03348100 		ld	s0,8(sp)
  24              		.cfi_restore 8
  25              		.cfi_def_cfa 2, 16
  26 0010 13010101 		addi	sp,sp,16
  27              		.cfi_def_cfa_offset 0
  28 0014 67800000 		jr	ra
  29              		.cfi_endproc
  30              	.LFE38:
  32              		.section	.text._ZN14PeriodicThread18periodicActivationEv,"axG",@progbits,_ZN14PeriodicThread18peri
  33              		.align	2
  34              		.weak	_ZN14PeriodicThread18periodicActivationEv
GAS LISTING /tmp/ccwGWzEA.s 			page 2


  36              	_ZN14PeriodicThread18periodicActivationEv:
  37              	.LFB39:
  26:src/../h/syscall_cpp.hpp **** private:
  27:src/../h/syscall_cpp.hpp ****     thread_t myHandle;
  28:src/../h/syscall_cpp.hpp **** };
  29:src/../h/syscall_cpp.hpp **** 
  30:src/../h/syscall_cpp.hpp **** class Semaphore{
  31:src/../h/syscall_cpp.hpp **** public:
  32:src/../h/syscall_cpp.hpp **** 
  33:src/../h/syscall_cpp.hpp ****     Semaphore (unsigned init = 1);
  34:src/../h/syscall_cpp.hpp ****     virtual ~Semaphore ();
  35:src/../h/syscall_cpp.hpp **** 
  36:src/../h/syscall_cpp.hpp ****     int wait();
  37:src/../h/syscall_cpp.hpp ****     int signal();
  38:src/../h/syscall_cpp.hpp **** 
  39:src/../h/syscall_cpp.hpp **** private:
  40:src/../h/syscall_cpp.hpp ****     sem_t myHandle;
  41:src/../h/syscall_cpp.hpp **** };
  42:src/../h/syscall_cpp.hpp **** 
  43:src/../h/syscall_cpp.hpp **** class PeriodicThread : public Thread {
  44:src/../h/syscall_cpp.hpp **** public:
  45:src/../h/syscall_cpp.hpp ****     static void wrapper(void*);
  46:src/../h/syscall_cpp.hpp ****     void terminate ();
  47:src/../h/syscall_cpp.hpp **** 
  48:src/../h/syscall_cpp.hpp **** protected:
  49:src/../h/syscall_cpp.hpp ****     PeriodicThread (time_t period);
  50:src/../h/syscall_cpp.hpp ****     virtual void periodicActivation() {}
  38              		.loc 1 50 18 is_stmt 1
  39              		.cfi_startproc
  40              	.LVL1:
  41 0000 130101FF 		addi	sp,sp,-16
  42              		.cfi_def_cfa_offset 16
  43 0004 23348100 		sd	s0,8(sp)
  44              		.cfi_offset 8, -8
  45 0008 13040101 		addi	s0,sp,16
  46              		.cfi_def_cfa 8, 0
  47              		.loc 1 50 40 is_stmt 0
  48 000c 03348100 		ld	s0,8(sp)
  49              		.cfi_restore 8
  50              		.cfi_def_cfa 2, 16
  51 0010 13010101 		addi	sp,sp,16
  52              		.cfi_def_cfa_offset 0
  53 0014 67800000 		jr	ra
  54              		.cfi_endproc
  55              	.LFE39:
  57              		.text
  58              		.align	2
  59              		.globl	_ZN6Thread13threadWrapperEPv
  61              	_ZN6Thread13threadWrapperEPv:
  62              	.LFB58:
  63              		.file 2 "src/syscall_cpp.cpp"
   1:src/syscall_cpp.cpp **** #include "../h/syscall_cpp.hpp"
   2:src/syscall_cpp.cpp **** #include "../h/syscall_c.h"
   3:src/syscall_cpp.cpp **** #include "../h/scheduler.hpp"
   4:src/syscall_cpp.cpp **** #include "../lib/console.h"
   5:src/syscall_cpp.cpp **** 
   6:src/syscall_cpp.cpp **** void* operator new(size_t size){
GAS LISTING /tmp/ccwGWzEA.s 			page 3


   7:src/syscall_cpp.cpp ****     return mem_alloc(size);
   8:src/syscall_cpp.cpp **** }
   9:src/syscall_cpp.cpp **** 
  10:src/syscall_cpp.cpp **** void* operator new[](size_t size){
  11:src/syscall_cpp.cpp ****     return mem_alloc(size);
  12:src/syscall_cpp.cpp **** }
  13:src/syscall_cpp.cpp **** 
  14:src/syscall_cpp.cpp **** void operator delete(void* ptr){
  15:src/syscall_cpp.cpp ****     mem_free(ptr);
  16:src/syscall_cpp.cpp **** }
  17:src/syscall_cpp.cpp **** 
  18:src/syscall_cpp.cpp **** void operator delete[](void* ptr){
  19:src/syscall_cpp.cpp ****     mem_free(ptr);
  20:src/syscall_cpp.cpp **** }
  21:src/syscall_cpp.cpp **** 
  22:src/syscall_cpp.cpp **** Thread::Thread(void (*body)(void *), void *arg) {
  23:src/syscall_cpp.cpp ****     myHandle = nullptr;
  24:src/syscall_cpp.cpp ****     thread_create(&myHandle, body, arg);
  25:src/syscall_cpp.cpp **** }
  26:src/syscall_cpp.cpp **** 
  27:src/syscall_cpp.cpp **** Thread::~Thread() {
  28:src/syscall_cpp.cpp ****     myHandle->set_finished(true);
  29:src/syscall_cpp.cpp ****     delete myHandle;
  30:src/syscall_cpp.cpp **** }
  31:src/syscall_cpp.cpp **** 
  32:src/syscall_cpp.cpp **** int Thread::start() {
  33:src/syscall_cpp.cpp ****     return 0;
  34:src/syscall_cpp.cpp **** }
  35:src/syscall_cpp.cpp **** 
  36:src/syscall_cpp.cpp **** void Thread::join() {
  37:src/syscall_cpp.cpp ****     if(myHandle) thread_join(myHandle);
  38:src/syscall_cpp.cpp **** }
  39:src/syscall_cpp.cpp **** 
  40:src/syscall_cpp.cpp **** void Thread::dispatch() {
  41:src/syscall_cpp.cpp ****     thread_dispatch();
  42:src/syscall_cpp.cpp **** }
  43:src/syscall_cpp.cpp **** 
  44:src/syscall_cpp.cpp **** int Thread::sleep(time_t time) {
  45:src/syscall_cpp.cpp ****     time_sleep(time);
  46:src/syscall_cpp.cpp ****     return 0;
  47:src/syscall_cpp.cpp **** }
  48:src/syscall_cpp.cpp **** 
  49:src/syscall_cpp.cpp **** Thread::Thread() {
  50:src/syscall_cpp.cpp ****     myHandle = nullptr;
  51:src/syscall_cpp.cpp ****     thread_create(&myHandle, Thread::threadWrapper, (void*)this);
  52:src/syscall_cpp.cpp **** }
  53:src/syscall_cpp.cpp **** 
  54:src/syscall_cpp.cpp **** void Thread::threadWrapper(void *thread) {
  64              		.loc 2 54 42 is_stmt 1
  65              		.cfi_startproc
  66              	.LVL2:
  67 0000 130101FF 		addi	sp,sp,-16
  68              		.cfi_def_cfa_offset 16
  69 0004 23341100 		sd	ra,8(sp)
  70 0008 23308100 		sd	s0,0(sp)
  71              		.cfi_offset 1, -8
  72              		.cfi_offset 8, -16
GAS LISTING /tmp/ccwGWzEA.s 			page 4


  73 000c 13040101 		addi	s0,sp,16
  74              		.cfi_def_cfa 8, 0
  55:src/syscall_cpp.cpp ****     ((Thread*)thread)->run();
  75              		.loc 2 55 5
  76              		.loc 2 55 28 is_stmt 0
  77 0010 83370500 		ld	a5,0(a0)
  78 0014 83B70701 		ld	a5,16(a5)
  79              		.loc 2 55 27
  80 0018 E7800700 		jalr	a5
  81              	.LVL3:
  56:src/syscall_cpp.cpp **** }
  82              		.loc 2 56 1
  83 001c 83308100 		ld	ra,8(sp)
  84              		.cfi_restore 1
  85 0020 03340100 		ld	s0,0(sp)
  86              		.cfi_restore 8
  87              		.cfi_def_cfa 2, 16
  88 0024 13010101 		addi	sp,sp,16
  89              		.cfi_def_cfa_offset 0
  90 0028 67800000 		jr	ra
  91              		.cfi_endproc
  92              	.LFE58:
  94              		.align	2
  95              		.globl	_ZN14PeriodicThread7wrapperEPv
  97              	_ZN14PeriodicThread7wrapperEPv:
  98              	.LFB68:
  57:src/syscall_cpp.cpp **** 
  58:src/syscall_cpp.cpp **** Semaphore::Semaphore(unsigned int init) {
  59:src/syscall_cpp.cpp ****     myHandle = nullptr;
  60:src/syscall_cpp.cpp ****     sem_open(&myHandle, init);
  61:src/syscall_cpp.cpp **** }
  62:src/syscall_cpp.cpp **** 
  63:src/syscall_cpp.cpp **** int Semaphore::wait() {
  64:src/syscall_cpp.cpp ****     return sem_wait(myHandle);
  65:src/syscall_cpp.cpp **** }
  66:src/syscall_cpp.cpp **** 
  67:src/syscall_cpp.cpp **** int Semaphore::signal() {
  68:src/syscall_cpp.cpp ****     return sem_signal(myHandle);
  69:src/syscall_cpp.cpp **** }
  70:src/syscall_cpp.cpp **** 
  71:src/syscall_cpp.cpp **** Semaphore::~Semaphore() {
  72:src/syscall_cpp.cpp ****     sem_close(myHandle);
  73:src/syscall_cpp.cpp **** }
  74:src/syscall_cpp.cpp **** 
  75:src/syscall_cpp.cpp **** void PeriodicThread::wrapper(void* arg) {
  99              		.loc 2 75 41 is_stmt 1
 100              		.cfi_startproc
 101              	.LVL4:
 102 002c 130101FE 		addi	sp,sp,-32
 103              		.cfi_def_cfa_offset 32
 104 0030 233C1100 		sd	ra,24(sp)
 105 0034 23388100 		sd	s0,16(sp)
 106 0038 23349100 		sd	s1,8(sp)
 107              		.cfi_offset 1, -8
 108              		.cfi_offset 8, -16
 109              		.cfi_offset 9, -24
 110 003c 13040102 		addi	s0,sp,32
GAS LISTING /tmp/ccwGWzEA.s 			page 5


 111              		.cfi_def_cfa 8, 0
 112 0040 93040500 		mv	s1,a0
  76:src/syscall_cpp.cpp ****     periodic_s* ps = (periodic_s*) arg;
 113              		.loc 2 76 5
 114              	.LVL5:
 115              	.L8:
  77:src/syscall_cpp.cpp **** 
  78:src/syscall_cpp.cpp ****     while(true){
 116              		.loc 2 78 5 discriminator 1
  79:src/syscall_cpp.cpp ****         time_sleep(ps->period);
 117              		.loc 2 79 9 discriminator 1
 118              		.loc 2 79 19 is_stmt 0 discriminator 1
 119 0044 03B58400 		ld	a0,8(s1)
 120 0048 97000000 		call	_Z10time_sleepm@plt
 120      E7800000 
 121              	.LVL6:
  80:src/syscall_cpp.cpp ****         ps->periodic_thread->periodicActivation();
 122              		.loc 2 80 9 is_stmt 1 discriminator 1
 123              		.loc 2 80 13 is_stmt 0 discriminator 1
 124 0050 03B50400 		ld	a0,0(s1)
 125              		.loc 2 80 49 discriminator 1
 126 0054 83370500 		ld	a5,0(a0)
 127 0058 83B78701 		ld	a5,24(a5)
 128              		.loc 2 80 48 discriminator 1
 129 005c E7800700 		jalr	a5
 130              	.LVL7:
  78:src/syscall_cpp.cpp ****         time_sleep(ps->period);
 131              		.loc 2 78 5 is_stmt 1 discriminator 1
 132 0060 6FF05FFE 		j	.L8
 133              		.cfi_endproc
 134              	.LFE68:
 136              		.align	2
 137              		.globl	_ZN9SemaphoreD2Ev
 139              	_ZN9SemaphoreD2Ev:
 140              	.LFB65:
  71:src/syscall_cpp.cpp ****     sem_close(myHandle);
 141              		.loc 2 71 1
 142              		.cfi_startproc
 143              		.cfi_personality 0x9b,DW.ref.__gxx_personality_v0
 144              		.cfi_lsda 0x1b,.LLSDA65
 145              	.LVL8:
 146 0064 130101FF 		addi	sp,sp,-16
 147              		.cfi_def_cfa_offset 16
 148 0068 23341100 		sd	ra,8(sp)
 149 006c 23308100 		sd	s0,0(sp)
 150              		.cfi_offset 1, -8
 151              		.cfi_offset 8, -16
 152 0070 13040101 		addi	s0,sp,16
 153              		.cfi_def_cfa 8, 0
 154              	.LBB11:
  71:src/syscall_cpp.cpp ****     sem_close(myHandle);
 155              		.loc 2 71 23 is_stmt 0
 156 0074 97070000 		lla	a5,_ZTV9Semaphore+16
 156      93870700 
 157 007c 2330F500 		sd	a5,0(a0)
  72:src/syscall_cpp.cpp **** }
 158              		.loc 2 72 5 is_stmt 1
GAS LISTING /tmp/ccwGWzEA.s 			page 6


  72:src/syscall_cpp.cpp **** }
 159              		.loc 2 72 14 is_stmt 0
 160 0080 03358500 		ld	a0,8(a0)
 161              	.LVL9:
 162 0084 97000000 		call	_Z9sem_closeP3sem@plt
 162      E7800000 
 163              	.LVL10:
 164              	.LBE11:
  73:src/syscall_cpp.cpp **** 
 165              		.loc 2 73 1
 166 008c 83308100 		ld	ra,8(sp)
 167              		.cfi_restore 1
 168 0090 03340100 		ld	s0,0(sp)
 169              		.cfi_restore 8
 170              		.cfi_def_cfa 2, 16
 171 0094 13010101 		addi	sp,sp,16
 172              		.cfi_def_cfa_offset 0
 173 0098 67800000 		jr	ra
 174              		.cfi_endproc
 175              	.LFE65:
 176              		.globl	__gxx_personality_v0
 177              		.section	.gcc_except_table,"a",@progbits
 178              	.LLSDA65:
 179 0000 FF       		.byte	0xff
 180 0001 FF       		.byte	0xff
 181 0002 03       		.byte	0x3
 182 0003 00       		.byte	0
 183              		.text
 185              		.globl	_ZN9SemaphoreD1Ev
 186              		.set	_ZN9SemaphoreD1Ev,_ZN9SemaphoreD2Ev
 187              		.align	2
 188              		.globl	_Znwm
 190              	_Znwm:
 191              	.LFB40:
   6:src/syscall_cpp.cpp ****     return mem_alloc(size);
 192              		.loc 2 6 32 is_stmt 1
 193              		.cfi_startproc
 194              	.LVL11:
 195 009c 130101FF 		addi	sp,sp,-16
 196              		.cfi_def_cfa_offset 16
 197 00a0 23341100 		sd	ra,8(sp)
 198 00a4 23308100 		sd	s0,0(sp)
 199              		.cfi_offset 1, -8
 200              		.cfi_offset 8, -16
 201 00a8 13040101 		addi	s0,sp,16
 202              		.cfi_def_cfa 8, 0
   7:src/syscall_cpp.cpp **** }
 203              		.loc 2 7 5
   7:src/syscall_cpp.cpp **** }
 204              		.loc 2 7 21 is_stmt 0
 205 00ac 97000000 		call	_Z9mem_allocm@plt
 205      E7800000 
 206              	.LVL12:
   8:src/syscall_cpp.cpp **** 
 207              		.loc 2 8 1
 208 00b4 83308100 		ld	ra,8(sp)
 209              		.cfi_restore 1
GAS LISTING /tmp/ccwGWzEA.s 			page 7


 210 00b8 03340100 		ld	s0,0(sp)
 211              		.cfi_restore 8
 212              		.cfi_def_cfa 2, 16
 213 00bc 13010101 		addi	sp,sp,16
 214              		.cfi_def_cfa_offset 0
 215 00c0 67800000 		jr	ra
 216              		.cfi_endproc
 217              	.LFE40:
 219              		.align	2
 220              		.globl	_Znam
 222              	_Znam:
 223              	.LFB41:
  10:src/syscall_cpp.cpp ****     return mem_alloc(size);
 224              		.loc 2 10 34 is_stmt 1
 225              		.cfi_startproc
 226              	.LVL13:
 227 00c4 130101FF 		addi	sp,sp,-16
 228              		.cfi_def_cfa_offset 16
 229 00c8 23341100 		sd	ra,8(sp)
 230 00cc 23308100 		sd	s0,0(sp)
 231              		.cfi_offset 1, -8
 232              		.cfi_offset 8, -16
 233 00d0 13040101 		addi	s0,sp,16
 234              		.cfi_def_cfa 8, 0
  11:src/syscall_cpp.cpp **** }
 235              		.loc 2 11 5
  11:src/syscall_cpp.cpp **** }
 236              		.loc 2 11 21 is_stmt 0
 237 00d4 97000000 		call	_Z9mem_allocm@plt
 237      E7800000 
 238              	.LVL14:
  12:src/syscall_cpp.cpp **** 
 239              		.loc 2 12 1
 240 00dc 83308100 		ld	ra,8(sp)
 241              		.cfi_restore 1
 242 00e0 03340100 		ld	s0,0(sp)
 243              		.cfi_restore 8
 244              		.cfi_def_cfa 2, 16
 245 00e4 13010101 		addi	sp,sp,16
 246              		.cfi_def_cfa_offset 0
 247 00e8 67800000 		jr	ra
 248              		.cfi_endproc
 249              	.LFE41:
 251              		.align	2
 252              		.globl	_ZdlPv
 254              	_ZdlPv:
 255              	.LFB42:
  14:src/syscall_cpp.cpp ****     mem_free(ptr);
 256              		.loc 2 14 32 is_stmt 1
 257              		.cfi_startproc
 258              	.LVL15:
 259 00ec 130101FF 		addi	sp,sp,-16
 260              		.cfi_def_cfa_offset 16
 261 00f0 23341100 		sd	ra,8(sp)
 262 00f4 23308100 		sd	s0,0(sp)
 263              		.cfi_offset 1, -8
 264              		.cfi_offset 8, -16
GAS LISTING /tmp/ccwGWzEA.s 			page 8


 265 00f8 13040101 		addi	s0,sp,16
 266              		.cfi_def_cfa 8, 0
  15:src/syscall_cpp.cpp **** }
 267              		.loc 2 15 5
  15:src/syscall_cpp.cpp **** }
 268              		.loc 2 15 13 is_stmt 0
 269 00fc 97000000 		call	_Z8mem_freePv@plt
 269      E7800000 
 270              	.LVL16:
  16:src/syscall_cpp.cpp **** 
 271              		.loc 2 16 1
 272 0104 83308100 		ld	ra,8(sp)
 273              		.cfi_restore 1
 274 0108 03340100 		ld	s0,0(sp)
 275              		.cfi_restore 8
 276              		.cfi_def_cfa 2, 16
 277 010c 13010101 		addi	sp,sp,16
 278              		.cfi_def_cfa_offset 0
 279 0110 67800000 		jr	ra
 280              		.cfi_endproc
 281              	.LFE42:
 283              		.align	2
 284              		.globl	_ZN9SemaphoreD0Ev
 286              	_ZN9SemaphoreD0Ev:
 287              	.LFB67:
  71:src/syscall_cpp.cpp ****     sem_close(myHandle);
 288              		.loc 2 71 1 is_stmt 1
 289              		.cfi_startproc
 290              	.LVL17:
 291 0114 130101FE 		addi	sp,sp,-32
 292              		.cfi_def_cfa_offset 32
 293 0118 233C1100 		sd	ra,24(sp)
 294 011c 23388100 		sd	s0,16(sp)
 295 0120 23349100 		sd	s1,8(sp)
 296              		.cfi_offset 1, -8
 297              		.cfi_offset 8, -16
 298              		.cfi_offset 9, -24
 299 0124 13040102 		addi	s0,sp,32
 300              		.cfi_def_cfa 8, 0
 301 0128 93040500 		mv	s1,a0
  73:src/syscall_cpp.cpp **** 
 302              		.loc 2 73 1 is_stmt 0
 303 012c 97000000 		call	_ZN9SemaphoreD1Ev
 303      E7800000 
 304              	.LVL18:
 305 0134 13850400 		mv	a0,s1
 306 0138 97000000 		call	_ZdlPv
 306      E7800000 
 307              	.LVL19:
 308 0140 83308101 		ld	ra,24(sp)
 309              		.cfi_restore 1
 310 0144 03340101 		ld	s0,16(sp)
 311              		.cfi_restore 8
 312              		.cfi_def_cfa 2, 32
 313 0148 83348100 		ld	s1,8(sp)
 314              		.cfi_restore 9
 315              	.LVL20:
GAS LISTING /tmp/ccwGWzEA.s 			page 9


 316 014c 13010102 		addi	sp,sp,32
 317              		.cfi_def_cfa_offset 0
 318 0150 67800000 		jr	ra
 319              		.cfi_endproc
 320              	.LFE67:
 322              		.align	2
 323              		.globl	_ZdaPv
 325              	_ZdaPv:
 326              	.LFB43:
  18:src/syscall_cpp.cpp ****     mem_free(ptr);
 327              		.loc 2 18 34 is_stmt 1
 328              		.cfi_startproc
 329              	.LVL21:
 330 0154 130101FF 		addi	sp,sp,-16
 331              		.cfi_def_cfa_offset 16
 332 0158 23341100 		sd	ra,8(sp)
 333 015c 23308100 		sd	s0,0(sp)
 334              		.cfi_offset 1, -8
 335              		.cfi_offset 8, -16
 336 0160 13040101 		addi	s0,sp,16
 337              		.cfi_def_cfa 8, 0
  19:src/syscall_cpp.cpp **** }
 338              		.loc 2 19 5
  19:src/syscall_cpp.cpp **** }
 339              		.loc 2 19 13 is_stmt 0
 340 0164 97000000 		call	_Z8mem_freePv@plt
 340      E7800000 
 341              	.LVL22:
  20:src/syscall_cpp.cpp **** 
 342              		.loc 2 20 1
 343 016c 83308100 		ld	ra,8(sp)
 344              		.cfi_restore 1
 345 0170 03340100 		ld	s0,0(sp)
 346              		.cfi_restore 8
 347              		.cfi_def_cfa 2, 16
 348 0174 13010101 		addi	sp,sp,16
 349              		.cfi_def_cfa_offset 0
 350 0178 67800000 		jr	ra
 351              		.cfi_endproc
 352              	.LFE43:
 354              		.align	2
 355              		.globl	_ZN6ThreadD2Ev
 357              	_ZN6ThreadD2Ev:
 358              	.LFB48:
  27:src/syscall_cpp.cpp ****     myHandle->set_finished(true);
 359              		.loc 2 27 1 is_stmt 1
 360              		.cfi_startproc
 361              		.cfi_personality 0x9b,DW.ref.__gxx_personality_v0
 362              		.cfi_lsda 0x1b,.LLSDA48
 363              	.LVL23:
 364 017c 130101FE 		addi	sp,sp,-32
 365              		.cfi_def_cfa_offset 32
 366 0180 233C1100 		sd	ra,24(sp)
 367 0184 23388100 		sd	s0,16(sp)
 368 0188 23349100 		sd	s1,8(sp)
 369              		.cfi_offset 1, -8
 370              		.cfi_offset 8, -16
GAS LISTING /tmp/ccwGWzEA.s 			page 10


 371              		.cfi_offset 9, -24
 372 018c 13040102 		addi	s0,sp,32
 373              		.cfi_def_cfa 8, 0
 374              	.LBB12:
  27:src/syscall_cpp.cpp ****     myHandle->set_finished(true);
 375              		.loc 2 27 17 is_stmt 0
 376 0190 97070000 		lla	a5,_ZTV6Thread+16
 376      93870700 
 377 0198 2330F500 		sd	a5,0(a0)
  28:src/syscall_cpp.cpp ****     delete myHandle;
 378              		.loc 2 28 5 is_stmt 1
 379 019c 83378500 		ld	a5,8(a0)
 380              	.LVL24:
 381              	.LBB13:
 382              	.LBB14:
 383              		.file 3 "src/../h/../h/tcb.hpp"
   1:src/../h/../h/tcb.hpp **** #ifndef PROJECT_BASE_V1_1_TCB_HPP
   2:src/../h/../h/tcb.hpp **** #define PROJECT_BASE_V1_1_TCB_HPP
   3:src/../h/../h/tcb.hpp **** 
   4:src/../h/../h/tcb.hpp **** #include "../lib/hw.h"
   5:src/../h/../h/tcb.hpp **** #include "../h/scheduler.hpp"
   6:src/../h/../h/tcb.hpp **** #include "../h/riscv.hpp"
   7:src/../h/../h/tcb.hpp **** 
   8:src/../h/../h/tcb.hpp **** class TCB{
   9:src/../h/../h/tcb.hpp **** private:
  10:src/../h/../h/tcb.hpp ****     struct Context{
  11:src/../h/../h/tcb.hpp ****         uint64 sp, ra;
  12:src/../h/../h/tcb.hpp ****     };
  13:src/../h/../h/tcb.hpp **** 
  14:src/../h/../h/tcb.hpp ****     using Body = void(*)(void*);
  15:src/../h/../h/tcb.hpp ****     Body body;
  16:src/../h/../h/tcb.hpp ****     void* args;
  17:src/../h/../h/tcb.hpp **** 
  18:src/../h/../h/tcb.hpp ****     uint64* stack;
  19:src/../h/../h/tcb.hpp ****     Context context;
  20:src/../h/../h/tcb.hpp **** 
  21:src/../h/../h/tcb.hpp ****     time_t time_slice;
  22:src/../h/../h/tcb.hpp ****     int id;
  23:src/../h/../h/tcb.hpp ****     bool finished, blocked, sleeping, main, user_mode;
  24:src/../h/../h/tcb.hpp **** 
  25:src/../h/../h/tcb.hpp ****     TCB(Body body, void* args, uint64 time_slice, uint64* stack) :
  26:src/../h/../h/tcb.hpp ****         body(body),
  27:src/../h/../h/tcb.hpp ****         args(args),
  28:src/../h/../h/tcb.hpp ****         stack(body != nullptr ? stack : nullptr),
  29:src/../h/../h/tcb.hpp ****         context({(uint64) &thread_wrapper, stack != nullptr ? reinterpret_cast<uint64>(&stack[DEFAU
  30:src/../h/../h/tcb.hpp ****         time_slice(time_slice),
  31:src/../h/../h/tcb.hpp ****         id(ID),
  32:src/../h/../h/tcb.hpp ****         finished(false),
  33:src/../h/../h/tcb.hpp ****         blocked(false),
  34:src/../h/../h/tcb.hpp ****         sleeping(false),
  35:src/../h/../h/tcb.hpp ****         main(body == nullptr){
  36:src/../h/../h/tcb.hpp **** 
  37:src/../h/../h/tcb.hpp ****         if(body != nullptr){
  38:src/../h/../h/tcb.hpp ****             Scheduler::put(this);
  39:src/../h/../h/tcb.hpp ****         }
  40:src/../h/../h/tcb.hpp **** 
  41:src/../h/../h/tcb.hpp ****     }
GAS LISTING /tmp/ccwGWzEA.s 			page 11


  42:src/../h/../h/tcb.hpp **** 
  43:src/../h/../h/tcb.hpp ****     static time_t time_slice_counter;
  44:src/../h/../h/tcb.hpp **** 
  45:src/../h/../h/tcb.hpp ****     static void contextSwitch(Context* old_context, Context* new_context);
  46:src/../h/../h/tcb.hpp ****     static void thread_wrapper();
  47:src/../h/../h/tcb.hpp ****     static void dispatch();
  48:src/../h/../h/tcb.hpp **** public:
  49:src/../h/../h/tcb.hpp ****     friend class RiscV;
  50:src/../h/../h/tcb.hpp ****     friend class sem;
  51:src/../h/../h/tcb.hpp **** 
  52:src/../h/../h/tcb.hpp ****     static int ID;
  53:src/../h/../h/tcb.hpp ****     static TCB* running;
  54:src/../h/../h/tcb.hpp ****     static TCB* create_thread(TCB** handle, Body body, void* args, uint64* stack);
  55:src/../h/../h/tcb.hpp ****     static void yield();
  56:src/../h/../h/tcb.hpp ****     static void join(TCB*);
  57:src/../h/../h/tcb.hpp ****     static void outputThreadBody(void*);
  58:src/../h/../h/tcb.hpp **** 
  59:src/../h/../h/tcb.hpp **** //    void start(){
  60:src/../h/../h/tcb.hpp **** //        Scheduler::put(this);
  61:src/../h/../h/tcb.hpp **** //    }
  62:src/../h/../h/tcb.hpp **** 
  63:src/../h/../h/tcb.hpp ****     bool is_finished() const { return finished; }
  64:src/../h/../h/tcb.hpp ****     void set_finished(bool f) { this->finished = f; }
 384              		.loc 3 64 33
 385              		.loc 3 64 48 is_stmt 0
 386 01a0 13071000 		li	a4,1
 387 01a4 238AE702 		sb	a4,52(a5)
 388              	.LVL25:
 389              	.LBE14:
 390              	.LBE13:
  29:src/syscall_cpp.cpp **** }
 391              		.loc 2 29 5 is_stmt 1
  29:src/syscall_cpp.cpp **** }
 392              		.loc 2 29 12 is_stmt 0
 393 01a8 83348500 		ld	s1,8(a0)
  29:src/syscall_cpp.cpp **** }
 394              		.loc 2 29 20
 395 01ac 63800402 		beqz	s1,.L22
 396              	.LVL26:
 397              	.LBB15:
 398              	.LBB16:
  65:src/../h/../h/tcb.hpp **** 
  66:src/../h/../h/tcb.hpp ****     bool is_sleeping() const { return sleeping; }
  67:src/../h/../h/tcb.hpp ****     void set_sleeping(bool s) { this->sleeping = s; }
  68:src/../h/../h/tcb.hpp **** 
  69:src/../h/../h/tcb.hpp ****     bool is_blocked() const { return blocked; }
  70:src/../h/../h/tcb.hpp ****     void set_blocked(bool b) { this->blocked = b; }
  71:src/../h/../h/tcb.hpp **** 
  72:src/../h/../h/tcb.hpp ****     bool is_main() const { return main; }
  73:src/../h/../h/tcb.hpp ****     int get_id() const { return id; }
  74:src/../h/../h/tcb.hpp ****     uint64 get_time_slice() const { return time_slice; }
  75:src/../h/../h/tcb.hpp **** 
  76:src/../h/../h/tcb.hpp ****     bool get_user_mode () const { return user_mode; }
  77:src/../h/../h/tcb.hpp ****     void set_user_mode (bool value) { user_mode = value; }
  78:src/../h/../h/tcb.hpp **** 
  79:src/../h/../h/tcb.hpp ****     ~TCB(){
  80:src/../h/../h/tcb.hpp ****         delete[] stack;
GAS LISTING /tmp/ccwGWzEA.s 			page 12


 399              		.loc 3 80 9 is_stmt 1
 400              		.loc 3 80 18 is_stmt 0
 401 01b0 03B50401 		ld	a0,16(s1)
 402              	.LVL27:
 403              		.loc 3 80 23
 404 01b4 63060500 		beqz	a0,.L24
 405              		.loc 3 80 18
 406 01b8 97000000 		call	_ZdaPv
 406      E7800000 
 407              	.LVL28:
 408              	.L24:
 409              	.LBE16:
 410              	.LBE15:
  29:src/syscall_cpp.cpp **** }
 411              		.loc 2 29 12
 412 01c0 13850400 		mv	a0,s1
 413 01c4 97000000 		call	_ZdlPv
 413      E7800000 
 414              	.LVL29:
 415              	.L22:
 416              	.LBE12:
  30:src/syscall_cpp.cpp **** 
 417              		.loc 2 30 1
 418 01cc 83308101 		ld	ra,24(sp)
 419              		.cfi_restore 1
 420 01d0 03340101 		ld	s0,16(sp)
 421              		.cfi_restore 8
 422              		.cfi_def_cfa 2, 32
 423 01d4 83348100 		ld	s1,8(sp)
 424              		.cfi_restore 9
 425 01d8 13010102 		addi	sp,sp,32
 426              		.cfi_def_cfa_offset 0
 427 01dc 67800000 		jr	ra
 428              		.cfi_endproc
 429              	.LFE48:
 430              		.section	.gcc_except_table
 431              	.LLSDA48:
 432 0004 FF       		.byte	0xff
 433 0005 FF       		.byte	0xff
 434 0006 03       		.byte	0x3
 435 0007 00       		.byte	0
 436              		.text
 438              		.globl	_ZN6ThreadD1Ev
 439              		.set	_ZN6ThreadD1Ev,_ZN6ThreadD2Ev
 440              		.align	2
 441              		.globl	_ZN6ThreadD0Ev
 443              	_ZN6ThreadD0Ev:
 444              	.LFB50:
  27:src/syscall_cpp.cpp ****     myHandle->set_finished(true);
 445              		.loc 2 27 1 is_stmt 1
 446              		.cfi_startproc
 447              	.LVL30:
 448 01e0 130101FE 		addi	sp,sp,-32
 449              		.cfi_def_cfa_offset 32
 450 01e4 233C1100 		sd	ra,24(sp)
 451 01e8 23388100 		sd	s0,16(sp)
 452 01ec 23349100 		sd	s1,8(sp)
GAS LISTING /tmp/ccwGWzEA.s 			page 13


 453              		.cfi_offset 1, -8
 454              		.cfi_offset 8, -16
 455              		.cfi_offset 9, -24
 456 01f0 13040102 		addi	s0,sp,32
 457              		.cfi_def_cfa 8, 0
 458 01f4 93040500 		mv	s1,a0
  30:src/syscall_cpp.cpp **** 
 459              		.loc 2 30 1 is_stmt 0
 460 01f8 97000000 		call	_ZN6ThreadD1Ev
 460      E7800000 
 461              	.LVL31:
 462 0200 13850400 		mv	a0,s1
 463 0204 97000000 		call	_ZdlPv
 463      E7800000 
 464              	.LVL32:
 465 020c 83308101 		ld	ra,24(sp)
 466              		.cfi_restore 1
 467 0210 03340101 		ld	s0,16(sp)
 468              		.cfi_restore 8
 469              		.cfi_def_cfa 2, 32
 470 0214 83348100 		ld	s1,8(sp)
 471              		.cfi_restore 9
 472              	.LVL33:
 473 0218 13010102 		addi	sp,sp,32
 474              		.cfi_def_cfa_offset 0
 475 021c 67800000 		jr	ra
 476              		.cfi_endproc
 477              	.LFE50:
 479              		.section	.text._ZN14PeriodicThreadD2Ev,"axG",@progbits,_ZN14PeriodicThreadD5Ev,comdat
 480              		.align	2
 481              		.weak	_ZN14PeriodicThreadD2Ev
 483              	_ZN14PeriodicThreadD2Ev:
 484              	.LFB76:
  43:src/../h/syscall_cpp.hpp **** public:
 485              		.loc 1 43 7 is_stmt 1
 486              		.cfi_startproc
 487              	.LVL34:
 488 0000 130101FF 		addi	sp,sp,-16
 489              		.cfi_def_cfa_offset 16
 490 0004 23341100 		sd	ra,8(sp)
 491 0008 23308100 		sd	s0,0(sp)
 492              		.cfi_offset 1, -8
 493              		.cfi_offset 8, -16
 494 000c 13040101 		addi	s0,sp,16
 495              		.cfi_def_cfa 8, 0
 496              	.LBB17:
  43:src/../h/syscall_cpp.hpp **** public:
 497              		.loc 1 43 7 is_stmt 0
 498 0010 97070000 		lla	a5,_ZTV14PeriodicThread+16
 498      93870700 
 499 0018 2330F500 		sd	a5,0(a0)
 500 001c 97000000 		call	_ZN6ThreadD2Ev
 500      E7800000 
 501              	.LVL35:
 502              	.LBE17:
 503 0024 83308100 		ld	ra,8(sp)
 504              		.cfi_restore 1
GAS LISTING /tmp/ccwGWzEA.s 			page 14


 505 0028 03340100 		ld	s0,0(sp)
 506              		.cfi_restore 8
 507              		.cfi_def_cfa 2, 16
 508 002c 13010101 		addi	sp,sp,16
 509              		.cfi_def_cfa_offset 0
 510 0030 67800000 		jr	ra
 511              		.cfi_endproc
 512              	.LFE76:
 514              		.weak	_ZN14PeriodicThreadD1Ev
 515              		.set	_ZN14PeriodicThreadD1Ev,_ZN14PeriodicThreadD2Ev
 516              		.section	.text._ZN14PeriodicThreadD0Ev,"axG",@progbits,_ZN14PeriodicThreadD5Ev,comdat
 517              		.align	2
 518              		.weak	_ZN14PeriodicThreadD0Ev
 520              	_ZN14PeriodicThreadD0Ev:
 521              	.LFB78:
  43:src/../h/syscall_cpp.hpp **** public:
 522              		.loc 1 43 7 is_stmt 1
 523              		.cfi_startproc
 524              	.LVL36:
 525 0000 130101FE 		addi	sp,sp,-32
 526              		.cfi_def_cfa_offset 32
 527 0004 233C1100 		sd	ra,24(sp)
 528 0008 23388100 		sd	s0,16(sp)
 529 000c 23349100 		sd	s1,8(sp)
 530              		.cfi_offset 1, -8
 531              		.cfi_offset 8, -16
 532              		.cfi_offset 9, -24
 533 0010 13040102 		addi	s0,sp,32
 534              		.cfi_def_cfa 8, 0
 535 0014 93040500 		mv	s1,a0
 536              	.LVL37:
 537              	.LBB18:
 538              	.LBB19:
  43:src/../h/syscall_cpp.hpp **** public:
 539              		.loc 1 43 7 is_stmt 0
 540 0018 97070000 		lla	a5,_ZTV14PeriodicThread+16
 540      93870700 
 541 0020 2330F500 		sd	a5,0(a0)
 542 0024 97000000 		call	_ZN6ThreadD2Ev
 542      E7800000 
 543              	.LVL38:
 544              	.LBE19:
 545              	.LBE18:
 546 002c 13850400 		mv	a0,s1
 547 0030 97000000 		call	_ZdlPv
 547      E7800000 
 548              	.LVL39:
 549 0038 83308101 		ld	ra,24(sp)
 550              		.cfi_restore 1
 551 003c 03340101 		ld	s0,16(sp)
 552              		.cfi_restore 8
 553              		.cfi_def_cfa 2, 32
 554 0040 83348100 		ld	s1,8(sp)
 555              		.cfi_restore 9
 556              	.LVL40:
 557 0044 13010102 		addi	sp,sp,32
 558              		.cfi_def_cfa_offset 0
GAS LISTING /tmp/ccwGWzEA.s 			page 15


 559 0048 67800000 		jr	ra
 560              		.cfi_endproc
 561              	.LFE78:
 563              		.text
 564              		.align	2
 565              		.globl	_ZN6ThreadC2EPFvPvES0_
 567              	_ZN6ThreadC2EPFvPvES0_:
 568              	.LFB45:
  22:src/syscall_cpp.cpp ****     myHandle = nullptr;
 569              		.loc 2 22 1 is_stmt 1
 570              		.cfi_startproc
 571              	.LVL41:
 572 0220 130101FF 		addi	sp,sp,-16
 573              		.cfi_def_cfa_offset 16
 574 0224 23341100 		sd	ra,8(sp)
 575 0228 23308100 		sd	s0,0(sp)
 576              		.cfi_offset 1, -8
 577              		.cfi_offset 8, -16
 578 022c 13040101 		addi	s0,sp,16
 579              		.cfi_def_cfa 8, 0
 580              	.LBB20:
  22:src/syscall_cpp.cpp ****     myHandle = nullptr;
 581              		.loc 2 22 47 is_stmt 0
 582 0230 97070000 		lla	a5,_ZTV6Thread+16
 582      93870700 
 583 0238 2330F500 		sd	a5,0(a0)
  23:src/syscall_cpp.cpp ****     thread_create(&myHandle, body, arg);
 584              		.loc 2 23 5 is_stmt 1
  23:src/syscall_cpp.cpp ****     thread_create(&myHandle, body, arg);
 585              		.loc 2 23 14 is_stmt 0
 586 023c 23340500 		sd	zero,8(a0)
  24:src/syscall_cpp.cpp **** }
 587              		.loc 2 24 5 is_stmt 1
  24:src/syscall_cpp.cpp **** }
 588              		.loc 2 24 18 is_stmt 0
 589 0240 13058500 		addi	a0,a0,8
 590              	.LVL42:
 591 0244 97000000 		call	_Z13thread_createPP3TCBPFvPvES2_@plt
 591      E7800000 
 592              	.LVL43:
 593              	.LBE20:
  25:src/syscall_cpp.cpp **** 
 594              		.loc 2 25 1
 595 024c 83308100 		ld	ra,8(sp)
 596              		.cfi_restore 1
 597 0250 03340100 		ld	s0,0(sp)
 598              		.cfi_restore 8
 599              		.cfi_def_cfa 2, 16
 600 0254 13010101 		addi	sp,sp,16
 601              		.cfi_def_cfa_offset 0
 602 0258 67800000 		jr	ra
 603              		.cfi_endproc
 604              	.LFE45:
 606              		.globl	_ZN6ThreadC1EPFvPvES0_
 607              		.set	_ZN6ThreadC1EPFvPvES0_,_ZN6ThreadC2EPFvPvES0_
 608              		.align	2
 609              		.globl	_ZN6Thread5startEv
GAS LISTING /tmp/ccwGWzEA.s 			page 16


 611              	_ZN6Thread5startEv:
 612              	.LFB51:
  32:src/syscall_cpp.cpp ****     return 0;
 613              		.loc 2 32 21 is_stmt 1
 614              		.cfi_startproc
 615              	.LVL44:
 616 025c 130101FF 		addi	sp,sp,-16
 617              		.cfi_def_cfa_offset 16
 618 0260 23348100 		sd	s0,8(sp)
 619              		.cfi_offset 8, -8
 620 0264 13040101 		addi	s0,sp,16
 621              		.cfi_def_cfa 8, 0
  33:src/syscall_cpp.cpp **** }
 622              		.loc 2 33 5
  34:src/syscall_cpp.cpp **** 
 623              		.loc 2 34 1 is_stmt 0
 624 0268 13050000 		li	a0,0
 625              	.LVL45:
 626 026c 03348100 		ld	s0,8(sp)
 627              		.cfi_restore 8
 628              		.cfi_def_cfa 2, 16
 629 0270 13010101 		addi	sp,sp,16
 630              		.cfi_def_cfa_offset 0
 631 0274 67800000 		jr	ra
 632              		.cfi_endproc
 633              	.LFE51:
 635              		.align	2
 636              		.globl	_ZN6Thread4joinEv
 638              	_ZN6Thread4joinEv:
 639              	.LFB52:
  36:src/syscall_cpp.cpp ****     if(myHandle) thread_join(myHandle);
 640              		.loc 2 36 21 is_stmt 1
 641              		.cfi_startproc
 642              	.LVL46:
  37:src/syscall_cpp.cpp **** }
 643              		.loc 2 37 5
  37:src/syscall_cpp.cpp **** }
 644              		.loc 2 37 8 is_stmt 0
 645 0278 03358500 		ld	a0,8(a0)
 646              	.LVL47:
  37:src/syscall_cpp.cpp **** }
 647              		.loc 2 37 5
 648 027c 63060502 		beqz	a0,.L39
  36:src/syscall_cpp.cpp ****     if(myHandle) thread_join(myHandle);
 649              		.loc 2 36 21 discriminator 1
 650 0280 130101FF 		addi	sp,sp,-16
 651              		.cfi_def_cfa_offset 16
 652 0284 23341100 		sd	ra,8(sp)
 653 0288 23308100 		sd	s0,0(sp)
 654              		.cfi_offset 1, -8
 655              		.cfi_offset 8, -16
 656 028c 13040101 		addi	s0,sp,16
 657              		.cfi_def_cfa 8, 0
  37:src/syscall_cpp.cpp **** }
 658              		.loc 2 37 18 is_stmt 1 discriminator 1
  37:src/syscall_cpp.cpp **** }
 659              		.loc 2 37 29 is_stmt 0 discriminator 1
GAS LISTING /tmp/ccwGWzEA.s 			page 17


 660 0290 97000000 		call	_Z11thread_joinP3TCB@plt
 660      E7800000 
 661              	.LVL48:
  38:src/syscall_cpp.cpp **** 
 662              		.loc 2 38 1 discriminator 1
 663 0298 83308100 		ld	ra,8(sp)
 664              		.cfi_restore 1
 665 029c 03340100 		ld	s0,0(sp)
 666              		.cfi_restore 8
 667              		.cfi_def_cfa 2, 16
 668 02a0 13010101 		addi	sp,sp,16
 669              		.cfi_def_cfa_offset 0
 670 02a4 67800000 		jr	ra
 671              	.L39:
 672 02a8 67800000 		ret
 673              		.cfi_endproc
 674              	.LFE52:
 676              		.align	2
 677              		.globl	_ZN6Thread8dispatchEv
 679              	_ZN6Thread8dispatchEv:
 680              	.LFB53:
  40:src/syscall_cpp.cpp ****     thread_dispatch();
 681              		.loc 2 40 25 is_stmt 1
 682              		.cfi_startproc
 683 02ac 130101FF 		addi	sp,sp,-16
 684              		.cfi_def_cfa_offset 16
 685 02b0 23341100 		sd	ra,8(sp)
 686 02b4 23308100 		sd	s0,0(sp)
 687              		.cfi_offset 1, -8
 688              		.cfi_offset 8, -16
 689 02b8 13040101 		addi	s0,sp,16
 690              		.cfi_def_cfa 8, 0
  41:src/syscall_cpp.cpp **** }
 691              		.loc 2 41 5
  41:src/syscall_cpp.cpp **** }
 692              		.loc 2 41 20 is_stmt 0
 693 02bc 97000000 		call	_Z15thread_dispatchv@plt
 693      E7800000 
 694              	.LVL49:
  42:src/syscall_cpp.cpp **** 
 695              		.loc 2 42 1
 696 02c4 83308100 		ld	ra,8(sp)
 697              		.cfi_restore 1
 698 02c8 03340100 		ld	s0,0(sp)
 699              		.cfi_restore 8
 700              		.cfi_def_cfa 2, 16
 701 02cc 13010101 		addi	sp,sp,16
 702              		.cfi_def_cfa_offset 0
 703 02d0 67800000 		jr	ra
 704              		.cfi_endproc
 705              	.LFE53:
 707              		.align	2
 708              		.globl	_ZN6Thread5sleepEm
 710              	_ZN6Thread5sleepEm:
 711              	.LFB54:
  44:src/syscall_cpp.cpp ****     time_sleep(time);
 712              		.loc 2 44 32 is_stmt 1
GAS LISTING /tmp/ccwGWzEA.s 			page 18


 713              		.cfi_startproc
 714              	.LVL50:
 715 02d4 130101FF 		addi	sp,sp,-16
 716              		.cfi_def_cfa_offset 16
 717 02d8 23341100 		sd	ra,8(sp)
 718 02dc 23308100 		sd	s0,0(sp)
 719              		.cfi_offset 1, -8
 720              		.cfi_offset 8, -16
 721 02e0 13040101 		addi	s0,sp,16
 722              		.cfi_def_cfa 8, 0
  45:src/syscall_cpp.cpp ****     return 0;
 723              		.loc 2 45 5
  45:src/syscall_cpp.cpp ****     return 0;
 724              		.loc 2 45 15 is_stmt 0
 725 02e4 97000000 		call	_Z10time_sleepm@plt
 725      E7800000 
 726              	.LVL51:
  46:src/syscall_cpp.cpp **** }
 727              		.loc 2 46 5 is_stmt 1
  47:src/syscall_cpp.cpp **** 
 728              		.loc 2 47 1 is_stmt 0
 729 02ec 13050000 		li	a0,0
 730 02f0 83308100 		ld	ra,8(sp)
 731              		.cfi_restore 1
 732 02f4 03340100 		ld	s0,0(sp)
 733              		.cfi_restore 8
 734              		.cfi_def_cfa 2, 16
 735 02f8 13010101 		addi	sp,sp,16
 736              		.cfi_def_cfa_offset 0
 737 02fc 67800000 		jr	ra
 738              		.cfi_endproc
 739              	.LFE54:
 741              		.align	2
 742              		.globl	_ZN6ThreadC2Ev
 744              	_ZN6ThreadC2Ev:
 745              	.LFB56:
  49:src/syscall_cpp.cpp ****     myHandle = nullptr;
 746              		.loc 2 49 1 is_stmt 1
 747              		.cfi_startproc
 748              	.LVL52:
 749 0300 130101FF 		addi	sp,sp,-16
 750              		.cfi_def_cfa_offset 16
 751 0304 23341100 		sd	ra,8(sp)
 752 0308 23308100 		sd	s0,0(sp)
 753              		.cfi_offset 1, -8
 754              		.cfi_offset 8, -16
 755 030c 13040101 		addi	s0,sp,16
 756              		.cfi_def_cfa 8, 0
 757              	.LBB21:
  49:src/syscall_cpp.cpp ****     myHandle = nullptr;
 758              		.loc 2 49 16 is_stmt 0
 759 0310 97070000 		lla	a5,_ZTV6Thread+16
 759      93870700 
 760 0318 2330F500 		sd	a5,0(a0)
  50:src/syscall_cpp.cpp ****     thread_create(&myHandle, Thread::threadWrapper, (void*)this);
 761              		.loc 2 50 5 is_stmt 1
  50:src/syscall_cpp.cpp ****     thread_create(&myHandle, Thread::threadWrapper, (void*)this);
GAS LISTING /tmp/ccwGWzEA.s 			page 19


 762              		.loc 2 50 14 is_stmt 0
 763 031c 23340500 		sd	zero,8(a0)
  51:src/syscall_cpp.cpp **** }
 764              		.loc 2 51 5 is_stmt 1
  51:src/syscall_cpp.cpp **** }
 765              		.loc 2 51 18 is_stmt 0
 766 0320 13060500 		mv	a2,a0
 767 0324 97050000 		lla	a1,_ZN6Thread13threadWrapperEPv
 767      93850500 
 768 032c 13058500 		addi	a0,a0,8
 769              	.LVL53:
 770 0330 97000000 		call	_Z13thread_createPP3TCBPFvPvES2_@plt
 770      E7800000 
 771              	.LVL54:
 772              	.LBE21:
  52:src/syscall_cpp.cpp **** 
 773              		.loc 2 52 1
 774 0338 83308100 		ld	ra,8(sp)
 775              		.cfi_restore 1
 776 033c 03340100 		ld	s0,0(sp)
 777              		.cfi_restore 8
 778              		.cfi_def_cfa 2, 16
 779 0340 13010101 		addi	sp,sp,16
 780              		.cfi_def_cfa_offset 0
 781 0344 67800000 		jr	ra
 782              		.cfi_endproc
 783              	.LFE56:
 785              		.globl	_ZN6ThreadC1Ev
 786              		.set	_ZN6ThreadC1Ev,_ZN6ThreadC2Ev
 787              		.align	2
 788              		.globl	_ZN9SemaphoreC2Ej
 790              	_ZN9SemaphoreC2Ej:
 791              	.LFB60:
  58:src/syscall_cpp.cpp ****     myHandle = nullptr;
 792              		.loc 2 58 1 is_stmt 1
 793              		.cfi_startproc
 794              	.LVL55:
 795 0348 130101FF 		addi	sp,sp,-16
 796              		.cfi_def_cfa_offset 16
 797 034c 23341100 		sd	ra,8(sp)
 798 0350 23308100 		sd	s0,0(sp)
 799              		.cfi_offset 1, -8
 800              		.cfi_offset 8, -16
 801 0354 13040101 		addi	s0,sp,16
 802              		.cfi_def_cfa 8, 0
 803              	.LBB22:
  58:src/syscall_cpp.cpp ****     myHandle = nullptr;
 804              		.loc 2 58 39 is_stmt 0
 805 0358 97070000 		lla	a5,_ZTV9Semaphore+16
 805      93870700 
 806 0360 2330F500 		sd	a5,0(a0)
  59:src/syscall_cpp.cpp ****     sem_open(&myHandle, init);
 807              		.loc 2 59 5 is_stmt 1
  59:src/syscall_cpp.cpp ****     sem_open(&myHandle, init);
 808              		.loc 2 59 14 is_stmt 0
 809 0364 23340500 		sd	zero,8(a0)
  60:src/syscall_cpp.cpp **** }
GAS LISTING /tmp/ccwGWzEA.s 			page 20


 810              		.loc 2 60 5 is_stmt 1
  60:src/syscall_cpp.cpp **** }
 811              		.loc 2 60 13 is_stmt 0
 812 0368 13058500 		addi	a0,a0,8
 813              	.LVL56:
 814 036c 97000000 		call	_Z8sem_openPP3semj@plt
 814      E7800000 
 815              	.LVL57:
 816              	.LBE22:
  61:src/syscall_cpp.cpp **** 
 817              		.loc 2 61 1
 818 0374 83308100 		ld	ra,8(sp)
 819              		.cfi_restore 1
 820 0378 03340100 		ld	s0,0(sp)
 821              		.cfi_restore 8
 822              		.cfi_def_cfa 2, 16
 823 037c 13010101 		addi	sp,sp,16
 824              		.cfi_def_cfa_offset 0
 825 0380 67800000 		jr	ra
 826              		.cfi_endproc
 827              	.LFE60:
 829              		.globl	_ZN9SemaphoreC1Ej
 830              		.set	_ZN9SemaphoreC1Ej,_ZN9SemaphoreC2Ej
 831              		.align	2
 832              		.globl	_ZN9Semaphore4waitEv
 834              	_ZN9Semaphore4waitEv:
 835              	.LFB62:
  63:src/syscall_cpp.cpp ****     return sem_wait(myHandle);
 836              		.loc 2 63 23 is_stmt 1
 837              		.cfi_startproc
 838              	.LVL58:
 839 0384 130101FF 		addi	sp,sp,-16
 840              		.cfi_def_cfa_offset 16
 841 0388 23341100 		sd	ra,8(sp)
 842 038c 23308100 		sd	s0,0(sp)
 843              		.cfi_offset 1, -8
 844              		.cfi_offset 8, -16
 845 0390 13040101 		addi	s0,sp,16
 846              		.cfi_def_cfa 8, 0
  64:src/syscall_cpp.cpp **** }
 847              		.loc 2 64 5
  64:src/syscall_cpp.cpp **** }
 848              		.loc 2 64 20 is_stmt 0
 849 0394 03358500 		ld	a0,8(a0)
 850              	.LVL59:
 851 0398 97000000 		call	_Z8sem_waitP3sem@plt
 851      E7800000 
 852              	.LVL60:
  65:src/syscall_cpp.cpp **** 
 853              		.loc 2 65 1
 854 03a0 83308100 		ld	ra,8(sp)
 855              		.cfi_restore 1
 856 03a4 03340100 		ld	s0,0(sp)
 857              		.cfi_restore 8
 858              		.cfi_def_cfa 2, 16
 859 03a8 13010101 		addi	sp,sp,16
 860              		.cfi_def_cfa_offset 0
GAS LISTING /tmp/ccwGWzEA.s 			page 21


 861 03ac 67800000 		jr	ra
 862              		.cfi_endproc
 863              	.LFE62:
 865              		.align	2
 866              		.globl	_ZN9Semaphore6signalEv
 868              	_ZN9Semaphore6signalEv:
 869              	.LFB63:
  67:src/syscall_cpp.cpp ****     return sem_signal(myHandle);
 870              		.loc 2 67 25 is_stmt 1
 871              		.cfi_startproc
 872              	.LVL61:
 873 03b0 130101FF 		addi	sp,sp,-16
 874              		.cfi_def_cfa_offset 16
 875 03b4 23341100 		sd	ra,8(sp)
 876 03b8 23308100 		sd	s0,0(sp)
 877              		.cfi_offset 1, -8
 878              		.cfi_offset 8, -16
 879 03bc 13040101 		addi	s0,sp,16
 880              		.cfi_def_cfa 8, 0
  68:src/syscall_cpp.cpp **** }
 881              		.loc 2 68 5
  68:src/syscall_cpp.cpp **** }
 882              		.loc 2 68 22 is_stmt 0
 883 03c0 03358500 		ld	a0,8(a0)
 884              	.LVL62:
 885 03c4 97000000 		call	_Z10sem_signalP3sem@plt
 885      E7800000 
 886              	.LVL63:
  69:src/syscall_cpp.cpp **** 
 887              		.loc 2 69 1
 888 03cc 83308100 		ld	ra,8(sp)
 889              		.cfi_restore 1
 890 03d0 03340100 		ld	s0,0(sp)
 891              		.cfi_restore 8
 892              		.cfi_def_cfa 2, 16
 893 03d4 13010101 		addi	sp,sp,16
 894              		.cfi_def_cfa_offset 0
 895 03d8 67800000 		jr	ra
 896              		.cfi_endproc
 897              	.LFE63:
 899              		.align	2
 900              		.globl	_ZN14PeriodicThread9terminateEv
 902              	_ZN14PeriodicThread9terminateEv:
 903              	.LFB69:
  81:src/syscall_cpp.cpp ****     }
  82:src/syscall_cpp.cpp **** 
  83:src/syscall_cpp.cpp ****     __mem_free(ps);
  84:src/syscall_cpp.cpp **** }
  85:src/syscall_cpp.cpp **** 
  86:src/syscall_cpp.cpp **** void PeriodicThread::terminate() {
 904              		.loc 2 86 34 is_stmt 1
 905              		.cfi_startproc
 906              	.LVL64:
 907 03dc 130101FF 		addi	sp,sp,-16
 908              		.cfi_def_cfa_offset 16
 909 03e0 23341100 		sd	ra,8(sp)
 910 03e4 23308100 		sd	s0,0(sp)
GAS LISTING /tmp/ccwGWzEA.s 			page 22


 911              		.cfi_offset 1, -8
 912              		.cfi_offset 8, -16
 913 03e8 13040101 		addi	s0,sp,16
 914              		.cfi_def_cfa 8, 0
  87:src/syscall_cpp.cpp ****     thread_exit();
 915              		.loc 2 87 5
 916              		.loc 2 87 16 is_stmt 0
 917 03ec 97000000 		call	_Z11thread_exitv@plt
 917      E7800000 
 918              	.LVL65:
  88:src/syscall_cpp.cpp **** }
 919              		.loc 2 88 1
 920 03f4 83308100 		ld	ra,8(sp)
 921              		.cfi_restore 1
 922 03f8 03340100 		ld	s0,0(sp)
 923              		.cfi_restore 8
 924              		.cfi_def_cfa 2, 16
 925 03fc 13010101 		addi	sp,sp,16
 926              		.cfi_def_cfa_offset 0
 927 0400 67800000 		jr	ra
 928              		.cfi_endproc
 929              	.LFE69:
 931              		.align	2
 932              		.globl	_ZN14PeriodicThreadC2Em
 934              	_ZN14PeriodicThreadC2Em:
 935              	.LFB71:
  89:src/syscall_cpp.cpp **** 
  90:src/syscall_cpp.cpp **** PeriodicThread::PeriodicThread(time_t period) {
 936              		.loc 2 90 1 is_stmt 1
 937              		.cfi_startproc
 938              		.cfi_personality 0x9b,DW.ref.__gxx_personality_v0
 939              		.cfi_lsda 0x1b,.LLSDA71
 940              	.LVL66:
 941 0404 130101FD 		addi	sp,sp,-48
 942              		.cfi_def_cfa_offset 48
 943 0408 23341102 		sd	ra,40(sp)
 944 040c 23308102 		sd	s0,32(sp)
 945 0410 233C9100 		sd	s1,24(sp)
 946 0414 23382101 		sd	s2,16(sp)
 947              		.cfi_offset 1, -8
 948              		.cfi_offset 8, -16
 949              		.cfi_offset 9, -24
 950              		.cfi_offset 18, -32
 951 0418 13040103 		addi	s0,sp,48
 952              		.cfi_def_cfa 8, 0
 953 041c 93040500 		mv	s1,a0
 954 0420 13890500 		mv	s2,a1
 955              	.LEHB0:
 956              	.LBB23:
 957              		.loc 2 90 45 is_stmt 0
 958 0424 97000000 		call	_ZN6ThreadC2Ev
 958      E7800000 
 959              	.LVL67:
 960              	.LEHE0:
 961 042c 97070000 		lla	a5,_ZTV14PeriodicThread+16
 961      93870700 
 962 0434 23B0F400 		sd	a5,0(s1)
GAS LISTING /tmp/ccwGWzEA.s 			page 23


 963              	.LBB24:
  91:src/syscall_cpp.cpp ****     this->period = period;
 964              		.loc 2 91 5 is_stmt 1
 965              		.loc 2 91 18 is_stmt 0
 966 0438 23B82401 		sd	s2,16(s1)
  92:src/syscall_cpp.cpp **** 
  93:src/syscall_cpp.cpp ****     periodic_s* ps = (periodic_s*) __mem_alloc(sizeof(periodic_s));
 967              		.loc 2 93 5 is_stmt 1
 968              		.loc 2 93 47 is_stmt 0
 969 043c 13050001 		li	a0,16
 970              	.LEHB1:
 971 0440 97000000 		call	__mem_alloc@plt
 971      E7800000 
 972              	.LVL68:
 973 0448 13060500 		mv	a2,a0
 974              	.LVL69:
  94:src/syscall_cpp.cpp ****     ps->periodic_thread = this;
 975              		.loc 2 94 5 is_stmt 1
 976              		.loc 2 94 25 is_stmt 0
 977 044c 23309500 		sd	s1,0(a0)
  95:src/syscall_cpp.cpp ****     ps->period = period;
 978              		.loc 2 95 5 is_stmt 1
 979              		.loc 2 95 16 is_stmt 0
 980 0450 23342501 		sd	s2,8(a0)
  96:src/syscall_cpp.cpp **** 
  97:src/syscall_cpp.cpp ****     Thread(PeriodicThread::wrapper, ps);
 981              		.loc 2 97 5 is_stmt 1
 982 0454 97050000 		lla	a1,_ZN14PeriodicThread7wrapperEPv
 982      93850500 
 983 045c 130504FD 		addi	a0,s0,-48
 984              	.LVL70:
 985 0460 97000000 		call	_ZN6ThreadC1EPFvPvES0_
 985      E7800000 
 986              	.LVL71:
 987              	.LEHE1:
 988              		.loc 2 97 5 is_stmt 0 discriminator 1
 989 0468 130504FD 		addi	a0,s0,-48
 990 046c 97000000 		call	_ZN6ThreadD1Ev
 990      E7800000 
 991              	.LVL72:
 992              	.LBE24:
 993              	.LBE23:
  98:src/syscall_cpp.cpp **** }
 994              		.loc 2 98 1 discriminator 1
 995 0474 83308102 		ld	ra,40(sp)
 996              		.cfi_remember_state
 997              		.cfi_restore 1
 998 0478 03340102 		ld	s0,32(sp)
 999              		.cfi_restore 8
 1000              		.cfi_def_cfa 2, 48
 1001 047c 83348101 		ld	s1,24(sp)
 1002              		.cfi_restore 9
 1003              	.LVL73:
 1004 0480 03390101 		ld	s2,16(sp)
 1005              		.cfi_restore 18
 1006              	.LVL74:
 1007 0484 13010103 		addi	sp,sp,48
GAS LISTING /tmp/ccwGWzEA.s 			page 24


 1008              		.cfi_def_cfa_offset 0
 1009 0488 67800000 		jr	ra
 1010              	.LVL75:
 1011              	.L58:
 1012              		.cfi_restore_state
 1013 048c 13090500 		mv	s2,a0
 1014              	.LVL76:
 1015              	.LBB25:
  90:src/syscall_cpp.cpp ****     this->period = period;
 1016              		.loc 2 90 45
 1017 0490 13850400 		mv	a0,s1
 1018 0494 97000000 		call	_ZN6ThreadD2Ev
 1018      E7800000 
 1019              	.LVL77:
 1020 049c 13050900 		mv	a0,s2
 1021              	.LEHB2:
 1022 04a0 97000000 		call	_Unwind_Resume@plt
 1022      E7800000 
 1023              	.LVL78:
 1024              	.LEHE2:
 1025              	.LBE25:
 1026              		.cfi_endproc
 1027              	.LFE71:
 1028              		.section	.gcc_except_table
 1029              	.LLSDA71:
 1030 0008 FF       		.byte	0xff
 1031 0009 FF       		.byte	0xff
 1032 000a 03       		.byte	0x3
 1033 000b 27       		.byte	0x27
 1034 000c 00000000 		.4byte	.LEHB0-.LFB71
 1035 0010 00000000 		.4byte	.LEHE0-.LEHB0
 1036 0014 00000000 		.4byte	0
 1037 0018 00       		.byte	0
 1038 0019 00000000 		.4byte	.LEHB1-.LFB71
 1039 001d 00000000 		.4byte	.LEHE1-.LEHB1
 1040 0021 00000000 		.4byte	.L58-.LFB71
 1041 0025 00       		.byte	0
 1042 0026 00000000 		.4byte	.LEHB2-.LFB71
 1043 002a 00000000 		.4byte	.LEHE2-.LEHB2
 1044 002e 00000000 		.4byte	0
 1045 0032 00       		.byte	0
 1046              		.text
 1048              		.globl	_ZN14PeriodicThreadC1Em
 1049              		.set	_ZN14PeriodicThreadC1Em,_ZN14PeriodicThreadC2Em
 1050              		.align	2
 1051              		.globl	_ZN7Console4getcEv
 1053              	_ZN7Console4getcEv:
 1054              	.LFB73:
  99:src/syscall_cpp.cpp **** 
 100:src/syscall_cpp.cpp **** char Console::getc() {
 1055              		.loc 2 100 22 is_stmt 1
 1056              		.cfi_startproc
 1057 04a8 130101FF 		addi	sp,sp,-16
 1058              		.cfi_def_cfa_offset 16
 1059 04ac 23341100 		sd	ra,8(sp)
 1060 04b0 23308100 		sd	s0,0(sp)
 1061              		.cfi_offset 1, -8
GAS LISTING /tmp/ccwGWzEA.s 			page 25


 1062              		.cfi_offset 8, -16
 1063 04b4 13040101 		addi	s0,sp,16
 1064              		.cfi_def_cfa 8, 0
 101:src/syscall_cpp.cpp ****     return __getc();
 1065              		.loc 2 101 5
 1066              		.loc 2 101 18 is_stmt 0
 1067 04b8 97000000 		call	__getc@plt
 1067      E7800000 
 1068              	.LVL79:
 102:src/syscall_cpp.cpp **** }
 1069              		.loc 2 102 1
 1070 04c0 83308100 		ld	ra,8(sp)
 1071              		.cfi_restore 1
 1072 04c4 03340100 		ld	s0,0(sp)
 1073              		.cfi_restore 8
 1074              		.cfi_def_cfa 2, 16
 1075 04c8 13010101 		addi	sp,sp,16
 1076              		.cfi_def_cfa_offset 0
 1077 04cc 67800000 		jr	ra
 1078              		.cfi_endproc
 1079              	.LFE73:
 1081              		.align	2
 1082              		.globl	_ZN7Console4putcEc
 1084              	_ZN7Console4putcEc:
 1085              	.LFB74:
 103:src/syscall_cpp.cpp **** 
 104:src/syscall_cpp.cpp **** void Console::putc(char c) {
 1086              		.loc 2 104 28 is_stmt 1
 1087              		.cfi_startproc
 1088              	.LVL80:
 1089 04d0 130101FF 		addi	sp,sp,-16
 1090              		.cfi_def_cfa_offset 16
 1091 04d4 23341100 		sd	ra,8(sp)
 1092 04d8 23308100 		sd	s0,0(sp)
 1093              		.cfi_offset 1, -8
 1094              		.cfi_offset 8, -16
 1095 04dc 13040101 		addi	s0,sp,16
 1096              		.cfi_def_cfa 8, 0
 105:src/syscall_cpp.cpp ****     __putc(c);
 1097              		.loc 2 105 5
 1098              		.loc 2 105 11 is_stmt 0
 1099 04e0 97000000 		call	__putc@plt
 1099      E7800000 
 1100              	.LVL81:
 106:src/syscall_cpp.cpp **** }
 1101              		.loc 2 106 1
 1102 04e8 83308100 		ld	ra,8(sp)
 1103              		.cfi_restore 1
 1104 04ec 03340100 		ld	s0,0(sp)
 1105              		.cfi_restore 8
 1106              		.cfi_def_cfa 2, 16
 1107 04f0 13010101 		addi	sp,sp,16
 1108              		.cfi_def_cfa_offset 0
 1109 04f4 67800000 		jr	ra
 1110              		.cfi_endproc
 1111              	.LFE74:
 1113              		.weak	_ZTV14PeriodicThread
GAS LISTING /tmp/ccwGWzEA.s 			page 26


 1114              		.section	.data.rel.ro.local._ZTV14PeriodicThread,"awG",@progbits,_ZTV14PeriodicThread,comdat
 1115              		.align	3
 1118              	_ZTV14PeriodicThread:
 1119 0000 00000000 		.dword	0
 1119      00000000 
 1120 0008 00000000 		.dword	0
 1120      00000000 
 1121 0010 00000000 		.dword	_ZN14PeriodicThreadD1Ev
 1121      00000000 
 1122 0018 00000000 		.dword	_ZN14PeriodicThreadD0Ev
 1122      00000000 
 1123 0020 00000000 		.dword	_ZN6Thread3runEv
 1123      00000000 
 1124 0028 00000000 		.dword	_ZN14PeriodicThread18periodicActivationEv
 1124      00000000 
 1125              		.weak	_ZTV6Thread
 1126              		.section	.data.rel.ro.local._ZTV6Thread,"awG",@progbits,_ZTV6Thread,comdat
 1127              		.align	3
 1130              	_ZTV6Thread:
 1131 0000 00000000 		.dword	0
 1131      00000000 
 1132 0008 00000000 		.dword	0
 1132      00000000 
 1133 0010 00000000 		.dword	_ZN6ThreadD1Ev
 1133      00000000 
 1134 0018 00000000 		.dword	_ZN6ThreadD0Ev
 1134      00000000 
 1135 0020 00000000 		.dword	_ZN6Thread3runEv
 1135      00000000 
 1136              		.weak	_ZTV9Semaphore
 1137              		.section	.data.rel.ro.local._ZTV9Semaphore,"awG",@progbits,_ZTV9Semaphore,comdat
 1138              		.align	3
 1141              	_ZTV9Semaphore:
 1142 0000 00000000 		.dword	0
 1142      00000000 
 1143 0008 00000000 		.dword	0
 1143      00000000 
 1144 0010 00000000 		.dword	_ZN9SemaphoreD1Ev
 1144      00000000 
 1145 0018 00000000 		.dword	_ZN9SemaphoreD0Ev
 1145      00000000 
 1146              		.text
 1147              	.Letext0:
 1148              		.file 4 "src/../h/../lib/hw.h"
 1149              		.file 5 "src/../h/../h/syscall_c.h"
 1150              		.file 6 "src/../h/../h/../h/../h/sem.hpp"
 1151              		.file 7 "src/../lib/console.h"
 1152              		.file 8 "src/../h/../lib/mem.h"
 5824              		.align	3
 5827              	DW.ref.__gxx_personality_v0:
 5828 0000 00000000 		.dword	__gxx_personality_v0
 5828      00000000 
 5829              		.ident	"GCC: (Ubuntu 9.4.0-1ubuntu1~20.04) 9.4.0"
 5830              		.section	.note.GNU-stack,"",@progbits
GAS LISTING /tmp/ccwGWzEA.s 			page 27


DEFINED SYMBOLS
                            *ABS*:0000000000000000 syscall_cpp.cpp
     /tmp/ccwGWzEA.s:10     .text._ZN6Thread3runEv:0000000000000000 _ZN6Thread3runEv
     /tmp/ccwGWzEA.s:14     .text._ZN6Thread3runEv:0000000000000000 .L0 
     /tmp/ccwGWzEA.s:16     .text._ZN6Thread3runEv:0000000000000000 .L0 
     /tmp/ccwGWzEA.s:17     .text._ZN6Thread3runEv:0000000000000004 .L0 
     /tmp/ccwGWzEA.s:19     .text._ZN6Thread3runEv:0000000000000008 .L0 
     /tmp/ccwGWzEA.s:21     .text._ZN6Thread3runEv:000000000000000c .L0 
     /tmp/ccwGWzEA.s:23     .text._ZN6Thread3runEv:000000000000000c .L0 
     /tmp/ccwGWzEA.s:24     .text._ZN6Thread3runEv:0000000000000010 .L0 
     /tmp/ccwGWzEA.s:25     .text._ZN6Thread3runEv:0000000000000010 .L0 
     /tmp/ccwGWzEA.s:27     .text._ZN6Thread3runEv:0000000000000014 .L0 
     /tmp/ccwGWzEA.s:29     .text._ZN6Thread3runEv:0000000000000018 .L0 
     /tmp/ccwGWzEA.s:36     .text._ZN14PeriodicThread18periodicActivationEv:0000000000000000 _ZN14PeriodicThread18periodicActivationEv
     /tmp/ccwGWzEA.s:39     .text._ZN14PeriodicThread18periodicActivationEv:0000000000000000 .L0 
     /tmp/ccwGWzEA.s:41     .text._ZN14PeriodicThread18periodicActivationEv:0000000000000000 .L0 
     /tmp/ccwGWzEA.s:42     .text._ZN14PeriodicThread18periodicActivationEv:0000000000000004 .L0 
     /tmp/ccwGWzEA.s:44     .text._ZN14PeriodicThread18periodicActivationEv:0000000000000008 .L0 
     /tmp/ccwGWzEA.s:46     .text._ZN14PeriodicThread18periodicActivationEv:000000000000000c .L0 
     /tmp/ccwGWzEA.s:48     .text._ZN14PeriodicThread18periodicActivationEv:000000000000000c .L0 
     /tmp/ccwGWzEA.s:49     .text._ZN14PeriodicThread18periodicActivationEv:0000000000000010 .L0 
     /tmp/ccwGWzEA.s:50     .text._ZN14PeriodicThread18periodicActivationEv:0000000000000010 .L0 
     /tmp/ccwGWzEA.s:52     .text._ZN14PeriodicThread18periodicActivationEv:0000000000000014 .L0 
     /tmp/ccwGWzEA.s:54     .text._ZN14PeriodicThread18periodicActivationEv:0000000000000018 .L0 
     /tmp/ccwGWzEA.s:61     .text:0000000000000000 _ZN6Thread13threadWrapperEPv
     /tmp/ccwGWzEA.s:65     .text:0000000000000000 .L0 
     /tmp/ccwGWzEA.s:67     .text:0000000000000000 .L0 
     /tmp/ccwGWzEA.s:68     .text:0000000000000004 .L0 
     /tmp/ccwGWzEA.s:71     .text:000000000000000c .L0 
     /tmp/ccwGWzEA.s:72     .text:000000000000000c .L0 
     /tmp/ccwGWzEA.s:74     .text:0000000000000010 .L0 
     /tmp/ccwGWzEA.s:76     .text:0000000000000010 .L0 
     /tmp/ccwGWzEA.s:77     .text:0000000000000010 .L0 
     /tmp/ccwGWzEA.s:80     .text:0000000000000018 .L0 
     /tmp/ccwGWzEA.s:83     .text:000000000000001c .L0 
     /tmp/ccwGWzEA.s:84     .text:0000000000000020 .L0 
     /tmp/ccwGWzEA.s:86     .text:0000000000000024 .L0 
     /tmp/ccwGWzEA.s:87     .text:0000000000000024 .L0 
     /tmp/ccwGWzEA.s:89     .text:0000000000000028 .L0 
     /tmp/ccwGWzEA.s:91     .text:000000000000002c .L0 
     /tmp/ccwGWzEA.s:97     .text:000000000000002c _ZN14PeriodicThread7wrapperEPv
     /tmp/ccwGWzEA.s:100    .text:000000000000002c .L0 
     /tmp/ccwGWzEA.s:102    .text:000000000000002c .L0 
     /tmp/ccwGWzEA.s:103    .text:0000000000000030 .L0 
     /tmp/ccwGWzEA.s:107    .text:000000000000003c .L0 
     /tmp/ccwGWzEA.s:108    .text:000000000000003c .L0 
     /tmp/ccwGWzEA.s:109    .text:000000000000003c .L0 
     /tmp/ccwGWzEA.s:111    .text:0000000000000040 .L0 
     /tmp/ccwGWzEA.s:116    .text:0000000000000044 .L0 
     /tmp/ccwGWzEA.s:117    .text:0000000000000044 .L0 
     /tmp/ccwGWzEA.s:118    .text:0000000000000044 .L0 
     /tmp/ccwGWzEA.s:119    .text:0000000000000044 .L0 
     /tmp/ccwGWzEA.s:123    .text:0000000000000050 .L0 
     /tmp/ccwGWzEA.s:124    .text:0000000000000050 .L0 
     /tmp/ccwGWzEA.s:126    .text:0000000000000054 .L0 
     /tmp/ccwGWzEA.s:129    .text:000000000000005c .L0 
     /tmp/ccwGWzEA.s:132    .text:0000000000000060 .L0 
GAS LISTING /tmp/ccwGWzEA.s 			page 28


     /tmp/ccwGWzEA.s:133    .text:0000000000000064 .L0 
     /tmp/ccwGWzEA.s:139    .text:0000000000000064 _ZN9SemaphoreD2Ev
     /tmp/ccwGWzEA.s:142    .text:0000000000000064 .L0 
     /tmp/ccwGWzEA.s:5827   .data.rel.local.DW.ref.__gxx_personality_v0:0000000000000000 DW.ref.__gxx_personality_v0
     /tmp/ccwGWzEA.s:146    .text:0000000000000064 .L0 
     /tmp/ccwGWzEA.s:147    .text:0000000000000068 .L0 
     /tmp/ccwGWzEA.s:150    .text:0000000000000070 .L0 
     /tmp/ccwGWzEA.s:151    .text:0000000000000070 .L0 
     /tmp/ccwGWzEA.s:153    .text:0000000000000074 .L0 
     /tmp/ccwGWzEA.s:1141   .data.rel.ro.local._ZTV9Semaphore:0000000000000000 _ZTV9Semaphore
     /tmp/ccwGWzEA.s:156    .text:0000000000000074 .L0 
     /tmp/ccwGWzEA.s:159    .text:0000000000000080 .L0 
     /tmp/ccwGWzEA.s:160    .text:0000000000000080 .L0 
     /tmp/ccwGWzEA.s:166    .text:000000000000008c .L0 
     /tmp/ccwGWzEA.s:167    .text:0000000000000090 .L0 
     /tmp/ccwGWzEA.s:169    .text:0000000000000094 .L0 
     /tmp/ccwGWzEA.s:170    .text:0000000000000094 .L0 
     /tmp/ccwGWzEA.s:172    .text:0000000000000098 .L0 
     /tmp/ccwGWzEA.s:174    .text:000000000000009c .L0 
     /tmp/ccwGWzEA.s:139    .text:0000000000000064 _ZN9SemaphoreD1Ev
     /tmp/ccwGWzEA.s:190    .text:000000000000009c _Znwm
     /tmp/ccwGWzEA.s:193    .text:000000000000009c .L0 
     /tmp/ccwGWzEA.s:195    .text:000000000000009c .L0 
     /tmp/ccwGWzEA.s:196    .text:00000000000000a0 .L0 
     /tmp/ccwGWzEA.s:199    .text:00000000000000a8 .L0 
     /tmp/ccwGWzEA.s:200    .text:00000000000000a8 .L0 
     /tmp/ccwGWzEA.s:202    .text:00000000000000ac .L0 
     /tmp/ccwGWzEA.s:204    .text:00000000000000ac .L0 
     /tmp/ccwGWzEA.s:205    .text:00000000000000ac .L0 
     /tmp/ccwGWzEA.s:208    .text:00000000000000b4 .L0 
     /tmp/ccwGWzEA.s:209    .text:00000000000000b8 .L0 
     /tmp/ccwGWzEA.s:211    .text:00000000000000bc .L0 
     /tmp/ccwGWzEA.s:212    .text:00000000000000bc .L0 
     /tmp/ccwGWzEA.s:214    .text:00000000000000c0 .L0 
     /tmp/ccwGWzEA.s:216    .text:00000000000000c4 .L0 
     /tmp/ccwGWzEA.s:222    .text:00000000000000c4 _Znam
     /tmp/ccwGWzEA.s:225    .text:00000000000000c4 .L0 
     /tmp/ccwGWzEA.s:227    .text:00000000000000c4 .L0 
     /tmp/ccwGWzEA.s:228    .text:00000000000000c8 .L0 
     /tmp/ccwGWzEA.s:231    .text:00000000000000d0 .L0 
     /tmp/ccwGWzEA.s:232    .text:00000000000000d0 .L0 
     /tmp/ccwGWzEA.s:234    .text:00000000000000d4 .L0 
     /tmp/ccwGWzEA.s:236    .text:00000000000000d4 .L0 
     /tmp/ccwGWzEA.s:237    .text:00000000000000d4 .L0 
     /tmp/ccwGWzEA.s:240    .text:00000000000000dc .L0 
     /tmp/ccwGWzEA.s:241    .text:00000000000000e0 .L0 
     /tmp/ccwGWzEA.s:243    .text:00000000000000e4 .L0 
     /tmp/ccwGWzEA.s:244    .text:00000000000000e4 .L0 
     /tmp/ccwGWzEA.s:246    .text:00000000000000e8 .L0 
     /tmp/ccwGWzEA.s:248    .text:00000000000000ec .L0 
     /tmp/ccwGWzEA.s:254    .text:00000000000000ec _ZdlPv
     /tmp/ccwGWzEA.s:257    .text:00000000000000ec .L0 
     /tmp/ccwGWzEA.s:259    .text:00000000000000ec .L0 
     /tmp/ccwGWzEA.s:260    .text:00000000000000f0 .L0 
     /tmp/ccwGWzEA.s:263    .text:00000000000000f8 .L0 
     /tmp/ccwGWzEA.s:264    .text:00000000000000f8 .L0 
     /tmp/ccwGWzEA.s:266    .text:00000000000000fc .L0 
GAS LISTING /tmp/ccwGWzEA.s 			page 29


     /tmp/ccwGWzEA.s:268    .text:00000000000000fc .L0 
     /tmp/ccwGWzEA.s:269    .text:00000000000000fc .L0 
     /tmp/ccwGWzEA.s:272    .text:0000000000000104 .L0 
     /tmp/ccwGWzEA.s:273    .text:0000000000000108 .L0 
     /tmp/ccwGWzEA.s:275    .text:000000000000010c .L0 
     /tmp/ccwGWzEA.s:276    .text:000000000000010c .L0 
     /tmp/ccwGWzEA.s:278    .text:0000000000000110 .L0 
     /tmp/ccwGWzEA.s:280    .text:0000000000000114 .L0 
     /tmp/ccwGWzEA.s:286    .text:0000000000000114 _ZN9SemaphoreD0Ev
     /tmp/ccwGWzEA.s:289    .text:0000000000000114 .L0 
     /tmp/ccwGWzEA.s:291    .text:0000000000000114 .L0 
     /tmp/ccwGWzEA.s:292    .text:0000000000000118 .L0 
     /tmp/ccwGWzEA.s:296    .text:0000000000000124 .L0 
     /tmp/ccwGWzEA.s:297    .text:0000000000000124 .L0 
     /tmp/ccwGWzEA.s:298    .text:0000000000000124 .L0 
     /tmp/ccwGWzEA.s:300    .text:0000000000000128 .L0 
     /tmp/ccwGWzEA.s:303    .text:000000000000012c .L0 
     /tmp/ccwGWzEA.s:309    .text:0000000000000144 .L0 
     /tmp/ccwGWzEA.s:311    .text:0000000000000148 .L0 
     /tmp/ccwGWzEA.s:312    .text:0000000000000148 .L0 
     /tmp/ccwGWzEA.s:314    .text:000000000000014c .L0 
     /tmp/ccwGWzEA.s:317    .text:0000000000000150 .L0 
     /tmp/ccwGWzEA.s:319    .text:0000000000000154 .L0 
     /tmp/ccwGWzEA.s:325    .text:0000000000000154 _ZdaPv
     /tmp/ccwGWzEA.s:328    .text:0000000000000154 .L0 
     /tmp/ccwGWzEA.s:330    .text:0000000000000154 .L0 
     /tmp/ccwGWzEA.s:331    .text:0000000000000158 .L0 
     /tmp/ccwGWzEA.s:334    .text:0000000000000160 .L0 
     /tmp/ccwGWzEA.s:335    .text:0000000000000160 .L0 
     /tmp/ccwGWzEA.s:337    .text:0000000000000164 .L0 
     /tmp/ccwGWzEA.s:339    .text:0000000000000164 .L0 
     /tmp/ccwGWzEA.s:340    .text:0000000000000164 .L0 
     /tmp/ccwGWzEA.s:343    .text:000000000000016c .L0 
     /tmp/ccwGWzEA.s:344    .text:0000000000000170 .L0 
     /tmp/ccwGWzEA.s:346    .text:0000000000000174 .L0 
     /tmp/ccwGWzEA.s:347    .text:0000000000000174 .L0 
     /tmp/ccwGWzEA.s:349    .text:0000000000000178 .L0 
     /tmp/ccwGWzEA.s:351    .text:000000000000017c .L0 
     /tmp/ccwGWzEA.s:357    .text:000000000000017c _ZN6ThreadD2Ev
     /tmp/ccwGWzEA.s:360    .text:000000000000017c .L0 
     /tmp/ccwGWzEA.s:364    .text:000000000000017c .L0 
     /tmp/ccwGWzEA.s:365    .text:0000000000000180 .L0 
     /tmp/ccwGWzEA.s:369    .text:000000000000018c .L0 
     /tmp/ccwGWzEA.s:370    .text:000000000000018c .L0 
     /tmp/ccwGWzEA.s:371    .text:000000000000018c .L0 
     /tmp/ccwGWzEA.s:373    .text:0000000000000190 .L0 
     /tmp/ccwGWzEA.s:1130   .data.rel.ro.local._ZTV6Thread:0000000000000000 _ZTV6Thread
     /tmp/ccwGWzEA.s:376    .text:0000000000000190 .L0 
     /tmp/ccwGWzEA.s:379    .text:000000000000019c .L0 
     /tmp/ccwGWzEA.s:385    .text:00000000000001a0 .L0 
     /tmp/ccwGWzEA.s:386    .text:00000000000001a0 .L0 
     /tmp/ccwGWzEA.s:392    .text:00000000000001a8 .L0 
     /tmp/ccwGWzEA.s:393    .text:00000000000001a8 .L0 
     /tmp/ccwGWzEA.s:395    .text:00000000000001ac .L0 
     /tmp/ccwGWzEA.s:400    .text:00000000000001b0 .L0 
     /tmp/ccwGWzEA.s:401    .text:00000000000001b0 .L0 
     /tmp/ccwGWzEA.s:404    .text:00000000000001b4 .L0 
GAS LISTING /tmp/ccwGWzEA.s 			page 30


     /tmp/ccwGWzEA.s:406    .text:00000000000001b8 .L0 
     /tmp/ccwGWzEA.s:412    .text:00000000000001c0 .L0 
     /tmp/ccwGWzEA.s:418    .text:00000000000001cc .L0 
     /tmp/ccwGWzEA.s:419    .text:00000000000001d0 .L0 
     /tmp/ccwGWzEA.s:421    .text:00000000000001d4 .L0 
     /tmp/ccwGWzEA.s:422    .text:00000000000001d4 .L0 
     /tmp/ccwGWzEA.s:424    .text:00000000000001d8 .L0 
     /tmp/ccwGWzEA.s:426    .text:00000000000001dc .L0 
     /tmp/ccwGWzEA.s:428    .text:00000000000001e0 .L0 
     /tmp/ccwGWzEA.s:357    .text:000000000000017c _ZN6ThreadD1Ev
     /tmp/ccwGWzEA.s:443    .text:00000000000001e0 _ZN6ThreadD0Ev
     /tmp/ccwGWzEA.s:446    .text:00000000000001e0 .L0 
     /tmp/ccwGWzEA.s:448    .text:00000000000001e0 .L0 
     /tmp/ccwGWzEA.s:449    .text:00000000000001e4 .L0 
     /tmp/ccwGWzEA.s:453    .text:00000000000001f0 .L0 
     /tmp/ccwGWzEA.s:454    .text:00000000000001f0 .L0 
     /tmp/ccwGWzEA.s:455    .text:00000000000001f0 .L0 
     /tmp/ccwGWzEA.s:457    .text:00000000000001f4 .L0 
     /tmp/ccwGWzEA.s:460    .text:00000000000001f8 .L0 
     /tmp/ccwGWzEA.s:466    .text:0000000000000210 .L0 
     /tmp/ccwGWzEA.s:468    .text:0000000000000214 .L0 
     /tmp/ccwGWzEA.s:469    .text:0000000000000214 .L0 
     /tmp/ccwGWzEA.s:471    .text:0000000000000218 .L0 
     /tmp/ccwGWzEA.s:474    .text:000000000000021c .L0 
     /tmp/ccwGWzEA.s:476    .text:0000000000000220 .L0 
     /tmp/ccwGWzEA.s:483    .text._ZN14PeriodicThreadD2Ev:0000000000000000 _ZN14PeriodicThreadD2Ev
     /tmp/ccwGWzEA.s:486    .text._ZN14PeriodicThreadD2Ev:0000000000000000 .L0 
     /tmp/ccwGWzEA.s:488    .text._ZN14PeriodicThreadD2Ev:0000000000000000 .L0 
     /tmp/ccwGWzEA.s:489    .text._ZN14PeriodicThreadD2Ev:0000000000000004 .L0 
     /tmp/ccwGWzEA.s:492    .text._ZN14PeriodicThreadD2Ev:000000000000000c .L0 
     /tmp/ccwGWzEA.s:493    .text._ZN14PeriodicThreadD2Ev:000000000000000c .L0 
     /tmp/ccwGWzEA.s:495    .text._ZN14PeriodicThreadD2Ev:0000000000000010 .L0 
     /tmp/ccwGWzEA.s:1118   .data.rel.ro.local._ZTV14PeriodicThread:0000000000000000 _ZTV14PeriodicThread
     /tmp/ccwGWzEA.s:498    .text._ZN14PeriodicThreadD2Ev:0000000000000010 .L0 
     /tmp/ccwGWzEA.s:504    .text._ZN14PeriodicThreadD2Ev:0000000000000028 .L0 
     /tmp/ccwGWzEA.s:506    .text._ZN14PeriodicThreadD2Ev:000000000000002c .L0 
     /tmp/ccwGWzEA.s:507    .text._ZN14PeriodicThreadD2Ev:000000000000002c .L0 
     /tmp/ccwGWzEA.s:509    .text._ZN14PeriodicThreadD2Ev:0000000000000030 .L0 
     /tmp/ccwGWzEA.s:511    .text._ZN14PeriodicThreadD2Ev:0000000000000034 .L0 
     /tmp/ccwGWzEA.s:483    .text._ZN14PeriodicThreadD2Ev:0000000000000000 _ZN14PeriodicThreadD1Ev
     /tmp/ccwGWzEA.s:520    .text._ZN14PeriodicThreadD0Ev:0000000000000000 _ZN14PeriodicThreadD0Ev
     /tmp/ccwGWzEA.s:523    .text._ZN14PeriodicThreadD0Ev:0000000000000000 .L0 
     /tmp/ccwGWzEA.s:525    .text._ZN14PeriodicThreadD0Ev:0000000000000000 .L0 
     /tmp/ccwGWzEA.s:526    .text._ZN14PeriodicThreadD0Ev:0000000000000004 .L0 
     /tmp/ccwGWzEA.s:530    .text._ZN14PeriodicThreadD0Ev:0000000000000010 .L0 
     /tmp/ccwGWzEA.s:531    .text._ZN14PeriodicThreadD0Ev:0000000000000010 .L0 
     /tmp/ccwGWzEA.s:532    .text._ZN14PeriodicThreadD0Ev:0000000000000010 .L0 
     /tmp/ccwGWzEA.s:534    .text._ZN14PeriodicThreadD0Ev:0000000000000014 .L0 
     /tmp/ccwGWzEA.s:540    .text._ZN14PeriodicThreadD0Ev:0000000000000018 .L0 
     /tmp/ccwGWzEA.s:550    .text._ZN14PeriodicThreadD0Ev:000000000000003c .L0 
     /tmp/ccwGWzEA.s:552    .text._ZN14PeriodicThreadD0Ev:0000000000000040 .L0 
     /tmp/ccwGWzEA.s:553    .text._ZN14PeriodicThreadD0Ev:0000000000000040 .L0 
     /tmp/ccwGWzEA.s:555    .text._ZN14PeriodicThreadD0Ev:0000000000000044 .L0 
     /tmp/ccwGWzEA.s:558    .text._ZN14PeriodicThreadD0Ev:0000000000000048 .L0 
     /tmp/ccwGWzEA.s:560    .text._ZN14PeriodicThreadD0Ev:000000000000004c .L0 
     /tmp/ccwGWzEA.s:567    .text:0000000000000220 _ZN6ThreadC2EPFvPvES0_
     /tmp/ccwGWzEA.s:570    .text:0000000000000220 .L0 
GAS LISTING /tmp/ccwGWzEA.s 			page 31


     /tmp/ccwGWzEA.s:572    .text:0000000000000220 .L0 
     /tmp/ccwGWzEA.s:573    .text:0000000000000224 .L0 
     /tmp/ccwGWzEA.s:576    .text:000000000000022c .L0 
     /tmp/ccwGWzEA.s:577    .text:000000000000022c .L0 
     /tmp/ccwGWzEA.s:579    .text:0000000000000230 .L0 
     /tmp/ccwGWzEA.s:582    .text:0000000000000230 .L0 
     /tmp/ccwGWzEA.s:585    .text:000000000000023c .L0 
     /tmp/ccwGWzEA.s:586    .text:000000000000023c .L0 
     /tmp/ccwGWzEA.s:588    .text:0000000000000240 .L0 
     /tmp/ccwGWzEA.s:589    .text:0000000000000240 .L0 
     /tmp/ccwGWzEA.s:595    .text:000000000000024c .L0 
     /tmp/ccwGWzEA.s:596    .text:0000000000000250 .L0 
     /tmp/ccwGWzEA.s:598    .text:0000000000000254 .L0 
     /tmp/ccwGWzEA.s:599    .text:0000000000000254 .L0 
     /tmp/ccwGWzEA.s:601    .text:0000000000000258 .L0 
     /tmp/ccwGWzEA.s:603    .text:000000000000025c .L0 
     /tmp/ccwGWzEA.s:567    .text:0000000000000220 _ZN6ThreadC1EPFvPvES0_
     /tmp/ccwGWzEA.s:611    .text:000000000000025c _ZN6Thread5startEv
     /tmp/ccwGWzEA.s:614    .text:000000000000025c .L0 
     /tmp/ccwGWzEA.s:616    .text:000000000000025c .L0 
     /tmp/ccwGWzEA.s:617    .text:0000000000000260 .L0 
     /tmp/ccwGWzEA.s:619    .text:0000000000000264 .L0 
     /tmp/ccwGWzEA.s:621    .text:0000000000000268 .L0 
     /tmp/ccwGWzEA.s:623    .text:0000000000000268 .L0 
     /tmp/ccwGWzEA.s:624    .text:0000000000000268 .L0 
     /tmp/ccwGWzEA.s:627    .text:0000000000000270 .L0 
     /tmp/ccwGWzEA.s:628    .text:0000000000000270 .L0 
     /tmp/ccwGWzEA.s:630    .text:0000000000000274 .L0 
     /tmp/ccwGWzEA.s:632    .text:0000000000000278 .L0 
     /tmp/ccwGWzEA.s:638    .text:0000000000000278 _ZN6Thread4joinEv
     /tmp/ccwGWzEA.s:641    .text:0000000000000278 .L0 
     /tmp/ccwGWzEA.s:643    .text:0000000000000278 .L0 
     /tmp/ccwGWzEA.s:644    .text:0000000000000278 .L0 
     /tmp/ccwGWzEA.s:645    .text:0000000000000278 .L0 
     /tmp/ccwGWzEA.s:648    .text:000000000000027c .L0 
     /tmp/ccwGWzEA.s:650    .text:0000000000000280 .L0 
     /tmp/ccwGWzEA.s:651    .text:0000000000000284 .L0 
     /tmp/ccwGWzEA.s:654    .text:000000000000028c .L0 
     /tmp/ccwGWzEA.s:655    .text:000000000000028c .L0 
     /tmp/ccwGWzEA.s:657    .text:0000000000000290 .L0 
     /tmp/ccwGWzEA.s:659    .text:0000000000000290 .L0 
     /tmp/ccwGWzEA.s:660    .text:0000000000000290 .L0 
     /tmp/ccwGWzEA.s:663    .text:0000000000000298 .L0 
     /tmp/ccwGWzEA.s:664    .text:000000000000029c .L0 
     /tmp/ccwGWzEA.s:666    .text:00000000000002a0 .L0 
     /tmp/ccwGWzEA.s:667    .text:00000000000002a0 .L0 
     /tmp/ccwGWzEA.s:669    .text:00000000000002a4 .L0 
     /tmp/ccwGWzEA.s:673    .text:00000000000002ac .L0 
     /tmp/ccwGWzEA.s:679    .text:00000000000002ac _ZN6Thread8dispatchEv
     /tmp/ccwGWzEA.s:682    .text:00000000000002ac .L0 
     /tmp/ccwGWzEA.s:683    .text:00000000000002ac .L0 
     /tmp/ccwGWzEA.s:684    .text:00000000000002b0 .L0 
     /tmp/ccwGWzEA.s:687    .text:00000000000002b8 .L0 
     /tmp/ccwGWzEA.s:688    .text:00000000000002b8 .L0 
     /tmp/ccwGWzEA.s:690    .text:00000000000002bc .L0 
     /tmp/ccwGWzEA.s:692    .text:00000000000002bc .L0 
     /tmp/ccwGWzEA.s:693    .text:00000000000002bc .L0 
GAS LISTING /tmp/ccwGWzEA.s 			page 32


     /tmp/ccwGWzEA.s:696    .text:00000000000002c4 .L0 
     /tmp/ccwGWzEA.s:697    .text:00000000000002c8 .L0 
     /tmp/ccwGWzEA.s:699    .text:00000000000002cc .L0 
     /tmp/ccwGWzEA.s:700    .text:00000000000002cc .L0 
     /tmp/ccwGWzEA.s:702    .text:00000000000002d0 .L0 
     /tmp/ccwGWzEA.s:704    .text:00000000000002d4 .L0 
     /tmp/ccwGWzEA.s:710    .text:00000000000002d4 _ZN6Thread5sleepEm
     /tmp/ccwGWzEA.s:713    .text:00000000000002d4 .L0 
     /tmp/ccwGWzEA.s:715    .text:00000000000002d4 .L0 
     /tmp/ccwGWzEA.s:716    .text:00000000000002d8 .L0 
     /tmp/ccwGWzEA.s:719    .text:00000000000002e0 .L0 
     /tmp/ccwGWzEA.s:720    .text:00000000000002e0 .L0 
     /tmp/ccwGWzEA.s:722    .text:00000000000002e4 .L0 
     /tmp/ccwGWzEA.s:724    .text:00000000000002e4 .L0 
     /tmp/ccwGWzEA.s:725    .text:00000000000002e4 .L0 
     /tmp/ccwGWzEA.s:728    .text:00000000000002ec .L0 
     /tmp/ccwGWzEA.s:729    .text:00000000000002ec .L0 
     /tmp/ccwGWzEA.s:731    .text:00000000000002f4 .L0 
     /tmp/ccwGWzEA.s:733    .text:00000000000002f8 .L0 
     /tmp/ccwGWzEA.s:734    .text:00000000000002f8 .L0 
     /tmp/ccwGWzEA.s:736    .text:00000000000002fc .L0 
     /tmp/ccwGWzEA.s:738    .text:0000000000000300 .L0 
     /tmp/ccwGWzEA.s:744    .text:0000000000000300 _ZN6ThreadC2Ev
     /tmp/ccwGWzEA.s:747    .text:0000000000000300 .L0 
     /tmp/ccwGWzEA.s:749    .text:0000000000000300 .L0 
     /tmp/ccwGWzEA.s:750    .text:0000000000000304 .L0 
     /tmp/ccwGWzEA.s:753    .text:000000000000030c .L0 
     /tmp/ccwGWzEA.s:754    .text:000000000000030c .L0 
     /tmp/ccwGWzEA.s:756    .text:0000000000000310 .L0 
     /tmp/ccwGWzEA.s:759    .text:0000000000000310 .L0 
     /tmp/ccwGWzEA.s:762    .text:000000000000031c .L0 
     /tmp/ccwGWzEA.s:763    .text:000000000000031c .L0 
     /tmp/ccwGWzEA.s:765    .text:0000000000000320 .L0 
     /tmp/ccwGWzEA.s:766    .text:0000000000000320 .L0 
     /tmp/ccwGWzEA.s:774    .text:0000000000000338 .L0 
     /tmp/ccwGWzEA.s:775    .text:000000000000033c .L0 
     /tmp/ccwGWzEA.s:777    .text:0000000000000340 .L0 
     /tmp/ccwGWzEA.s:778    .text:0000000000000340 .L0 
     /tmp/ccwGWzEA.s:780    .text:0000000000000344 .L0 
     /tmp/ccwGWzEA.s:782    .text:0000000000000348 .L0 
     /tmp/ccwGWzEA.s:744    .text:0000000000000300 _ZN6ThreadC1Ev
     /tmp/ccwGWzEA.s:790    .text:0000000000000348 _ZN9SemaphoreC2Ej
     /tmp/ccwGWzEA.s:793    .text:0000000000000348 .L0 
     /tmp/ccwGWzEA.s:795    .text:0000000000000348 .L0 
     /tmp/ccwGWzEA.s:796    .text:000000000000034c .L0 
     /tmp/ccwGWzEA.s:799    .text:0000000000000354 .L0 
     /tmp/ccwGWzEA.s:800    .text:0000000000000354 .L0 
     /tmp/ccwGWzEA.s:802    .text:0000000000000358 .L0 
     /tmp/ccwGWzEA.s:805    .text:0000000000000358 .L0 
     /tmp/ccwGWzEA.s:808    .text:0000000000000364 .L0 
     /tmp/ccwGWzEA.s:809    .text:0000000000000364 .L0 
     /tmp/ccwGWzEA.s:811    .text:0000000000000368 .L0 
     /tmp/ccwGWzEA.s:812    .text:0000000000000368 .L0 
     /tmp/ccwGWzEA.s:818    .text:0000000000000374 .L0 
     /tmp/ccwGWzEA.s:819    .text:0000000000000378 .L0 
     /tmp/ccwGWzEA.s:821    .text:000000000000037c .L0 
     /tmp/ccwGWzEA.s:822    .text:000000000000037c .L0 
GAS LISTING /tmp/ccwGWzEA.s 			page 33


     /tmp/ccwGWzEA.s:824    .text:0000000000000380 .L0 
     /tmp/ccwGWzEA.s:826    .text:0000000000000384 .L0 
     /tmp/ccwGWzEA.s:790    .text:0000000000000348 _ZN9SemaphoreC1Ej
     /tmp/ccwGWzEA.s:834    .text:0000000000000384 _ZN9Semaphore4waitEv
     /tmp/ccwGWzEA.s:837    .text:0000000000000384 .L0 
     /tmp/ccwGWzEA.s:839    .text:0000000000000384 .L0 
     /tmp/ccwGWzEA.s:840    .text:0000000000000388 .L0 
     /tmp/ccwGWzEA.s:843    .text:0000000000000390 .L0 
     /tmp/ccwGWzEA.s:844    .text:0000000000000390 .L0 
     /tmp/ccwGWzEA.s:846    .text:0000000000000394 .L0 
     /tmp/ccwGWzEA.s:848    .text:0000000000000394 .L0 
     /tmp/ccwGWzEA.s:849    .text:0000000000000394 .L0 
     /tmp/ccwGWzEA.s:854    .text:00000000000003a0 .L0 
     /tmp/ccwGWzEA.s:855    .text:00000000000003a4 .L0 
     /tmp/ccwGWzEA.s:857    .text:00000000000003a8 .L0 
     /tmp/ccwGWzEA.s:858    .text:00000000000003a8 .L0 
     /tmp/ccwGWzEA.s:860    .text:00000000000003ac .L0 
     /tmp/ccwGWzEA.s:862    .text:00000000000003b0 .L0 
     /tmp/ccwGWzEA.s:868    .text:00000000000003b0 _ZN9Semaphore6signalEv
     /tmp/ccwGWzEA.s:871    .text:00000000000003b0 .L0 
     /tmp/ccwGWzEA.s:873    .text:00000000000003b0 .L0 
     /tmp/ccwGWzEA.s:874    .text:00000000000003b4 .L0 
     /tmp/ccwGWzEA.s:877    .text:00000000000003bc .L0 
     /tmp/ccwGWzEA.s:878    .text:00000000000003bc .L0 
     /tmp/ccwGWzEA.s:880    .text:00000000000003c0 .L0 
     /tmp/ccwGWzEA.s:882    .text:00000000000003c0 .L0 
     /tmp/ccwGWzEA.s:883    .text:00000000000003c0 .L0 
     /tmp/ccwGWzEA.s:888    .text:00000000000003cc .L0 
     /tmp/ccwGWzEA.s:889    .text:00000000000003d0 .L0 
     /tmp/ccwGWzEA.s:891    .text:00000000000003d4 .L0 
     /tmp/ccwGWzEA.s:892    .text:00000000000003d4 .L0 
     /tmp/ccwGWzEA.s:894    .text:00000000000003d8 .L0 
     /tmp/ccwGWzEA.s:896    .text:00000000000003dc .L0 
     /tmp/ccwGWzEA.s:902    .text:00000000000003dc _ZN14PeriodicThread9terminateEv
     /tmp/ccwGWzEA.s:905    .text:00000000000003dc .L0 
     /tmp/ccwGWzEA.s:907    .text:00000000000003dc .L0 
     /tmp/ccwGWzEA.s:908    .text:00000000000003e0 .L0 
     /tmp/ccwGWzEA.s:911    .text:00000000000003e8 .L0 
     /tmp/ccwGWzEA.s:912    .text:00000000000003e8 .L0 
     /tmp/ccwGWzEA.s:914    .text:00000000000003ec .L0 
     /tmp/ccwGWzEA.s:916    .text:00000000000003ec .L0 
     /tmp/ccwGWzEA.s:917    .text:00000000000003ec .L0 
     /tmp/ccwGWzEA.s:920    .text:00000000000003f4 .L0 
     /tmp/ccwGWzEA.s:921    .text:00000000000003f8 .L0 
     /tmp/ccwGWzEA.s:923    .text:00000000000003fc .L0 
     /tmp/ccwGWzEA.s:924    .text:00000000000003fc .L0 
     /tmp/ccwGWzEA.s:926    .text:0000000000000400 .L0 
     /tmp/ccwGWzEA.s:928    .text:0000000000000404 .L0 
     /tmp/ccwGWzEA.s:934    .text:0000000000000404 _ZN14PeriodicThreadC2Em
     /tmp/ccwGWzEA.s:937    .text:0000000000000404 .L0 
     /tmp/ccwGWzEA.s:941    .text:0000000000000404 .L0 
     /tmp/ccwGWzEA.s:942    .text:0000000000000408 .L0 
     /tmp/ccwGWzEA.s:947    .text:0000000000000418 .L0 
     /tmp/ccwGWzEA.s:948    .text:0000000000000418 .L0 
     /tmp/ccwGWzEA.s:949    .text:0000000000000418 .L0 
     /tmp/ccwGWzEA.s:950    .text:0000000000000418 .L0 
     /tmp/ccwGWzEA.s:952    .text:000000000000041c .L0 
GAS LISTING /tmp/ccwGWzEA.s 			page 34


     /tmp/ccwGWzEA.s:958    .text:0000000000000424 .L0 
     /tmp/ccwGWzEA.s:965    .text:0000000000000438 .L0 
     /tmp/ccwGWzEA.s:966    .text:0000000000000438 .L0 
     /tmp/ccwGWzEA.s:968    .text:000000000000043c .L0 
     /tmp/ccwGWzEA.s:969    .text:000000000000043c .L0 
     /tmp/ccwGWzEA.s:976    .text:000000000000044c .L0 
     /tmp/ccwGWzEA.s:977    .text:000000000000044c .L0 
     /tmp/ccwGWzEA.s:979    .text:0000000000000450 .L0 
     /tmp/ccwGWzEA.s:980    .text:0000000000000450 .L0 
     /tmp/ccwGWzEA.s:982    .text:0000000000000454 .L0 
     /tmp/ccwGWzEA.s:989    .text:0000000000000468 .L0 
     /tmp/ccwGWzEA.s:995    .text:0000000000000474 .L0 
     /tmp/ccwGWzEA.s:996    .text:0000000000000478 .L0 
     /tmp/ccwGWzEA.s:997    .text:0000000000000478 .L0 
     /tmp/ccwGWzEA.s:999    .text:000000000000047c .L0 
     /tmp/ccwGWzEA.s:1000   .text:000000000000047c .L0 
     /tmp/ccwGWzEA.s:1002   .text:0000000000000480 .L0 
     /tmp/ccwGWzEA.s:1005   .text:0000000000000484 .L0 
     /tmp/ccwGWzEA.s:1008   .text:0000000000000488 .L0 
     /tmp/ccwGWzEA.s:1012   .text:000000000000048c .L0 
     /tmp/ccwGWzEA.s:1017   .text:0000000000000490 .L0 
     /tmp/ccwGWzEA.s:1026   .text:00000000000004a8 .L0 
     /tmp/ccwGWzEA.s:934    .text:0000000000000404 _ZN14PeriodicThreadC1Em
     /tmp/ccwGWzEA.s:1053   .text:00000000000004a8 _ZN7Console4getcEv
     /tmp/ccwGWzEA.s:1056   .text:00000000000004a8 .L0 
     /tmp/ccwGWzEA.s:1057   .text:00000000000004a8 .L0 
     /tmp/ccwGWzEA.s:1058   .text:00000000000004ac .L0 
     /tmp/ccwGWzEA.s:1061   .text:00000000000004b4 .L0 
     /tmp/ccwGWzEA.s:1062   .text:00000000000004b4 .L0 
     /tmp/ccwGWzEA.s:1064   .text:00000000000004b8 .L0 
     /tmp/ccwGWzEA.s:1066   .text:00000000000004b8 .L0 
     /tmp/ccwGWzEA.s:1067   .text:00000000000004b8 .L0 
     /tmp/ccwGWzEA.s:1070   .text:00000000000004c0 .L0 
     /tmp/ccwGWzEA.s:1071   .text:00000000000004c4 .L0 
     /tmp/ccwGWzEA.s:1073   .text:00000000000004c8 .L0 
     /tmp/ccwGWzEA.s:1074   .text:00000000000004c8 .L0 
     /tmp/ccwGWzEA.s:1076   .text:00000000000004cc .L0 
     /tmp/ccwGWzEA.s:1078   .text:00000000000004d0 .L0 
     /tmp/ccwGWzEA.s:1084   .text:00000000000004d0 _ZN7Console4putcEc
     /tmp/ccwGWzEA.s:1087   .text:00000000000004d0 .L0 
     /tmp/ccwGWzEA.s:1089   .text:00000000000004d0 .L0 
     /tmp/ccwGWzEA.s:1090   .text:00000000000004d4 .L0 
     /tmp/ccwGWzEA.s:1093   .text:00000000000004dc .L0 
     /tmp/ccwGWzEA.s:1094   .text:00000000000004dc .L0 
     /tmp/ccwGWzEA.s:1096   .text:00000000000004e0 .L0 
     /tmp/ccwGWzEA.s:1098   .text:00000000000004e0 .L0 
     /tmp/ccwGWzEA.s:1099   .text:00000000000004e0 .L0 
     /tmp/ccwGWzEA.s:1102   .text:00000000000004e8 .L0 
     /tmp/ccwGWzEA.s:1103   .text:00000000000004ec .L0 
     /tmp/ccwGWzEA.s:1105   .text:00000000000004f0 .L0 
     /tmp/ccwGWzEA.s:1106   .text:00000000000004f0 .L0 
     /tmp/ccwGWzEA.s:1108   .text:00000000000004f4 .L0 
     /tmp/ccwGWzEA.s:1110   .text:00000000000004f8 .L0 
     /tmp/ccwGWzEA.s:32     .text._ZN6Thread3runEv:0000000000000018 .L0 
     /tmp/ccwGWzEA.s:57     .text._ZN14PeriodicThread18periodicActivationEv:0000000000000018 .L0 
     /tmp/ccwGWzEA.s:1153   .text:00000000000004f8 .L0 
     /tmp/ccwGWzEA.s:516    .text._ZN14PeriodicThreadD2Ev:0000000000000034 .L0 
GAS LISTING /tmp/ccwGWzEA.s 			page 35


     /tmp/ccwGWzEA.s:563    .text._ZN14PeriodicThreadD0Ev:000000000000004c .L0 
     /tmp/ccwGWzEA.s:156    .text:0000000000000074 .L0 
     /tmp/ccwGWzEA.s:376    .text:0000000000000190 .L0 
     /tmp/ccwGWzEA.s:582    .text:0000000000000230 .L0 
     /tmp/ccwGWzEA.s:759    .text:0000000000000310 .L0 
     /tmp/ccwGWzEA.s:767    .text:0000000000000324 .L0 
     /tmp/ccwGWzEA.s:805    .text:0000000000000358 .L0 
     /tmp/ccwGWzEA.s:961    .text:000000000000042c .L0 
     /tmp/ccwGWzEA.s:982    .text:0000000000000454 .L0 
     /tmp/ccwGWzEA.s:115    .text:0000000000000044 .L8
     /tmp/ccwGWzEA.s:415    .text:00000000000001cc .L22
     /tmp/ccwGWzEA.s:408    .text:00000000000001c0 .L24
     /tmp/ccwGWzEA.s:671    .text:00000000000002a8 .L39
     /tmp/ccwGWzEA.s:955    .text:0000000000000424 .LEHB0
     /tmp/ccwGWzEA.s:935    .text:0000000000000404 .LFB71
     /tmp/ccwGWzEA.s:960    .text:000000000000042c .LEHE0
     /tmp/ccwGWzEA.s:970    .text:0000000000000440 .LEHB1
     /tmp/ccwGWzEA.s:987    .text:0000000000000468 .LEHE1
     /tmp/ccwGWzEA.s:1011   .text:000000000000048c .L58
     /tmp/ccwGWzEA.s:1021   .text:00000000000004a0 .LEHB2
     /tmp/ccwGWzEA.s:1024   .text:00000000000004a8 .LEHE2
     /tmp/ccwGWzEA.s:498    .text._ZN14PeriodicThreadD2Ev:0000000000000010 .L0 
     /tmp/ccwGWzEA.s:540    .text._ZN14PeriodicThreadD0Ev:0000000000000018 .L0 
     /tmp/ccwGWzEA.s:3469   .debug_abbrev:0000000000000000 .Ldebug_abbrev0
     /tmp/ccwGWzEA.s:5733   .debug_str:00000000000009cc .LASF200
     /tmp/ccwGWzEA.s:5561   .debug_str:0000000000000540 .LASF201
     /tmp/ccwGWzEA.s:5745   .debug_str:0000000000000ae6 .LASF202
     /tmp/ccwGWzEA.s:5375   .debug_ranges:0000000000000000 .Ldebug_ranges0
     /tmp/ccwGWzEA.s:5389   .debug_line:0000000000000000 .Ldebug_line0
     /tmp/ccwGWzEA.s:5549   .debug_str:00000000000004f2 .LASF0
     /tmp/ccwGWzEA.s:5575   .debug_str:00000000000005a5 .LASF1
     /tmp/ccwGWzEA.s:5669   .debug_str:000000000000081b .LASF2
     /tmp/ccwGWzEA.s:5677   .debug_str:0000000000000855 .LASF4
     /tmp/ccwGWzEA.s:5563   .debug_str:0000000000000554 .LASF3
     /tmp/ccwGWzEA.s:5407   .debug_str:00000000000000a2 .LASF5
     /tmp/ccwGWzEA.s:5643   .debug_str:0000000000000769 .LASF6
     /tmp/ccwGWzEA.s:5635   .debug_str:0000000000000734 .LASF7
     /tmp/ccwGWzEA.s:5569   .debug_str:0000000000000583 .LASF8
     /tmp/ccwGWzEA.s:5517   .debug_str:00000000000003b4 .LASF9
     /tmp/ccwGWzEA.s:5533   .debug_str:0000000000000478 .LASF10
     /tmp/ccwGWzEA.s:5441   .debug_str:0000000000000171 .LASF11
     /tmp/ccwGWzEA.s:5507   .debug_str:0000000000000373 .LASF12
     /tmp/ccwGWzEA.s:5461   .debug_str:000000000000020b .LASF13
     /tmp/ccwGWzEA.s:5439   .debug_str:0000000000000161 .LASF14
     /tmp/ccwGWzEA.s:5711   .debug_str:000000000000095a .LASF15
     /tmp/ccwGWzEA.s:5495   .debug_str:0000000000000311 .LASF16
     /tmp/ccwGWzEA.s:5701   .debug_str:0000000000000906 .LASF17
     /tmp/ccwGWzEA.s:5815   .debug_str:0000000000000ce9 .LASF18
     /tmp/ccwGWzEA.s:5513   .debug_str:0000000000000398 .LASF19
     /tmp/ccwGWzEA.s:5699   .debug_str:00000000000008f8 .LASF20
     /tmp/ccwGWzEA.s:5647   .debug_str:000000000000077e .LASF21
     /tmp/ccwGWzEA.s:5477   .debug_str:000000000000029a .LASF22
     /tmp/ccwGWzEA.s:5673   .debug_str:0000000000000838 .LASF23
     /tmp/ccwGWzEA.s:5445   .debug_str:0000000000000185 .LASF24
     /tmp/ccwGWzEA.s:5455   .debug_str:00000000000001d7 .LASF25
     /tmp/ccwGWzEA.s:5619   .debug_str:00000000000006e8 .LASF26
     /tmp/ccwGWzEA.s:5721   .debug_str:0000000000000983 .LASF27
GAS LISTING /tmp/ccwGWzEA.s 			page 36


     /tmp/ccwGWzEA.s:5791   .debug_str:0000000000000c39 .LASF28
     /tmp/ccwGWzEA.s:5565   .debug_str:0000000000000566 .LASF29
     /tmp/ccwGWzEA.s:5615   .debug_str:00000000000006cb .LASF30
     /tmp/ccwGWzEA.s:5771   .debug_str:0000000000000bb2 .LASF31
     /tmp/ccwGWzEA.s:5717   .debug_str:0000000000000976 .LASF79
     /tmp/ccwGWzEA.s:5631   .debug_str:0000000000000723 .LASF32
     /tmp/ccwGWzEA.s:5395   .debug_str:0000000000000035 .LASF33
     /tmp/ccwGWzEA.s:5801   .debug_str:0000000000000c7f .LASF34
     /tmp/ccwGWzEA.s:5693   .debug_str:00000000000008db .LASF35
     /tmp/ccwGWzEA.s:5749   .debug_str:0000000000000b16 .LASF36
     /tmp/ccwGWzEA.s:5661   .debug_str:00000000000007e6 .LASF37
     /tmp/ccwGWzEA.s:5715   .debug_str:000000000000096d .LASF38
     /tmp/ccwGWzEA.s:5627   .debug_str:0000000000000714 .LASF39
     /tmp/ccwGWzEA.s:5469   .debug_str:000000000000024e .LASF40
     /tmp/ccwGWzEA.s:5807   .debug_str:0000000000000ca2 .LASF41
     /tmp/ccwGWzEA.s:5571   .debug_str:0000000000000596 .LASF42
     /tmp/ccwGWzEA.s:5679   .debug_str:000000000000085c .LASF203
     /tmp/ccwGWzEA.s:5809   .debug_str:0000000000000ca7 .LASF204
     /tmp/ccwGWzEA.s:5797   .debug_str:0000000000000c6b .LASF109
     /tmp/ccwGWzEA.s:5401   .debug_str:0000000000000064 .LASF121
     /tmp/ccwGWzEA.s:5491   .debug_str:00000000000002ef .LASF43
     /tmp/ccwGWzEA.s:5399   .debug_str:000000000000004a .LASF45
     /tmp/ccwGWzEA.s:5485   .debug_str:00000000000002d6 .LASF44
     /tmp/ccwGWzEA.s:5453   .debug_str:00000000000001c4 .LASF46
     /tmp/ccwGWzEA.s:5731   .debug_str:00000000000009c4 .LASF47
     /tmp/ccwGWzEA.s:5805   .debug_str:0000000000000c94 .LASF52
     /tmp/ccwGWzEA.s:5539   .debug_str:00000000000004a3 .LASF54
     /tmp/ccwGWzEA.s:5577   .debug_str:00000000000005b8 .LASF142
     /tmp/ccwGWzEA.s:5739   .debug_str:0000000000000ab0 .LASF143
     /tmp/ccwGWzEA.s:5727   .debug_str:00000000000009aa .LASF48
     /tmp/ccwGWzEA.s:5509   .debug_str:0000000000000382 .LASF50
     /tmp/ccwGWzEA.s:5795   .debug_str:0000000000000c5a .LASF49
     /tmp/ccwGWzEA.s:5529   .debug_str:0000000000000443 .LASF51
     /tmp/ccwGWzEA.s:5633   .debug_str:0000000000000728 .LASF56
     /tmp/ccwGWzEA.s:5617   .debug_str:00000000000006d0 .LASF58
     /tmp/ccwGWzEA.s:5769   .debug_str:0000000000000ba5 .LASF53
     /tmp/ccwGWzEA.s:5467   .debug_str:0000000000000236 .LASF55
     /tmp/ccwGWzEA.s:5639   .debug_str:000000000000074c .LASF57
     /tmp/ccwGWzEA.s:5475   .debug_str:0000000000000282 .LASF59
     /tmp/ccwGWzEA.s:5779   .debug_str:0000000000000bde .LASF60
     /tmp/ccwGWzEA.s:5459   .debug_str:00000000000001f3 .LASF61
     /tmp/ccwGWzEA.s:5787   .debug_str:0000000000000c28 .LASF62
     /tmp/ccwGWzEA.s:5421   .debug_str:00000000000000ed .LASF63
     /tmp/ccwGWzEA.s:5553   .debug_str:0000000000000511 .LASF64
     /tmp/ccwGWzEA.s:5579   .debug_str:00000000000005be .LASF65
     /tmp/ccwGWzEA.s:5429   .debug_str:0000000000000120 .LASF66
     /tmp/ccwGWzEA.s:5691   .debug_str:00000000000008c8 .LASF67
     /tmp/ccwGWzEA.s:5767   .debug_str:0000000000000b9e .LASF68
     /tmp/ccwGWzEA.s:5589   .debug_str:000000000000060e .LASF69
     /tmp/ccwGWzEA.s:5743   .debug_str:0000000000000ad7 .LASF70
     /tmp/ccwGWzEA.s:5591   .debug_str:0000000000000620 .LASF71
     /tmp/ccwGWzEA.s:5583   .debug_str:00000000000005e8 .LASF72
     /tmp/ccwGWzEA.s:5707   .debug_str:0000000000000932 .LASF73
     /tmp/ccwGWzEA.s:5645   .debug_str:0000000000000770 .LASF74
     /tmp/ccwGWzEA.s:5813   .debug_str:0000000000000cd0 .LASF75
     /tmp/ccwGWzEA.s:5649   .debug_str:000000000000078a .LASF76
     /tmp/ccwGWzEA.s:5403   .debug_str:000000000000008c .LASF77
GAS LISTING /tmp/ccwGWzEA.s 			page 37


     /tmp/ccwGWzEA.s:5789   .debug_str:0000000000000c33 .LASF78
     /tmp/ccwGWzEA.s:5479   .debug_str:00000000000002aa .LASF80
     /tmp/ccwGWzEA.s:5443   .debug_str:0000000000000180 .LASF81
     /tmp/ccwGWzEA.s:5775   .debug_str:0000000000000bc2 .LASF82
     /tmp/ccwGWzEA.s:5683   .debug_str:000000000000087d .LASF83
     /tmp/ccwGWzEA.s:5705   .debug_str:000000000000092d .LASF84
     /tmp/ccwGWzEA.s:5489   .debug_str:00000000000002e4 .LASF85
     /tmp/ccwGWzEA.s:5689   .debug_str:00000000000008b2 .LASF86
     /tmp/ccwGWzEA.s:5755   .debug_str:0000000000000b44 .LASF87
     /tmp/ccwGWzEA.s:5499   .debug_str:0000000000000334 .LASF88
     /tmp/ccwGWzEA.s:5747   .debug_str:0000000000000b09 .LASF89
     /tmp/ccwGWzEA.s:5819   .debug_str:0000000000000d0a .LASF90
     /tmp/ccwGWzEA.s:5687   .debug_str:00000000000008a6 .LASF205
     /tmp/ccwGWzEA.s:5487   .debug_str:00000000000002df .LASF91
     /tmp/ccwGWzEA.s:5697   .debug_str:00000000000008e9 .LASF92
     /tmp/ccwGWzEA.s:5713   .debug_str:0000000000000966 .LASF93
     /tmp/ccwGWzEA.s:5641   .debug_str:0000000000000758 .LASF94
     /tmp/ccwGWzEA.s:5681   .debug_str:0000000000000873 .LASF95
     /tmp/ccwGWzEA.s:5777   .debug_str:0000000000000bc9 .LASF96
     /tmp/ccwGWzEA.s:5663   .debug_str:00000000000007f1 .LASF97
     /tmp/ccwGWzEA.s:5811   .debug_str:0000000000000cba .LASF98
     /tmp/ccwGWzEA.s:5541   .debug_str:00000000000004ca .LASF99
     /tmp/ccwGWzEA.s:5613   .debug_str:00000000000006b8 .LASF100
     /tmp/ccwGWzEA.s:5593   .debug_str:000000000000063b .LASF101
     /tmp/ccwGWzEA.s:5659   .debug_str:00000000000007c6 .LASF102
     /tmp/ccwGWzEA.s:5415   .debug_str:00000000000000db .LASF103
     /tmp/ccwGWzEA.s:5431   .debug_str:0000000000000128 .LASF104
     /tmp/ccwGWzEA.s:5597   .debug_str:0000000000000653 .LASF105
     /tmp/ccwGWzEA.s:5451   .debug_str:00000000000001b5 .LASF110
     /tmp/ccwGWzEA.s:5437   .debug_str:0000000000000156 .LASF106
     /tmp/ccwGWzEA.s:5463   .debug_str:000000000000021b .LASF107
     /tmp/ccwGWzEA.s:5427   .debug_str:0000000000000119 .LASF108
     /tmp/ccwGWzEA.s:5753   .debug_str:0000000000000b2a .LASF111
     /tmp/ccwGWzEA.s:5757   .debug_str:0000000000000b4d .LASF112
     /tmp/ccwGWzEA.s:5765   .debug_str:0000000000000b96 .LASF113
     /tmp/ccwGWzEA.s:5607   .debug_str:0000000000000683 .LASF114
     /tmp/ccwGWzEA.s:5723   .debug_str:000000000000098e .LASF115
     /tmp/ccwGWzEA.s:5525   .debug_str:000000000000040b .LASF116
     /tmp/ccwGWzEA.s:5567   .debug_str:000000000000056b .LASF117
     /tmp/ccwGWzEA.s:5483   .debug_str:00000000000002c3 .LASF150
     /tmp/ccwGWzEA.s:5391   .debug_str:0000000000000000 .LASF206
     /tmp/ccwGWzEA.s:5623   .debug_str:00000000000006fd .LASF118
     /tmp/ccwGWzEA.s:5527   .debug_str:000000000000042b .LASF207
     /tmp/ccwGWzEA.s:5601   .debug_str:000000000000066a .LASF119
     /tmp/ccwGWzEA.s:5555   .debug_str:000000000000051d .LASF208
     /tmp/ccwGWzEA.s:5473   .debug_str:000000000000026f .LASF209
     /tmp/ccwGWzEA.s:5605   .debug_str:000000000000067e .LASF120
     /tmp/ccwGWzEA.s:5493   .debug_str:00000000000002fe .LASF122
     /tmp/ccwGWzEA.s:5719   .debug_str:000000000000097e .LASF123
     /tmp/ccwGWzEA.s:5759   .debug_str:0000000000000b68 .LASF124
     /tmp/ccwGWzEA.s:5729   .debug_str:00000000000009af .LASF125
     /tmp/ccwGWzEA.s:5803   .debug_str:0000000000000c84 .LASF132
     /tmp/ccwGWzEA.s:5725   .debug_str:0000000000000998 .LASF126
     /tmp/ccwGWzEA.s:5653   .debug_str:00000000000007a1 .LASF135
     /tmp/ccwGWzEA.s:5685   .debug_str:0000000000000894 .LASF137
     /tmp/ccwGWzEA.s:5449   .debug_str:00000000000001a0 .LASF127
     /tmp/ccwGWzEA.s:5409   .debug_str:00000000000000a9 .LASF128
GAS LISTING /tmp/ccwGWzEA.s 			page 38


     /tmp/ccwGWzEA.s:5559   .debug_str:0000000000000537 .LASF129
     /tmp/ccwGWzEA.s:5547   .debug_str:00000000000004e2 .LASF210
     /tmp/ccwGWzEA.s:5773   .debug_str:0000000000000bbb .LASF130
     /tmp/ccwGWzEA.s:5457   .debug_str:00000000000001e1 .LASF131
     /tmp/ccwGWzEA.s:5735   .debug_str:0000000000000a90 .LASF133
     /tmp/ccwGWzEA.s:5817   .debug_str:0000000000000cf3 .LASF134
     /tmp/ccwGWzEA.s:5695   .debug_str:00000000000008e1 .LASF136
     /tmp/ccwGWzEA.s:5503   .debug_str:000000000000035e .LASF138
     /tmp/ccwGWzEA.s:5799   .debug_str:0000000000000c79 .LASF139
     /tmp/ccwGWzEA.s:5581   .debug_str:00000000000005d5 .LASF140
     /tmp/ccwGWzEA.s:5599   .debug_str:0000000000000658 .LASF141
     /tmp/ccwGWzEA.s:5793   .debug_str:0000000000000c44 .LASF144
     /tmp/ccwGWzEA.s:5419   .debug_str:00000000000000e7 .LASF145
     /tmp/ccwGWzEA.s:5737   .debug_str:0000000000000a9d .LASF146
     /tmp/ccwGWzEA.s:5433   .debug_str:0000000000000138 .LASF147
     /tmp/ccwGWzEA.s:5783   .debug_str:0000000000000bfa .LASF148
     /tmp/ccwGWzEA.s:5537   .debug_str:0000000000000494 .LASF149
     /tmp/ccwGWzEA.s:5785   .debug_str:0000000000000c17 .LASF211
     /tmp/ccwGWzEA.s:5511   .debug_str:0000000000000393 .LASF151
     /tmp/ccwGWzEA.s:5405   .debug_str:0000000000000098 .LASF152
     /tmp/ccwGWzEA.s:5471   .debug_str:0000000000000257 .LASF153
     /tmp/ccwGWzEA.s:521    .text._ZN14PeriodicThreadD0Ev:0000000000000000 .LFB78
     /tmp/ccwGWzEA.s:561    .text._ZN14PeriodicThreadD0Ev:000000000000004c .LFE78
     /tmp/ccwGWzEA.s:4884   .debug_loc:0000000000000000 .LLST14
     /tmp/ccwGWzEA.s:537    .text._ZN14PeriodicThreadD0Ev:0000000000000018 .LBB18
     /tmp/ccwGWzEA.s:545    .text._ZN14PeriodicThreadD0Ev:000000000000002c .LBE18
     /tmp/ccwGWzEA.s:4902   .debug_loc:000000000000004c .LLST15
     /tmp/ccwGWzEA.s:543    .text._ZN14PeriodicThreadD0Ev:000000000000002c .LVL38
     /tmp/ccwGWzEA.s:548    .text._ZN14PeriodicThreadD0Ev:0000000000000038 .LVL39
     /tmp/ccwGWzEA.s:5667   .debug_str:0000000000000803 .LASF154
     /tmp/ccwGWzEA.s:484    .text._ZN14PeriodicThreadD2Ev:0000000000000000 .LFB76
     /tmp/ccwGWzEA.s:512    .text._ZN14PeriodicThreadD2Ev:0000000000000034 .LFE76
     /tmp/ccwGWzEA.s:4913   .debug_loc:0000000000000082 .LLST13
     /tmp/ccwGWzEA.s:501    .text._ZN14PeriodicThreadD2Ev:0000000000000024 .LVL35
     /tmp/ccwGWzEA.s:1085   .text:00000000000004d0 .LFB74
     /tmp/ccwGWzEA.s:1111   .text:00000000000004f8 .LFE74
     /tmp/ccwGWzEA.s:4927   .debug_loc:00000000000000bb .LLST31
     /tmp/ccwGWzEA.s:1100   .text:00000000000004e8 .LVL81
     /tmp/ccwGWzEA.s:1054   .text:00000000000004a8 .LFB73
     /tmp/ccwGWzEA.s:1079   .text:00000000000004d0 .LFE73
     /tmp/ccwGWzEA.s:1068   .text:00000000000004c0 .LVL79
     /tmp/ccwGWzEA.s:5523   .debug_str:00000000000003f3 .LASF155
     /tmp/ccwGWzEA.s:1027   .text:00000000000004a8 .LFE71
     /tmp/ccwGWzEA.s:4941   .debug_loc:00000000000000f4 .LLST28
     /tmp/ccwGWzEA.s:4963   .debug_loc:0000000000000153 .LLST29
     /tmp/ccwGWzEA.s:972    .text:0000000000000448 .LVL68
     /tmp/ccwGWzEA.s:986    .text:0000000000000468 .LVL71
     /tmp/ccwGWzEA.s:991    .text:0000000000000474 .LVL72
     /tmp/ccwGWzEA.s:963    .text:0000000000000438 .LBB24
     /tmp/ccwGWzEA.s:992    .text:0000000000000474 .LBE24
     /tmp/ccwGWzEA.s:4992   .debug_loc:00000000000001c8 .LLST30
     /tmp/ccwGWzEA.s:959    .text:000000000000042c .LVL67
     /tmp/ccwGWzEA.s:1019   .text:000000000000049c .LVL77
     /tmp/ccwGWzEA.s:1023   .text:00000000000004a8 .LVL78
     /tmp/ccwGWzEA.s:903    .text:00000000000003dc .LFB69
     /tmp/ccwGWzEA.s:929    .text:0000000000000404 .LFE69
     /tmp/ccwGWzEA.s:5003   .debug_loc:00000000000001fe .LLST27
GAS LISTING /tmp/ccwGWzEA.s 			page 39


     /tmp/ccwGWzEA.s:918    .text:00000000000003f4 .LVL65
     /tmp/ccwGWzEA.s:98     .text:000000000000002c .LFB68
     /tmp/ccwGWzEA.s:134    .text:0000000000000064 .LFE68
     /tmp/ccwGWzEA.s:5017   .debug_loc:0000000000000237 .LLST1
     /tmp/ccwGWzEA.s:121    .text:0000000000000050 .LVL6
     /tmp/ccwGWzEA.s:5551   .debug_str:00000000000004ff .LASF156
     /tmp/ccwGWzEA.s:287    .text:0000000000000114 .LFB67
     /tmp/ccwGWzEA.s:320    .text:0000000000000154 .LFE67
     /tmp/ccwGWzEA.s:5028   .debug_loc:000000000000026d .LLST6
     /tmp/ccwGWzEA.s:304    .text:0000000000000134 .LVL18
     /tmp/ccwGWzEA.s:307    .text:0000000000000140 .LVL19
     /tmp/ccwGWzEA.s:5411   .debug_str:00000000000000c0 .LASF157
     /tmp/ccwGWzEA.s:140    .text:0000000000000064 .LFB65
     /tmp/ccwGWzEA.s:175    .text:000000000000009c .LFE65
     /tmp/ccwGWzEA.s:5046   .debug_loc:00000000000002b9 .LLST2
     /tmp/ccwGWzEA.s:163    .text:000000000000008c .LVL10
     /tmp/ccwGWzEA.s:869    .text:00000000000003b0 .LFB63
     /tmp/ccwGWzEA.s:897    .text:00000000000003dc .LFE63
     /tmp/ccwGWzEA.s:5060   .debug_loc:00000000000002f2 .LLST26
     /tmp/ccwGWzEA.s:886    .text:00000000000003cc .LVL63
     /tmp/ccwGWzEA.s:835    .text:0000000000000384 .LFB62
     /tmp/ccwGWzEA.s:863    .text:00000000000003b0 .LFE62
     /tmp/ccwGWzEA.s:5074   .debug_loc:000000000000032b .LLST25
     /tmp/ccwGWzEA.s:852    .text:00000000000003a0 .LVL60
     /tmp/ccwGWzEA.s:5425   .debug_str:0000000000000114 .LASF158
     /tmp/ccwGWzEA.s:5447   .debug_str:000000000000018e .LASF159
     /tmp/ccwGWzEA.s:791    .text:0000000000000348 .LFB60
     /tmp/ccwGWzEA.s:827    .text:0000000000000384 .LFE60
     /tmp/ccwGWzEA.s:5088   .debug_loc:0000000000000364 .LLST23
     /tmp/ccwGWzEA.s:5108   .debug_loc:00000000000003b2 .LLST24
     /tmp/ccwGWzEA.s:815    .text:0000000000000374 .LVL57
     /tmp/ccwGWzEA.s:62     .text:0000000000000000 .LFB58
     /tmp/ccwGWzEA.s:92     .text:000000000000002c .LFE58
     /tmp/ccwGWzEA.s:5665   .debug_str:00000000000007fc .LASF160
     /tmp/ccwGWzEA.s:5122   .debug_loc:00000000000003eb .LLST0
     /tmp/ccwGWzEA.s:81     .text:000000000000001c .LVL3
     /tmp/ccwGWzEA.s:5671   .debug_str:0000000000000829 .LASF161
     /tmp/ccwGWzEA.s:745    .text:0000000000000300 .LFB56
     /tmp/ccwGWzEA.s:783    .text:0000000000000348 .LFE56
     /tmp/ccwGWzEA.s:5136   .debug_loc:0000000000000424 .LLST22
     /tmp/ccwGWzEA.s:771    .text:0000000000000338 .LVL54
     /tmp/ccwGWzEA.s:711    .text:00000000000002d4 .LFB54
     /tmp/ccwGWzEA.s:739    .text:0000000000000300 .LFE54
     /tmp/ccwGWzEA.s:5637   .debug_str:0000000000000747 .LASF162
     /tmp/ccwGWzEA.s:5154   .debug_loc:0000000000000470 .LLST21
     /tmp/ccwGWzEA.s:726    .text:00000000000002ec .LVL51
     /tmp/ccwGWzEA.s:680    .text:00000000000002ac .LFB53
     /tmp/ccwGWzEA.s:705    .text:00000000000002d4 .LFE53
     /tmp/ccwGWzEA.s:694    .text:00000000000002c4 .LVL49
     /tmp/ccwGWzEA.s:639    .text:0000000000000278 .LFB52
     /tmp/ccwGWzEA.s:674    .text:00000000000002ac .LFE52
     /tmp/ccwGWzEA.s:5168   .debug_loc:00000000000004a9 .LLST20
     /tmp/ccwGWzEA.s:661    .text:0000000000000298 .LVL48
     /tmp/ccwGWzEA.s:612    .text:000000000000025c .LFB51
     /tmp/ccwGWzEA.s:633    .text:0000000000000278 .LFE51
     /tmp/ccwGWzEA.s:5182   .debug_loc:00000000000004e2 .LLST19
     /tmp/ccwGWzEA.s:5587   .debug_str:00000000000005ff .LASF163
GAS LISTING /tmp/ccwGWzEA.s 			page 40


     /tmp/ccwGWzEA.s:444    .text:00000000000001e0 .LFB50
     /tmp/ccwGWzEA.s:477    .text:0000000000000220 .LFE50
     /tmp/ccwGWzEA.s:5196   .debug_loc:000000000000051b .LLST12
     /tmp/ccwGWzEA.s:461    .text:0000000000000200 .LVL31
     /tmp/ccwGWzEA.s:464    .text:000000000000020c .LVL32
     /tmp/ccwGWzEA.s:5781   .debug_str:0000000000000beb .LASF164
     /tmp/ccwGWzEA.s:358    .text:000000000000017c .LFB48
     /tmp/ccwGWzEA.s:429    .text:00000000000001e0 .LFE48
     /tmp/ccwGWzEA.s:5214   .debug_loc:0000000000000567 .LLST8
     /tmp/ccwGWzEA.s:381    .text:00000000000001a0 .LBB13
     /tmp/ccwGWzEA.s:390    .text:00000000000001a8 .LBE13
     /tmp/ccwGWzEA.s:5228   .debug_loc:00000000000005a0 .LLST9
     /tmp/ccwGWzEA.s:5236   .debug_loc:00000000000005c4 .LLST10
     /tmp/ccwGWzEA.s:397    .text:00000000000001b0 .LBB15
     /tmp/ccwGWzEA.s:410    .text:00000000000001c0 .LBE15
     /tmp/ccwGWzEA.s:5243   .debug_loc:00000000000005e7 .LLST11
     /tmp/ccwGWzEA.s:407    .text:00000000000001c0 .LVL28
     /tmp/ccwGWzEA.s:414    .text:00000000000001cc .LVL29
     /tmp/ccwGWzEA.s:5741   .debug_str:0000000000000ac0 .LASF165
     /tmp/ccwGWzEA.s:568    .text:0000000000000220 .LFB45
     /tmp/ccwGWzEA.s:604    .text:000000000000025c .LFE45
     /tmp/ccwGWzEA.s:5250   .debug_loc:000000000000060a .LLST16
     /tmp/ccwGWzEA.s:5270   .debug_loc:0000000000000658 .LLST17
     /tmp/ccwGWzEA.s:5284   .debug_loc:0000000000000691 .LLST18
     /tmp/ccwGWzEA.s:592    .text:000000000000024c .LVL43
     /tmp/ccwGWzEA.s:5501   .debug_str:000000000000034b .LASF166
     /tmp/ccwGWzEA.s:5625   .debug_str:000000000000070d .LASF167
     /tmp/ccwGWzEA.s:326    .text:0000000000000154 .LFB43
     /tmp/ccwGWzEA.s:352    .text:000000000000017c .LFE43
     /tmp/ccwGWzEA.s:5298   .debug_loc:00000000000006ca .LLST7
     /tmp/ccwGWzEA.s:341    .text:000000000000016c .LVL22
     /tmp/ccwGWzEA.s:5397   .debug_str:000000000000003a .LASF168
     /tmp/ccwGWzEA.s:5629   .debug_str:000000000000071c .LASF169
     /tmp/ccwGWzEA.s:255    .text:00000000000000ec .LFB42
     /tmp/ccwGWzEA.s:281    .text:0000000000000114 .LFE42
     /tmp/ccwGWzEA.s:5312   .debug_loc:0000000000000703 .LLST5
     /tmp/ccwGWzEA.s:270    .text:0000000000000104 .LVL16
     /tmp/ccwGWzEA.s:5435   .debug_str:0000000000000146 .LASF170
     /tmp/ccwGWzEA.s:5417   .debug_str:00000000000000e1 .LASF171
     /tmp/ccwGWzEA.s:223    .text:00000000000000c4 .LFB41
     /tmp/ccwGWzEA.s:249    .text:00000000000000ec .LFE41
     /tmp/ccwGWzEA.s:5573   .debug_str:00000000000005a0 .LASF172
     /tmp/ccwGWzEA.s:5326   .debug_loc:000000000000073c .LLST4
     /tmp/ccwGWzEA.s:238    .text:00000000000000dc .LVL14
     /tmp/ccwGWzEA.s:5497   .debug_str:0000000000000327 .LASF173
     /tmp/ccwGWzEA.s:5505   .debug_str:000000000000036d .LASF174
     /tmp/ccwGWzEA.s:191    .text:000000000000009c .LFB40
     /tmp/ccwGWzEA.s:217    .text:00000000000000c4 .LFE40
     /tmp/ccwGWzEA.s:5340   .debug_loc:0000000000000775 .LLST3
     /tmp/ccwGWzEA.s:206    .text:00000000000000b4 .LVL12
     /tmp/ccwGWzEA.s:37     .text._ZN14PeriodicThread18periodicActivationEv:0000000000000000 .LFB39
     /tmp/ccwGWzEA.s:55     .text._ZN14PeriodicThread18periodicActivationEv:0000000000000018 .LFE39
     /tmp/ccwGWzEA.s:11     .text._ZN6Thread3runEv:0000000000000000 .LFB38
     /tmp/ccwGWzEA.s:30     .text._ZN6Thread3runEv:0000000000000018 .LFE38
     /tmp/ccwGWzEA.s:5611   .debug_str:00000000000006ac .LASF212
     /tmp/ccwGWzEA.s:5595   .debug_str:000000000000064c .LASF175
     /tmp/ccwGWzEA.s:5543   .debug_str:00000000000004d2 .LASF176
GAS LISTING /tmp/ccwGWzEA.s 			page 41


     /tmp/ccwGWzEA.s:5751   .debug_str:0000000000000b1e .LASF177
     /tmp/ccwGWzEA.s:5763   .debug_str:0000000000000b87 .LASF213
     /tmp/ccwGWzEA.s:5531   .debug_str:0000000000000460 .LASF214
     /tmp/ccwGWzEA.s:5703   .debug_str:000000000000091c .LASF178
     /tmp/ccwGWzEA.s:5603   .debug_str:0000000000000672 .LASF179
     /tmp/ccwGWzEA.s:5423   .debug_str:0000000000000104 .LASF180
     /tmp/ccwGWzEA.s:5465   .debug_str:000000000000022b .LASF181
     /tmp/ccwGWzEA.s:5651   .debug_str:000000000000078f .LASF182
     /tmp/ccwGWzEA.s:5655   .debug_str:00000000000007ac .LASF183
     /tmp/ccwGWzEA.s:5481   .debug_str:00000000000002af .LASF184
     /tmp/ccwGWzEA.s:5393   .debug_str:000000000000002a .LASF185
     /tmp/ccwGWzEA.s:5675   .debug_str:0000000000000844 .LASF186
     /tmp/ccwGWzEA.s:5585   .debug_str:00000000000005f6 .LASF187
     /tmp/ccwGWzEA.s:5515   .debug_str:00000000000003a1 .LASF188
     /tmp/ccwGWzEA.s:5413   .debug_str:00000000000000d2 .LASF189
     /tmp/ccwGWzEA.s:5521   .debug_str:00000000000003d2 .LASF190
     /tmp/ccwGWzEA.s:5709   .debug_str:000000000000094c .LASF191
     /tmp/ccwGWzEA.s:5557   .debug_str:0000000000000522 .LASF192
     /tmp/ccwGWzEA.s:5657   .debug_str:00000000000007b6 .LASF193
     /tmp/ccwGWzEA.s:5761   .debug_str:0000000000000b72 .LASF194
     /tmp/ccwGWzEA.s:5621   .debug_str:00000000000006f1 .LASF195
     /tmp/ccwGWzEA.s:5535   .debug_str:0000000000000486 .LASF196
     /tmp/ccwGWzEA.s:5545   .debug_str:00000000000004d9 .LASF197
     /tmp/ccwGWzEA.s:5519   .debug_str:00000000000003c4 .LASF198
     /tmp/ccwGWzEA.s:5609   .debug_str:00000000000006a2 .LASF199
     /tmp/ccwGWzEA.s:524    .text._ZN14PeriodicThreadD0Ev:0000000000000000 .LVL36
     /tmp/ccwGWzEA.s:556    .text._ZN14PeriodicThreadD0Ev:0000000000000044 .LVL40
     /tmp/ccwGWzEA.s:536    .text._ZN14PeriodicThreadD0Ev:0000000000000018 .LVL37
     /tmp/ccwGWzEA.s:487    .text._ZN14PeriodicThreadD2Ev:0000000000000000 .LVL34
     /tmp/ccwGWzEA.s:1088   .text:00000000000004d0 .LVL80
     /tmp/ccwGWzEA.s:940    .text:0000000000000404 .LVL66
     /tmp/ccwGWzEA.s:1003   .text:0000000000000480 .LVL73
     /tmp/ccwGWzEA.s:1010   .text:000000000000048c .LVL75
     /tmp/ccwGWzEA.s:1006   .text:0000000000000484 .LVL74
     /tmp/ccwGWzEA.s:1014   .text:0000000000000490 .LVL76
     /tmp/ccwGWzEA.s:974    .text:000000000000044c .LVL69
     /tmp/ccwGWzEA.s:984    .text:0000000000000460 .LVL70
     /tmp/ccwGWzEA.s:906    .text:00000000000003dc .LVL64
     /tmp/ccwGWzEA.s:101    .text:000000000000002c .LVL4
     /tmp/ccwGWzEA.s:114    .text:0000000000000044 .LVL5
     /tmp/ccwGWzEA.s:290    .text:0000000000000114 .LVL17
     /tmp/ccwGWzEA.s:315    .text:000000000000014c .LVL20
     /tmp/ccwGWzEA.s:145    .text:0000000000000064 .LVL8
     /tmp/ccwGWzEA.s:161    .text:0000000000000084 .LVL9
     /tmp/ccwGWzEA.s:872    .text:00000000000003b0 .LVL61
     /tmp/ccwGWzEA.s:884    .text:00000000000003c4 .LVL62
     /tmp/ccwGWzEA.s:838    .text:0000000000000384 .LVL58
     /tmp/ccwGWzEA.s:850    .text:0000000000000398 .LVL59
     /tmp/ccwGWzEA.s:794    .text:0000000000000348 .LVL55
     /tmp/ccwGWzEA.s:813    .text:000000000000036c .LVL56
     /tmp/ccwGWzEA.s:66     .text:0000000000000000 .LVL2
     /tmp/ccwGWzEA.s:748    .text:0000000000000300 .LVL52
     /tmp/ccwGWzEA.s:769    .text:0000000000000330 .LVL53
     /tmp/ccwGWzEA.s:714    .text:00000000000002d4 .LVL50
     /tmp/ccwGWzEA.s:642    .text:0000000000000278 .LVL46
     /tmp/ccwGWzEA.s:646    .text:000000000000027c .LVL47
     /tmp/ccwGWzEA.s:615    .text:000000000000025c .LVL44
GAS LISTING /tmp/ccwGWzEA.s 			page 42


     /tmp/ccwGWzEA.s:625    .text:000000000000026c .LVL45
     /tmp/ccwGWzEA.s:447    .text:00000000000001e0 .LVL30
     /tmp/ccwGWzEA.s:472    .text:0000000000000218 .LVL33
     /tmp/ccwGWzEA.s:363    .text:000000000000017c .LVL23
     /tmp/ccwGWzEA.s:402    .text:00000000000001b4 .LVL27
     /tmp/ccwGWzEA.s:380    .text:00000000000001a0 .LVL24
     /tmp/ccwGWzEA.s:388    .text:00000000000001a8 .LVL25
     /tmp/ccwGWzEA.s:396    .text:00000000000001b0 .LVL26
     /tmp/ccwGWzEA.s:571    .text:0000000000000220 .LVL41
     /tmp/ccwGWzEA.s:590    .text:0000000000000244 .LVL42
     /tmp/ccwGWzEA.s:329    .text:0000000000000154 .LVL21
     /tmp/ccwGWzEA.s:258    .text:00000000000000ec .LVL15
     /tmp/ccwGWzEA.s:226    .text:00000000000000c4 .LVL13
     /tmp/ccwGWzEA.s:194    .text:000000000000009c .LVL11
     /tmp/ccwGWzEA.s:1154   .debug_info:0000000000000000 .Ldebug_info0
     /tmp/ccwGWzEA.s:5      .text:0000000000000000 .Ltext0
     /tmp/ccwGWzEA.s:1147   .text:00000000000004f8 .Letext0
     /tmp/ccwGWzEA.s:178    .gcc_except_table:0000000000000000 .LLSDA65
     /tmp/ccwGWzEA.s:431    .gcc_except_table:0000000000000004 .LLSDA48
     /tmp/ccwGWzEA.s:1029   .gcc_except_table:0000000000000008 .LLSDA71
                           .group:0000000000000000 _ZN14PeriodicThreadD5Ev

UNDEFINED SYMBOLS
_Z10time_sleepm
_Z9sem_closeP3sem
__gxx_personality_v0
_Z9mem_allocm
_Z8mem_freePv
_Z13thread_createPP3TCBPFvPvES2_
_Z11thread_joinP3TCB
_Z15thread_dispatchv
_Z8sem_openPP3semj
_Z8sem_waitP3sem
_Z10sem_signalP3sem
_Z11thread_exitv
__mem_alloc
_Unwind_Resume
__getc
__putc
