GAS LISTING /tmp/ccQnWgoU.s 			page 1


   1              		.file	"syscall_cpp.cpp"
   2              		.option pic
   3              		.option norelax
   4              		.text
   5              	.Ltext0:
   6              		.section	.text._ZN6Thread3runEv,"axG",@progbits,_ZN6Thread3runEv,comdat
   7              		.align	2
   8              		.weak	_ZN6Thread3runEv
  10              	_ZN6Thread3runEv:
  11              	.LFB36:
  12              		.file 1 "src/../h/syscall_cpp.hpp"
   1:src/../h/syscall_cpp.hpp **** #ifndef PROJECT_BASE_V1_1_SYSCALL_CPP_HPP
   2:src/../h/syscall_cpp.hpp **** #define PROJECT_BASE_V1_1_SYSCALL_CPP_HPP
   3:src/../h/syscall_cpp.hpp **** 
   4:src/../h/syscall_cpp.hpp **** #include "../h/MemoryAllocator.hpp"
   5:src/../h/syscall_cpp.hpp **** #include "../h/syscall_c.h"
   6:src/../h/syscall_cpp.hpp **** #include "../h/tcb.hpp"
   7:src/../h/syscall_cpp.hpp **** 
   8:src/../h/syscall_cpp.hpp **** void* operator new(size_t);
   9:src/../h/syscall_cpp.hpp **** void* operator new[](size_t);
  10:src/../h/syscall_cpp.hpp **** 
  11:src/../h/syscall_cpp.hpp **** void operator delete(void*);
  12:src/../h/syscall_cpp.hpp **** void operator delete[](void*);
  13:src/../h/syscall_cpp.hpp **** 
  14:src/../h/syscall_cpp.hpp **** class Thread {
  15:src/../h/syscall_cpp.hpp **** public:
  16:src/../h/syscall_cpp.hpp ****     Thread (void (*body)(void*), void* arg);
  17:src/../h/syscall_cpp.hpp ****     virtual ~Thread ();
  18:src/../h/syscall_cpp.hpp ****     int start ();
  19:src/../h/syscall_cpp.hpp ****     void join();
  20:src/../h/syscall_cpp.hpp ****     static void dispatch ();
  21:src/../h/syscall_cpp.hpp ****     static int sleep (time_t);
  22:src/../h/syscall_cpp.hpp ****     static void threadWrapper(void *);
  23:src/../h/syscall_cpp.hpp **** protected:
  24:src/../h/syscall_cpp.hpp ****     Thread ();
  25:src/../h/syscall_cpp.hpp ****     virtual void run () {}
  13              		.loc 1 25 18
  14              		.cfi_startproc
  15              	.LVL0:
  16 0000 130101FF 		addi	sp,sp,-16
  17              		.cfi_def_cfa_offset 16
  18 0004 23348100 		sd	s0,8(sp)
  19              		.cfi_offset 8, -8
  20 0008 13040101 		addi	s0,sp,16
  21              		.cfi_def_cfa 8, 0
  22              		.loc 1 25 26 is_stmt 0
  23 000c 03348100 		ld	s0,8(sp)
  24              		.cfi_restore 8
  25              		.cfi_def_cfa 2, 16
  26 0010 13010101 		addi	sp,sp,16
  27              		.cfi_def_cfa_offset 0
  28 0014 67800000 		jr	ra
  29              		.cfi_endproc
  30              	.LFE36:
  32              		.section	.text._ZN14PeriodicThread18periodicActivationEv,"axG",@progbits,_ZN14PeriodicThread18peri
  33              		.align	2
  34              		.weak	_ZN14PeriodicThread18periodicActivationEv
GAS LISTING /tmp/ccQnWgoU.s 			page 2


  36              	_ZN14PeriodicThread18periodicActivationEv:
  37              	.LFB37:
  26:src/../h/syscall_cpp.hpp **** private:
  27:src/../h/syscall_cpp.hpp ****     thread_t myHandle;
  28:src/../h/syscall_cpp.hpp **** };
  29:src/../h/syscall_cpp.hpp **** 
  30:src/../h/syscall_cpp.hpp **** class Semaphore{
  31:src/../h/syscall_cpp.hpp **** public:
  32:src/../h/syscall_cpp.hpp **** 
  33:src/../h/syscall_cpp.hpp ****     Semaphore (unsigned init = 1);
  34:src/../h/syscall_cpp.hpp ****     virtual ~Semaphore ();
  35:src/../h/syscall_cpp.hpp **** 
  36:src/../h/syscall_cpp.hpp ****     int wait();
  37:src/../h/syscall_cpp.hpp ****     int signal();
  38:src/../h/syscall_cpp.hpp **** 
  39:src/../h/syscall_cpp.hpp **** private:
  40:src/../h/syscall_cpp.hpp ****     sem_t myHandle;
  41:src/../h/syscall_cpp.hpp **** };
  42:src/../h/syscall_cpp.hpp **** 
  43:src/../h/syscall_cpp.hpp **** class PeriodicThread : public Thread {
  44:src/../h/syscall_cpp.hpp **** public:
  45:src/../h/syscall_cpp.hpp ****     static void wrapper(void*);
  46:src/../h/syscall_cpp.hpp ****     void terminate ();
  47:src/../h/syscall_cpp.hpp **** 
  48:src/../h/syscall_cpp.hpp **** protected:
  49:src/../h/syscall_cpp.hpp ****     PeriodicThread (time_t period);
  50:src/../h/syscall_cpp.hpp ****     virtual void periodicActivation() {}
  38              		.loc 1 50 18 is_stmt 1
  39              		.cfi_startproc
  40              	.LVL1:
  41 0000 130101FF 		addi	sp,sp,-16
  42              		.cfi_def_cfa_offset 16
  43 0004 23348100 		sd	s0,8(sp)
  44              		.cfi_offset 8, -8
  45 0008 13040101 		addi	s0,sp,16
  46              		.cfi_def_cfa 8, 0
  47              		.loc 1 50 40 is_stmt 0
  48 000c 03348100 		ld	s0,8(sp)
  49              		.cfi_restore 8
  50              		.cfi_def_cfa 2, 16
  51 0010 13010101 		addi	sp,sp,16
  52              		.cfi_def_cfa_offset 0
  53 0014 67800000 		jr	ra
  54              		.cfi_endproc
  55              	.LFE37:
  57              		.text
  58              		.align	2
  59              		.globl	_ZN6Thread13threadWrapperEPv
  61              	_ZN6Thread13threadWrapperEPv:
  62              	.LFB56:
  63              		.file 2 "src/syscall_cpp.cpp"
   1:src/syscall_cpp.cpp **** #include "../h/syscall_cpp.hpp"
   2:src/syscall_cpp.cpp **** #include "../h/syscall_c.h"
   3:src/syscall_cpp.cpp **** #include "../h/scheduler.hpp"
   4:src/syscall_cpp.cpp **** #include "../lib/console.h"
   5:src/syscall_cpp.cpp **** 
   6:src/syscall_cpp.cpp **** void* operator new(size_t size){
GAS LISTING /tmp/ccQnWgoU.s 			page 3


   7:src/syscall_cpp.cpp ****     return mem_alloc(size);
   8:src/syscall_cpp.cpp **** }
   9:src/syscall_cpp.cpp **** 
  10:src/syscall_cpp.cpp **** void* operator new[](size_t size){
  11:src/syscall_cpp.cpp ****     return mem_alloc(size);
  12:src/syscall_cpp.cpp **** }
  13:src/syscall_cpp.cpp **** 
  14:src/syscall_cpp.cpp **** void operator delete(void* ptr){
  15:src/syscall_cpp.cpp ****     mem_free(ptr);
  16:src/syscall_cpp.cpp **** }
  17:src/syscall_cpp.cpp **** 
  18:src/syscall_cpp.cpp **** void operator delete[](void* ptr){
  19:src/syscall_cpp.cpp ****     mem_free(ptr);
  20:src/syscall_cpp.cpp **** }
  21:src/syscall_cpp.cpp **** 
  22:src/syscall_cpp.cpp **** Thread::Thread(void (*body)(void *), void *arg) {
  23:src/syscall_cpp.cpp ****     myHandle = nullptr;
  24:src/syscall_cpp.cpp ****     thread_create(&myHandle, body, arg);
  25:src/syscall_cpp.cpp **** }
  26:src/syscall_cpp.cpp **** 
  27:src/syscall_cpp.cpp **** Thread::~Thread() {
  28:src/syscall_cpp.cpp ****     myHandle->set_finished(true);
  29:src/syscall_cpp.cpp ****     delete myHandle;
  30:src/syscall_cpp.cpp **** }
  31:src/syscall_cpp.cpp **** 
  32:src/syscall_cpp.cpp **** int Thread::start() {
  33:src/syscall_cpp.cpp ****     return 0;
  34:src/syscall_cpp.cpp **** }
  35:src/syscall_cpp.cpp **** 
  36:src/syscall_cpp.cpp **** void Thread::join() {
  37:src/syscall_cpp.cpp ****     if(myHandle) thread_join(myHandle);
  38:src/syscall_cpp.cpp **** }
  39:src/syscall_cpp.cpp **** 
  40:src/syscall_cpp.cpp **** void Thread::dispatch() {
  41:src/syscall_cpp.cpp ****     thread_dispatch();
  42:src/syscall_cpp.cpp **** }
  43:src/syscall_cpp.cpp **** 
  44:src/syscall_cpp.cpp **** int Thread::sleep(time_t time) {
  45:src/syscall_cpp.cpp ****     time_sleep(time);
  46:src/syscall_cpp.cpp ****     return 0;
  47:src/syscall_cpp.cpp **** }
  48:src/syscall_cpp.cpp **** 
  49:src/syscall_cpp.cpp **** Thread::Thread() {
  50:src/syscall_cpp.cpp ****     myHandle = nullptr;
  51:src/syscall_cpp.cpp ****     thread_create(&myHandle, Thread::threadWrapper, (void*)this);
  52:src/syscall_cpp.cpp **** }
  53:src/syscall_cpp.cpp **** 
  54:src/syscall_cpp.cpp **** void Thread::threadWrapper(void *thread) {
  64              		.loc 2 54 42 is_stmt 1
  65              		.cfi_startproc
  66              	.LVL2:
  67 0000 130101FF 		addi	sp,sp,-16
  68              		.cfi_def_cfa_offset 16
  69 0004 23341100 		sd	ra,8(sp)
  70 0008 23308100 		sd	s0,0(sp)
  71              		.cfi_offset 1, -8
  72              		.cfi_offset 8, -16
GAS LISTING /tmp/ccQnWgoU.s 			page 4


  73 000c 13040101 		addi	s0,sp,16
  74              		.cfi_def_cfa 8, 0
  55:src/syscall_cpp.cpp ****     ((Thread*)thread)->run();
  75              		.loc 2 55 5
  76              		.loc 2 55 28 is_stmt 0
  77 0010 83370500 		ld	a5,0(a0)
  78 0014 83B70701 		ld	a5,16(a5)
  79              		.loc 2 55 27
  80 0018 E7800700 		jalr	a5
  81              	.LVL3:
  56:src/syscall_cpp.cpp **** }
  82              		.loc 2 56 1
  83 001c 83308100 		ld	ra,8(sp)
  84              		.cfi_restore 1
  85 0020 03340100 		ld	s0,0(sp)
  86              		.cfi_restore 8
  87              		.cfi_def_cfa 2, 16
  88 0024 13010101 		addi	sp,sp,16
  89              		.cfi_def_cfa_offset 0
  90 0028 67800000 		jr	ra
  91              		.cfi_endproc
  92              	.LFE56:
  94              		.align	2
  95              		.globl	_ZN14PeriodicThread7wrapperEPv
  97              	_ZN14PeriodicThread7wrapperEPv:
  98              	.LFB66:
  57:src/syscall_cpp.cpp **** 
  58:src/syscall_cpp.cpp **** Semaphore::Semaphore(unsigned int init) {
  59:src/syscall_cpp.cpp ****     myHandle = nullptr;
  60:src/syscall_cpp.cpp ****     sem_open(&myHandle, init);
  61:src/syscall_cpp.cpp **** }
  62:src/syscall_cpp.cpp **** 
  63:src/syscall_cpp.cpp **** int Semaphore::wait() {
  64:src/syscall_cpp.cpp ****     return sem_wait(myHandle);
  65:src/syscall_cpp.cpp **** }
  66:src/syscall_cpp.cpp **** 
  67:src/syscall_cpp.cpp **** int Semaphore::signal() {
  68:src/syscall_cpp.cpp ****     return sem_signal(myHandle);
  69:src/syscall_cpp.cpp **** }
  70:src/syscall_cpp.cpp **** 
  71:src/syscall_cpp.cpp **** Semaphore::~Semaphore() {
  72:src/syscall_cpp.cpp ****     sem_close(myHandle);
  73:src/syscall_cpp.cpp **** }
  74:src/syscall_cpp.cpp **** 
  75:src/syscall_cpp.cpp **** void PeriodicThread::wrapper(void* arg) {
  99              		.loc 2 75 41 is_stmt 1
 100              		.cfi_startproc
 101              	.LVL4:
 102 002c 130101FE 		addi	sp,sp,-32
 103              		.cfi_def_cfa_offset 32
 104 0030 233C1100 		sd	ra,24(sp)
 105 0034 23388100 		sd	s0,16(sp)
 106 0038 23349100 		sd	s1,8(sp)
 107              		.cfi_offset 1, -8
 108              		.cfi_offset 8, -16
 109              		.cfi_offset 9, -24
 110 003c 13040102 		addi	s0,sp,32
GAS LISTING /tmp/ccQnWgoU.s 			page 5


 111              		.cfi_def_cfa 8, 0
 112 0040 93040500 		mv	s1,a0
  76:src/syscall_cpp.cpp ****     periodic_s* ps = (periodic_s*) arg;
 113              		.loc 2 76 5
 114              	.LVL5:
 115              	.L8:
  77:src/syscall_cpp.cpp **** 
  78:src/syscall_cpp.cpp ****     while(true){
 116              		.loc 2 78 5 discriminator 1
  79:src/syscall_cpp.cpp ****         time_sleep(ps->period);
 117              		.loc 2 79 9 discriminator 1
 118              		.loc 2 79 19 is_stmt 0 discriminator 1
 119 0044 03B58400 		ld	a0,8(s1)
 120 0048 97000000 		call	_Z10time_sleepm@plt
 120      E7800000 
 121              	.LVL6:
  80:src/syscall_cpp.cpp ****         ps->periodic_thread->periodicActivation();
 122              		.loc 2 80 9 is_stmt 1 discriminator 1
 123              		.loc 2 80 13 is_stmt 0 discriminator 1
 124 0050 03B50400 		ld	a0,0(s1)
 125              		.loc 2 80 49 discriminator 1
 126 0054 83370500 		ld	a5,0(a0)
 127 0058 83B78701 		ld	a5,24(a5)
 128              		.loc 2 80 48 discriminator 1
 129 005c E7800700 		jalr	a5
 130              	.LVL7:
  78:src/syscall_cpp.cpp ****         time_sleep(ps->period);
 131              		.loc 2 78 5 is_stmt 1 discriminator 1
 132 0060 6FF05FFE 		j	.L8
 133              		.cfi_endproc
 134              	.LFE66:
 136              		.align	2
 137              		.globl	_ZN9SemaphoreD2Ev
 139              	_ZN9SemaphoreD2Ev:
 140              	.LFB63:
  71:src/syscall_cpp.cpp ****     sem_close(myHandle);
 141              		.loc 2 71 1
 142              		.cfi_startproc
 143              		.cfi_personality 0x9b,DW.ref.__gxx_personality_v0
 144              		.cfi_lsda 0x1b,.LLSDA63
 145              	.LVL8:
 146 0064 130101FF 		addi	sp,sp,-16
 147              		.cfi_def_cfa_offset 16
 148 0068 23341100 		sd	ra,8(sp)
 149 006c 23308100 		sd	s0,0(sp)
 150              		.cfi_offset 1, -8
 151              		.cfi_offset 8, -16
 152 0070 13040101 		addi	s0,sp,16
 153              		.cfi_def_cfa 8, 0
 154              	.LBB11:
  71:src/syscall_cpp.cpp ****     sem_close(myHandle);
 155              		.loc 2 71 23 is_stmt 0
 156 0074 97070000 		lla	a5,_ZTV9Semaphore+16
 156      93870700 
 157 007c 2330F500 		sd	a5,0(a0)
  72:src/syscall_cpp.cpp **** }
 158              		.loc 2 72 5 is_stmt 1
GAS LISTING /tmp/ccQnWgoU.s 			page 6


  72:src/syscall_cpp.cpp **** }
 159              		.loc 2 72 14 is_stmt 0
 160 0080 03358500 		ld	a0,8(a0)
 161              	.LVL9:
 162 0084 97000000 		call	_Z9sem_closeP3sem@plt
 162      E7800000 
 163              	.LVL10:
 164              	.LBE11:
  73:src/syscall_cpp.cpp **** 
 165              		.loc 2 73 1
 166 008c 83308100 		ld	ra,8(sp)
 167              		.cfi_restore 1
 168 0090 03340100 		ld	s0,0(sp)
 169              		.cfi_restore 8
 170              		.cfi_def_cfa 2, 16
 171 0094 13010101 		addi	sp,sp,16
 172              		.cfi_def_cfa_offset 0
 173 0098 67800000 		jr	ra
 174              		.cfi_endproc
 175              	.LFE63:
 176              		.globl	__gxx_personality_v0
 177              		.section	.gcc_except_table,"a",@progbits
 178              	.LLSDA63:
 179 0000 FF       		.byte	0xff
 180 0001 FF       		.byte	0xff
 181 0002 03       		.byte	0x3
 182 0003 00       		.byte	0
 183              		.text
 185              		.globl	_ZN9SemaphoreD1Ev
 186              		.set	_ZN9SemaphoreD1Ev,_ZN9SemaphoreD2Ev
 187              		.align	2
 188              		.globl	_Znwm
 190              	_Znwm:
 191              	.LFB38:
   6:src/syscall_cpp.cpp ****     return mem_alloc(size);
 192              		.loc 2 6 32 is_stmt 1
 193              		.cfi_startproc
 194              	.LVL11:
 195 009c 130101FF 		addi	sp,sp,-16
 196              		.cfi_def_cfa_offset 16
 197 00a0 23341100 		sd	ra,8(sp)
 198 00a4 23308100 		sd	s0,0(sp)
 199              		.cfi_offset 1, -8
 200              		.cfi_offset 8, -16
 201 00a8 13040101 		addi	s0,sp,16
 202              		.cfi_def_cfa 8, 0
   7:src/syscall_cpp.cpp **** }
 203              		.loc 2 7 5
   7:src/syscall_cpp.cpp **** }
 204              		.loc 2 7 21 is_stmt 0
 205 00ac 97000000 		call	_Z9mem_allocm@plt
 205      E7800000 
 206              	.LVL12:
   8:src/syscall_cpp.cpp **** 
 207              		.loc 2 8 1
 208 00b4 83308100 		ld	ra,8(sp)
 209              		.cfi_restore 1
GAS LISTING /tmp/ccQnWgoU.s 			page 7


 210 00b8 03340100 		ld	s0,0(sp)
 211              		.cfi_restore 8
 212              		.cfi_def_cfa 2, 16
 213 00bc 13010101 		addi	sp,sp,16
 214              		.cfi_def_cfa_offset 0
 215 00c0 67800000 		jr	ra
 216              		.cfi_endproc
 217              	.LFE38:
 219              		.align	2
 220              		.globl	_Znam
 222              	_Znam:
 223              	.LFB39:
  10:src/syscall_cpp.cpp ****     return mem_alloc(size);
 224              		.loc 2 10 34 is_stmt 1
 225              		.cfi_startproc
 226              	.LVL13:
 227 00c4 130101FF 		addi	sp,sp,-16
 228              		.cfi_def_cfa_offset 16
 229 00c8 23341100 		sd	ra,8(sp)
 230 00cc 23308100 		sd	s0,0(sp)
 231              		.cfi_offset 1, -8
 232              		.cfi_offset 8, -16
 233 00d0 13040101 		addi	s0,sp,16
 234              		.cfi_def_cfa 8, 0
  11:src/syscall_cpp.cpp **** }
 235              		.loc 2 11 5
  11:src/syscall_cpp.cpp **** }
 236              		.loc 2 11 21 is_stmt 0
 237 00d4 97000000 		call	_Z9mem_allocm@plt
 237      E7800000 
 238              	.LVL14:
  12:src/syscall_cpp.cpp **** 
 239              		.loc 2 12 1
 240 00dc 83308100 		ld	ra,8(sp)
 241              		.cfi_restore 1
 242 00e0 03340100 		ld	s0,0(sp)
 243              		.cfi_restore 8
 244              		.cfi_def_cfa 2, 16
 245 00e4 13010101 		addi	sp,sp,16
 246              		.cfi_def_cfa_offset 0
 247 00e8 67800000 		jr	ra
 248              		.cfi_endproc
 249              	.LFE39:
 251              		.align	2
 252              		.globl	_ZdlPv
 254              	_ZdlPv:
 255              	.LFB40:
  14:src/syscall_cpp.cpp ****     mem_free(ptr);
 256              		.loc 2 14 32 is_stmt 1
 257              		.cfi_startproc
 258              	.LVL15:
 259 00ec 130101FF 		addi	sp,sp,-16
 260              		.cfi_def_cfa_offset 16
 261 00f0 23341100 		sd	ra,8(sp)
 262 00f4 23308100 		sd	s0,0(sp)
 263              		.cfi_offset 1, -8
 264              		.cfi_offset 8, -16
GAS LISTING /tmp/ccQnWgoU.s 			page 8


 265 00f8 13040101 		addi	s0,sp,16
 266              		.cfi_def_cfa 8, 0
  15:src/syscall_cpp.cpp **** }
 267              		.loc 2 15 5
  15:src/syscall_cpp.cpp **** }
 268              		.loc 2 15 13 is_stmt 0
 269 00fc 97000000 		call	_Z8mem_freePv@plt
 269      E7800000 
 270              	.LVL16:
  16:src/syscall_cpp.cpp **** 
 271              		.loc 2 16 1
 272 0104 83308100 		ld	ra,8(sp)
 273              		.cfi_restore 1
 274 0108 03340100 		ld	s0,0(sp)
 275              		.cfi_restore 8
 276              		.cfi_def_cfa 2, 16
 277 010c 13010101 		addi	sp,sp,16
 278              		.cfi_def_cfa_offset 0
 279 0110 67800000 		jr	ra
 280              		.cfi_endproc
 281              	.LFE40:
 283              		.align	2
 284              		.globl	_ZN9SemaphoreD0Ev
 286              	_ZN9SemaphoreD0Ev:
 287              	.LFB65:
  71:src/syscall_cpp.cpp ****     sem_close(myHandle);
 288              		.loc 2 71 1 is_stmt 1
 289              		.cfi_startproc
 290              	.LVL17:
 291 0114 130101FE 		addi	sp,sp,-32
 292              		.cfi_def_cfa_offset 32
 293 0118 233C1100 		sd	ra,24(sp)
 294 011c 23388100 		sd	s0,16(sp)
 295 0120 23349100 		sd	s1,8(sp)
 296              		.cfi_offset 1, -8
 297              		.cfi_offset 8, -16
 298              		.cfi_offset 9, -24
 299 0124 13040102 		addi	s0,sp,32
 300              		.cfi_def_cfa 8, 0
 301 0128 93040500 		mv	s1,a0
  73:src/syscall_cpp.cpp **** 
 302              		.loc 2 73 1 is_stmt 0
 303 012c 97000000 		call	_ZN9SemaphoreD1Ev
 303      E7800000 
 304              	.LVL18:
 305 0134 13850400 		mv	a0,s1
 306 0138 97000000 		call	_ZdlPv
 306      E7800000 
 307              	.LVL19:
 308 0140 83308101 		ld	ra,24(sp)
 309              		.cfi_restore 1
 310 0144 03340101 		ld	s0,16(sp)
 311              		.cfi_restore 8
 312              		.cfi_def_cfa 2, 32
 313 0148 83348100 		ld	s1,8(sp)
 314              		.cfi_restore 9
 315              	.LVL20:
GAS LISTING /tmp/ccQnWgoU.s 			page 9


 316 014c 13010102 		addi	sp,sp,32
 317              		.cfi_def_cfa_offset 0
 318 0150 67800000 		jr	ra
 319              		.cfi_endproc
 320              	.LFE65:
 322              		.align	2
 323              		.globl	_ZdaPv
 325              	_ZdaPv:
 326              	.LFB41:
  18:src/syscall_cpp.cpp ****     mem_free(ptr);
 327              		.loc 2 18 34 is_stmt 1
 328              		.cfi_startproc
 329              	.LVL21:
 330 0154 130101FF 		addi	sp,sp,-16
 331              		.cfi_def_cfa_offset 16
 332 0158 23341100 		sd	ra,8(sp)
 333 015c 23308100 		sd	s0,0(sp)
 334              		.cfi_offset 1, -8
 335              		.cfi_offset 8, -16
 336 0160 13040101 		addi	s0,sp,16
 337              		.cfi_def_cfa 8, 0
  19:src/syscall_cpp.cpp **** }
 338              		.loc 2 19 5
  19:src/syscall_cpp.cpp **** }
 339              		.loc 2 19 13 is_stmt 0
 340 0164 97000000 		call	_Z8mem_freePv@plt
 340      E7800000 
 341              	.LVL22:
  20:src/syscall_cpp.cpp **** 
 342              		.loc 2 20 1
 343 016c 83308100 		ld	ra,8(sp)
 344              		.cfi_restore 1
 345 0170 03340100 		ld	s0,0(sp)
 346              		.cfi_restore 8
 347              		.cfi_def_cfa 2, 16
 348 0174 13010101 		addi	sp,sp,16
 349              		.cfi_def_cfa_offset 0
 350 0178 67800000 		jr	ra
 351              		.cfi_endproc
 352              	.LFE41:
 354              		.align	2
 355              		.globl	_ZN6ThreadD2Ev
 357              	_ZN6ThreadD2Ev:
 358              	.LFB46:
  27:src/syscall_cpp.cpp ****     myHandle->set_finished(true);
 359              		.loc 2 27 1 is_stmt 1
 360              		.cfi_startproc
 361              		.cfi_personality 0x9b,DW.ref.__gxx_personality_v0
 362              		.cfi_lsda 0x1b,.LLSDA46
 363              	.LVL23:
 364 017c 130101FE 		addi	sp,sp,-32
 365              		.cfi_def_cfa_offset 32
 366 0180 233C1100 		sd	ra,24(sp)
 367 0184 23388100 		sd	s0,16(sp)
 368 0188 23349100 		sd	s1,8(sp)
 369              		.cfi_offset 1, -8
 370              		.cfi_offset 8, -16
GAS LISTING /tmp/ccQnWgoU.s 			page 10


 371              		.cfi_offset 9, -24
 372 018c 13040102 		addi	s0,sp,32
 373              		.cfi_def_cfa 8, 0
 374              	.LBB12:
  27:src/syscall_cpp.cpp ****     myHandle->set_finished(true);
 375              		.loc 2 27 17 is_stmt 0
 376 0190 97070000 		lla	a5,_ZTV6Thread+16
 376      93870700 
 377 0198 2330F500 		sd	a5,0(a0)
  28:src/syscall_cpp.cpp ****     delete myHandle;
 378              		.loc 2 28 5 is_stmt 1
 379 019c 83378500 		ld	a5,8(a0)
 380              	.LVL24:
 381              	.LBB13:
 382              	.LBB14:
 383              		.file 3 "src/../h/../h/tcb.hpp"
   1:src/../h/../h/tcb.hpp **** #ifndef PROJECT_BASE_V1_1_TCB_HPP
   2:src/../h/../h/tcb.hpp **** #define PROJECT_BASE_V1_1_TCB_HPP
   3:src/../h/../h/tcb.hpp **** 
   4:src/../h/../h/tcb.hpp **** #include "../lib/hw.h"
   5:src/../h/../h/tcb.hpp **** #include "../h/scheduler.hpp"
   6:src/../h/../h/tcb.hpp **** #include "../h/riscv.hpp"
   7:src/../h/../h/tcb.hpp **** 
   8:src/../h/../h/tcb.hpp **** class TCB{
   9:src/../h/../h/tcb.hpp **** private:
  10:src/../h/../h/tcb.hpp ****     struct Context{
  11:src/../h/../h/tcb.hpp ****         uint64 sp, ra;
  12:src/../h/../h/tcb.hpp ****     };
  13:src/../h/../h/tcb.hpp **** 
  14:src/../h/../h/tcb.hpp ****     using Body = void(*)(void*);
  15:src/../h/../h/tcb.hpp ****     Body body;
  16:src/../h/../h/tcb.hpp ****     void* args;
  17:src/../h/../h/tcb.hpp **** 
  18:src/../h/../h/tcb.hpp ****     uint64* stack;
  19:src/../h/../h/tcb.hpp ****     Context context;
  20:src/../h/../h/tcb.hpp **** 
  21:src/../h/../h/tcb.hpp ****     time_t time_slice;
  22:src/../h/../h/tcb.hpp ****     int id;
  23:src/../h/../h/tcb.hpp ****     bool finished, blocked, sleeping, main, user_mode;
  24:src/../h/../h/tcb.hpp **** 
  25:src/../h/../h/tcb.hpp ****     TCB(Body body, void* args, uint64 time_slice, uint64* stack) :
  26:src/../h/../h/tcb.hpp ****         body(body),
  27:src/../h/../h/tcb.hpp ****         args(args),
  28:src/../h/../h/tcb.hpp ****         stack(body != nullptr ? stack : nullptr),
  29:src/../h/../h/tcb.hpp ****         context({(uint64) &thread_wrapper, stack != nullptr ? reinterpret_cast<uint64>(&stack[DEFAU
  30:src/../h/../h/tcb.hpp ****         time_slice(time_slice),
  31:src/../h/../h/tcb.hpp ****         id(ID),
  32:src/../h/../h/tcb.hpp ****         finished(false),
  33:src/../h/../h/tcb.hpp ****         blocked(false),
  34:src/../h/../h/tcb.hpp ****         sleeping(false),
  35:src/../h/../h/tcb.hpp ****         main(body == nullptr){
  36:src/../h/../h/tcb.hpp **** 
  37:src/../h/../h/tcb.hpp ****         if(body != nullptr){
  38:src/../h/../h/tcb.hpp ****             Scheduler::put(this);
  39:src/../h/../h/tcb.hpp ****         }
  40:src/../h/../h/tcb.hpp **** 
  41:src/../h/../h/tcb.hpp ****     }
GAS LISTING /tmp/ccQnWgoU.s 			page 11


  42:src/../h/../h/tcb.hpp **** 
  43:src/../h/../h/tcb.hpp ****     static time_t time_slice_counter;
  44:src/../h/../h/tcb.hpp **** 
  45:src/../h/../h/tcb.hpp ****     static void contextSwitch(Context* old_context, Context* new_context);
  46:src/../h/../h/tcb.hpp ****     static void thread_wrapper();
  47:src/../h/../h/tcb.hpp ****     static void dispatch();
  48:src/../h/../h/tcb.hpp **** public:
  49:src/../h/../h/tcb.hpp ****     friend class RiscV;
  50:src/../h/../h/tcb.hpp ****     friend class sem;
  51:src/../h/../h/tcb.hpp **** 
  52:src/../h/../h/tcb.hpp ****     static int ID;
  53:src/../h/../h/tcb.hpp ****     static TCB* running;
  54:src/../h/../h/tcb.hpp ****     static TCB* create_thread(TCB** handle, Body body, void* args, uint64* stack);
  55:src/../h/../h/tcb.hpp ****     static void yield();
  56:src/../h/../h/tcb.hpp ****     static void join(TCB*);
  57:src/../h/../h/tcb.hpp ****     static void outputThreadBody(void*);
  58:src/../h/../h/tcb.hpp **** 
  59:src/../h/../h/tcb.hpp **** //    void start(){
  60:src/../h/../h/tcb.hpp **** //        Scheduler::put(this);
  61:src/../h/../h/tcb.hpp **** //    }
  62:src/../h/../h/tcb.hpp **** 
  63:src/../h/../h/tcb.hpp ****     bool is_finished() const { return finished; }
  64:src/../h/../h/tcb.hpp ****     void set_finished(bool f) { this->finished = f; }
 384              		.loc 3 64 33
 385              		.loc 3 64 48 is_stmt 0
 386 01a0 13071000 		li	a4,1
 387 01a4 238AE702 		sb	a4,52(a5)
 388              	.LVL25:
 389              	.LBE14:
 390              	.LBE13:
  29:src/syscall_cpp.cpp **** }
 391              		.loc 2 29 5 is_stmt 1
  29:src/syscall_cpp.cpp **** }
 392              		.loc 2 29 12 is_stmt 0
 393 01a8 83348500 		ld	s1,8(a0)
  29:src/syscall_cpp.cpp **** }
 394              		.loc 2 29 20
 395 01ac 63800402 		beqz	s1,.L22
 396              	.LVL26:
 397              	.LBB15:
 398              	.LBB16:
  65:src/../h/../h/tcb.hpp **** 
  66:src/../h/../h/tcb.hpp ****     bool is_sleeping() const { return sleeping; }
  67:src/../h/../h/tcb.hpp ****     void set_sleeping(bool s) { this->sleeping = s; }
  68:src/../h/../h/tcb.hpp **** 
  69:src/../h/../h/tcb.hpp ****     bool is_blocked() const { return blocked; }
  70:src/../h/../h/tcb.hpp ****     void set_blocked(bool b) { this->blocked = b; }
  71:src/../h/../h/tcb.hpp **** 
  72:src/../h/../h/tcb.hpp ****     bool is_main() const { return main; }
  73:src/../h/../h/tcb.hpp ****     int get_id() const { return id; }
  74:src/../h/../h/tcb.hpp ****     uint64 get_time_slice() const { return time_slice; }
  75:src/../h/../h/tcb.hpp **** 
  76:src/../h/../h/tcb.hpp ****     bool get_user_mode () const { return user_mode; }
  77:src/../h/../h/tcb.hpp ****     void set_user_mode (bool value) { user_mode = value; }
  78:src/../h/../h/tcb.hpp **** 
  79:src/../h/../h/tcb.hpp ****     ~TCB(){
  80:src/../h/../h/tcb.hpp ****         delete[] stack;
GAS LISTING /tmp/ccQnWgoU.s 			page 12


 399              		.loc 3 80 9 is_stmt 1
 400              		.loc 3 80 18 is_stmt 0
 401 01b0 03B50401 		ld	a0,16(s1)
 402              	.LVL27:
 403              		.loc 3 80 23
 404 01b4 63060500 		beqz	a0,.L24
 405              		.loc 3 80 18
 406 01b8 97000000 		call	_ZdaPv
 406      E7800000 
 407              	.LVL28:
 408              	.L24:
 409              	.LBE16:
 410              	.LBE15:
  29:src/syscall_cpp.cpp **** }
 411              		.loc 2 29 12
 412 01c0 13850400 		mv	a0,s1
 413 01c4 97000000 		call	_ZdlPv
 413      E7800000 
 414              	.LVL29:
 415              	.L22:
 416              	.LBE12:
  30:src/syscall_cpp.cpp **** 
 417              		.loc 2 30 1
 418 01cc 83308101 		ld	ra,24(sp)
 419              		.cfi_restore 1
 420 01d0 03340101 		ld	s0,16(sp)
 421              		.cfi_restore 8
 422              		.cfi_def_cfa 2, 32
 423 01d4 83348100 		ld	s1,8(sp)
 424              		.cfi_restore 9
 425 01d8 13010102 		addi	sp,sp,32
 426              		.cfi_def_cfa_offset 0
 427 01dc 67800000 		jr	ra
 428              		.cfi_endproc
 429              	.LFE46:
 430              		.section	.gcc_except_table
 431              	.LLSDA46:
 432 0004 FF       		.byte	0xff
 433 0005 FF       		.byte	0xff
 434 0006 03       		.byte	0x3
 435 0007 00       		.byte	0
 436              		.text
 438              		.globl	_ZN6ThreadD1Ev
 439              		.set	_ZN6ThreadD1Ev,_ZN6ThreadD2Ev
 440              		.align	2
 441              		.globl	_ZN6ThreadD0Ev
 443              	_ZN6ThreadD0Ev:
 444              	.LFB48:
  27:src/syscall_cpp.cpp ****     myHandle->set_finished(true);
 445              		.loc 2 27 1 is_stmt 1
 446              		.cfi_startproc
 447              	.LVL30:
 448 01e0 130101FE 		addi	sp,sp,-32
 449              		.cfi_def_cfa_offset 32
 450 01e4 233C1100 		sd	ra,24(sp)
 451 01e8 23388100 		sd	s0,16(sp)
 452 01ec 23349100 		sd	s1,8(sp)
GAS LISTING /tmp/ccQnWgoU.s 			page 13


 453              		.cfi_offset 1, -8
 454              		.cfi_offset 8, -16
 455              		.cfi_offset 9, -24
 456 01f0 13040102 		addi	s0,sp,32
 457              		.cfi_def_cfa 8, 0
 458 01f4 93040500 		mv	s1,a0
  30:src/syscall_cpp.cpp **** 
 459              		.loc 2 30 1 is_stmt 0
 460 01f8 97000000 		call	_ZN6ThreadD1Ev
 460      E7800000 
 461              	.LVL31:
 462 0200 13850400 		mv	a0,s1
 463 0204 97000000 		call	_ZdlPv
 463      E7800000 
 464              	.LVL32:
 465 020c 83308101 		ld	ra,24(sp)
 466              		.cfi_restore 1
 467 0210 03340101 		ld	s0,16(sp)
 468              		.cfi_restore 8
 469              		.cfi_def_cfa 2, 32
 470 0214 83348100 		ld	s1,8(sp)
 471              		.cfi_restore 9
 472              	.LVL33:
 473 0218 13010102 		addi	sp,sp,32
 474              		.cfi_def_cfa_offset 0
 475 021c 67800000 		jr	ra
 476              		.cfi_endproc
 477              	.LFE48:
 479              		.section	.text._ZN14PeriodicThreadD2Ev,"axG",@progbits,_ZN14PeriodicThreadD5Ev,comdat
 480              		.align	2
 481              		.weak	_ZN14PeriodicThreadD2Ev
 483              	_ZN14PeriodicThreadD2Ev:
 484              	.LFB74:
  43:src/../h/syscall_cpp.hpp **** public:
 485              		.loc 1 43 7 is_stmt 1
 486              		.cfi_startproc
 487              	.LVL34:
 488 0000 130101FF 		addi	sp,sp,-16
 489              		.cfi_def_cfa_offset 16
 490 0004 23341100 		sd	ra,8(sp)
 491 0008 23308100 		sd	s0,0(sp)
 492              		.cfi_offset 1, -8
 493              		.cfi_offset 8, -16
 494 000c 13040101 		addi	s0,sp,16
 495              		.cfi_def_cfa 8, 0
 496              	.LBB17:
  43:src/../h/syscall_cpp.hpp **** public:
 497              		.loc 1 43 7 is_stmt 0
 498 0010 97070000 		lla	a5,_ZTV14PeriodicThread+16
 498      93870700 
 499 0018 2330F500 		sd	a5,0(a0)
 500 001c 97000000 		call	_ZN6ThreadD2Ev
 500      E7800000 
 501              	.LVL35:
 502              	.LBE17:
 503 0024 83308100 		ld	ra,8(sp)
 504              		.cfi_restore 1
GAS LISTING /tmp/ccQnWgoU.s 			page 14


 505 0028 03340100 		ld	s0,0(sp)
 506              		.cfi_restore 8
 507              		.cfi_def_cfa 2, 16
 508 002c 13010101 		addi	sp,sp,16
 509              		.cfi_def_cfa_offset 0
 510 0030 67800000 		jr	ra
 511              		.cfi_endproc
 512              	.LFE74:
 514              		.weak	_ZN14PeriodicThreadD1Ev
 515              		.set	_ZN14PeriodicThreadD1Ev,_ZN14PeriodicThreadD2Ev
 516              		.section	.text._ZN14PeriodicThreadD0Ev,"axG",@progbits,_ZN14PeriodicThreadD5Ev,comdat
 517              		.align	2
 518              		.weak	_ZN14PeriodicThreadD0Ev
 520              	_ZN14PeriodicThreadD0Ev:
 521              	.LFB76:
  43:src/../h/syscall_cpp.hpp **** public:
 522              		.loc 1 43 7 is_stmt 1
 523              		.cfi_startproc
 524              	.LVL36:
 525 0000 130101FE 		addi	sp,sp,-32
 526              		.cfi_def_cfa_offset 32
 527 0004 233C1100 		sd	ra,24(sp)
 528 0008 23388100 		sd	s0,16(sp)
 529 000c 23349100 		sd	s1,8(sp)
 530              		.cfi_offset 1, -8
 531              		.cfi_offset 8, -16
 532              		.cfi_offset 9, -24
 533 0010 13040102 		addi	s0,sp,32
 534              		.cfi_def_cfa 8, 0
 535 0014 93040500 		mv	s1,a0
 536              	.LVL37:
 537              	.LBB18:
 538              	.LBB19:
  43:src/../h/syscall_cpp.hpp **** public:
 539              		.loc 1 43 7 is_stmt 0
 540 0018 97070000 		lla	a5,_ZTV14PeriodicThread+16
 540      93870700 
 541 0020 2330F500 		sd	a5,0(a0)
 542 0024 97000000 		call	_ZN6ThreadD2Ev
 542      E7800000 
 543              	.LVL38:
 544              	.LBE19:
 545              	.LBE18:
 546 002c 13850400 		mv	a0,s1
 547 0030 97000000 		call	_ZdlPv
 547      E7800000 
 548              	.LVL39:
 549 0038 83308101 		ld	ra,24(sp)
 550              		.cfi_restore 1
 551 003c 03340101 		ld	s0,16(sp)
 552              		.cfi_restore 8
 553              		.cfi_def_cfa 2, 32
 554 0040 83348100 		ld	s1,8(sp)
 555              		.cfi_restore 9
 556              	.LVL40:
 557 0044 13010102 		addi	sp,sp,32
 558              		.cfi_def_cfa_offset 0
GAS LISTING /tmp/ccQnWgoU.s 			page 15


 559 0048 67800000 		jr	ra
 560              		.cfi_endproc
 561              	.LFE76:
 563              		.text
 564              		.align	2
 565              		.globl	_ZN6ThreadC2EPFvPvES0_
 567              	_ZN6ThreadC2EPFvPvES0_:
 568              	.LFB43:
  22:src/syscall_cpp.cpp ****     myHandle = nullptr;
 569              		.loc 2 22 1 is_stmt 1
 570              		.cfi_startproc
 571              	.LVL41:
 572 0220 130101FF 		addi	sp,sp,-16
 573              		.cfi_def_cfa_offset 16
 574 0224 23341100 		sd	ra,8(sp)
 575 0228 23308100 		sd	s0,0(sp)
 576              		.cfi_offset 1, -8
 577              		.cfi_offset 8, -16
 578 022c 13040101 		addi	s0,sp,16
 579              		.cfi_def_cfa 8, 0
 580              	.LBB20:
  22:src/syscall_cpp.cpp ****     myHandle = nullptr;
 581              		.loc 2 22 47 is_stmt 0
 582 0230 97070000 		lla	a5,_ZTV6Thread+16
 582      93870700 
 583 0238 2330F500 		sd	a5,0(a0)
  23:src/syscall_cpp.cpp ****     thread_create(&myHandle, body, arg);
 584              		.loc 2 23 5 is_stmt 1
  23:src/syscall_cpp.cpp ****     thread_create(&myHandle, body, arg);
 585              		.loc 2 23 14 is_stmt 0
 586 023c 23340500 		sd	zero,8(a0)
  24:src/syscall_cpp.cpp **** }
 587              		.loc 2 24 5 is_stmt 1
  24:src/syscall_cpp.cpp **** }
 588              		.loc 2 24 18 is_stmt 0
 589 0240 13058500 		addi	a0,a0,8
 590              	.LVL42:
 591 0244 97000000 		call	_Z13thread_createPP3TCBPFvPvES2_@plt
 591      E7800000 
 592              	.LVL43:
 593              	.LBE20:
  25:src/syscall_cpp.cpp **** 
 594              		.loc 2 25 1
 595 024c 83308100 		ld	ra,8(sp)
 596              		.cfi_restore 1
 597 0250 03340100 		ld	s0,0(sp)
 598              		.cfi_restore 8
 599              		.cfi_def_cfa 2, 16
 600 0254 13010101 		addi	sp,sp,16
 601              		.cfi_def_cfa_offset 0
 602 0258 67800000 		jr	ra
 603              		.cfi_endproc
 604              	.LFE43:
 606              		.globl	_ZN6ThreadC1EPFvPvES0_
 607              		.set	_ZN6ThreadC1EPFvPvES0_,_ZN6ThreadC2EPFvPvES0_
 608              		.align	2
 609              		.globl	_ZN6Thread5startEv
GAS LISTING /tmp/ccQnWgoU.s 			page 16


 611              	_ZN6Thread5startEv:
 612              	.LFB49:
  32:src/syscall_cpp.cpp ****     return 0;
 613              		.loc 2 32 21 is_stmt 1
 614              		.cfi_startproc
 615              	.LVL44:
 616 025c 130101FF 		addi	sp,sp,-16
 617              		.cfi_def_cfa_offset 16
 618 0260 23348100 		sd	s0,8(sp)
 619              		.cfi_offset 8, -8
 620 0264 13040101 		addi	s0,sp,16
 621              		.cfi_def_cfa 8, 0
  33:src/syscall_cpp.cpp **** }
 622              		.loc 2 33 5
  34:src/syscall_cpp.cpp **** 
 623              		.loc 2 34 1 is_stmt 0
 624 0268 13050000 		li	a0,0
 625              	.LVL45:
 626 026c 03348100 		ld	s0,8(sp)
 627              		.cfi_restore 8
 628              		.cfi_def_cfa 2, 16
 629 0270 13010101 		addi	sp,sp,16
 630              		.cfi_def_cfa_offset 0
 631 0274 67800000 		jr	ra
 632              		.cfi_endproc
 633              	.LFE49:
 635              		.align	2
 636              		.globl	_ZN6Thread4joinEv
 638              	_ZN6Thread4joinEv:
 639              	.LFB50:
  36:src/syscall_cpp.cpp ****     if(myHandle) thread_join(myHandle);
 640              		.loc 2 36 21 is_stmt 1
 641              		.cfi_startproc
 642              	.LVL46:
  37:src/syscall_cpp.cpp **** }
 643              		.loc 2 37 5
  37:src/syscall_cpp.cpp **** }
 644              		.loc 2 37 8 is_stmt 0
 645 0278 03358500 		ld	a0,8(a0)
 646              	.LVL47:
  37:src/syscall_cpp.cpp **** }
 647              		.loc 2 37 5
 648 027c 63060502 		beqz	a0,.L39
  36:src/syscall_cpp.cpp ****     if(myHandle) thread_join(myHandle);
 649              		.loc 2 36 21 discriminator 1
 650 0280 130101FF 		addi	sp,sp,-16
 651              		.cfi_def_cfa_offset 16
 652 0284 23341100 		sd	ra,8(sp)
 653 0288 23308100 		sd	s0,0(sp)
 654              		.cfi_offset 1, -8
 655              		.cfi_offset 8, -16
 656 028c 13040101 		addi	s0,sp,16
 657              		.cfi_def_cfa 8, 0
  37:src/syscall_cpp.cpp **** }
 658              		.loc 2 37 18 is_stmt 1 discriminator 1
  37:src/syscall_cpp.cpp **** }
 659              		.loc 2 37 29 is_stmt 0 discriminator 1
GAS LISTING /tmp/ccQnWgoU.s 			page 17


 660 0290 97000000 		call	_Z11thread_joinP3TCB@plt
 660      E7800000 
 661              	.LVL48:
  38:src/syscall_cpp.cpp **** 
 662              		.loc 2 38 1 discriminator 1
 663 0298 83308100 		ld	ra,8(sp)
 664              		.cfi_restore 1
 665 029c 03340100 		ld	s0,0(sp)
 666              		.cfi_restore 8
 667              		.cfi_def_cfa 2, 16
 668 02a0 13010101 		addi	sp,sp,16
 669              		.cfi_def_cfa_offset 0
 670 02a4 67800000 		jr	ra
 671              	.L39:
 672 02a8 67800000 		ret
 673              		.cfi_endproc
 674              	.LFE50:
 676              		.align	2
 677              		.globl	_ZN6Thread8dispatchEv
 679              	_ZN6Thread8dispatchEv:
 680              	.LFB51:
  40:src/syscall_cpp.cpp ****     thread_dispatch();
 681              		.loc 2 40 25 is_stmt 1
 682              		.cfi_startproc
 683 02ac 130101FF 		addi	sp,sp,-16
 684              		.cfi_def_cfa_offset 16
 685 02b0 23341100 		sd	ra,8(sp)
 686 02b4 23308100 		sd	s0,0(sp)
 687              		.cfi_offset 1, -8
 688              		.cfi_offset 8, -16
 689 02b8 13040101 		addi	s0,sp,16
 690              		.cfi_def_cfa 8, 0
  41:src/syscall_cpp.cpp **** }
 691              		.loc 2 41 5
  41:src/syscall_cpp.cpp **** }
 692              		.loc 2 41 20 is_stmt 0
 693 02bc 97000000 		call	_Z15thread_dispatchv@plt
 693      E7800000 
 694              	.LVL49:
  42:src/syscall_cpp.cpp **** 
 695              		.loc 2 42 1
 696 02c4 83308100 		ld	ra,8(sp)
 697              		.cfi_restore 1
 698 02c8 03340100 		ld	s0,0(sp)
 699              		.cfi_restore 8
 700              		.cfi_def_cfa 2, 16
 701 02cc 13010101 		addi	sp,sp,16
 702              		.cfi_def_cfa_offset 0
 703 02d0 67800000 		jr	ra
 704              		.cfi_endproc
 705              	.LFE51:
 707              		.align	2
 708              		.globl	_ZN6Thread5sleepEm
 710              	_ZN6Thread5sleepEm:
 711              	.LFB52:
  44:src/syscall_cpp.cpp ****     time_sleep(time);
 712              		.loc 2 44 32 is_stmt 1
GAS LISTING /tmp/ccQnWgoU.s 			page 18


 713              		.cfi_startproc
 714              	.LVL50:
 715 02d4 130101FF 		addi	sp,sp,-16
 716              		.cfi_def_cfa_offset 16
 717 02d8 23341100 		sd	ra,8(sp)
 718 02dc 23308100 		sd	s0,0(sp)
 719              		.cfi_offset 1, -8
 720              		.cfi_offset 8, -16
 721 02e0 13040101 		addi	s0,sp,16
 722              		.cfi_def_cfa 8, 0
  45:src/syscall_cpp.cpp ****     return 0;
 723              		.loc 2 45 5
  45:src/syscall_cpp.cpp ****     return 0;
 724              		.loc 2 45 15 is_stmt 0
 725 02e4 97000000 		call	_Z10time_sleepm@plt
 725      E7800000 
 726              	.LVL51:
  46:src/syscall_cpp.cpp **** }
 727              		.loc 2 46 5 is_stmt 1
  47:src/syscall_cpp.cpp **** 
 728              		.loc 2 47 1 is_stmt 0
 729 02ec 13050000 		li	a0,0
 730 02f0 83308100 		ld	ra,8(sp)
 731              		.cfi_restore 1
 732 02f4 03340100 		ld	s0,0(sp)
 733              		.cfi_restore 8
 734              		.cfi_def_cfa 2, 16
 735 02f8 13010101 		addi	sp,sp,16
 736              		.cfi_def_cfa_offset 0
 737 02fc 67800000 		jr	ra
 738              		.cfi_endproc
 739              	.LFE52:
 741              		.align	2
 742              		.globl	_ZN6ThreadC2Ev
 744              	_ZN6ThreadC2Ev:
 745              	.LFB54:
  49:src/syscall_cpp.cpp ****     myHandle = nullptr;
 746              		.loc 2 49 1 is_stmt 1
 747              		.cfi_startproc
 748              	.LVL52:
 749 0300 130101FF 		addi	sp,sp,-16
 750              		.cfi_def_cfa_offset 16
 751 0304 23341100 		sd	ra,8(sp)
 752 0308 23308100 		sd	s0,0(sp)
 753              		.cfi_offset 1, -8
 754              		.cfi_offset 8, -16
 755 030c 13040101 		addi	s0,sp,16
 756              		.cfi_def_cfa 8, 0
 757              	.LBB21:
  49:src/syscall_cpp.cpp ****     myHandle = nullptr;
 758              		.loc 2 49 16 is_stmt 0
 759 0310 97070000 		lla	a5,_ZTV6Thread+16
 759      93870700 
 760 0318 2330F500 		sd	a5,0(a0)
  50:src/syscall_cpp.cpp ****     thread_create(&myHandle, Thread::threadWrapper, (void*)this);
 761              		.loc 2 50 5 is_stmt 1
  50:src/syscall_cpp.cpp ****     thread_create(&myHandle, Thread::threadWrapper, (void*)this);
GAS LISTING /tmp/ccQnWgoU.s 			page 19


 762              		.loc 2 50 14 is_stmt 0
 763 031c 23340500 		sd	zero,8(a0)
  51:src/syscall_cpp.cpp **** }
 764              		.loc 2 51 5 is_stmt 1
  51:src/syscall_cpp.cpp **** }
 765              		.loc 2 51 18 is_stmt 0
 766 0320 13060500 		mv	a2,a0
 767 0324 97050000 		lla	a1,_ZN6Thread13threadWrapperEPv
 767      93850500 
 768 032c 13058500 		addi	a0,a0,8
 769              	.LVL53:
 770 0330 97000000 		call	_Z13thread_createPP3TCBPFvPvES2_@plt
 770      E7800000 
 771              	.LVL54:
 772              	.LBE21:
  52:src/syscall_cpp.cpp **** 
 773              		.loc 2 52 1
 774 0338 83308100 		ld	ra,8(sp)
 775              		.cfi_restore 1
 776 033c 03340100 		ld	s0,0(sp)
 777              		.cfi_restore 8
 778              		.cfi_def_cfa 2, 16
 779 0340 13010101 		addi	sp,sp,16
 780              		.cfi_def_cfa_offset 0
 781 0344 67800000 		jr	ra
 782              		.cfi_endproc
 783              	.LFE54:
 785              		.globl	_ZN6ThreadC1Ev
 786              		.set	_ZN6ThreadC1Ev,_ZN6ThreadC2Ev
 787              		.align	2
 788              		.globl	_ZN9SemaphoreC2Ej
 790              	_ZN9SemaphoreC2Ej:
 791              	.LFB58:
  58:src/syscall_cpp.cpp ****     myHandle = nullptr;
 792              		.loc 2 58 1 is_stmt 1
 793              		.cfi_startproc
 794              	.LVL55:
 795 0348 130101FF 		addi	sp,sp,-16
 796              		.cfi_def_cfa_offset 16
 797 034c 23341100 		sd	ra,8(sp)
 798 0350 23308100 		sd	s0,0(sp)
 799              		.cfi_offset 1, -8
 800              		.cfi_offset 8, -16
 801 0354 13040101 		addi	s0,sp,16
 802              		.cfi_def_cfa 8, 0
 803              	.LBB22:
  58:src/syscall_cpp.cpp ****     myHandle = nullptr;
 804              		.loc 2 58 39 is_stmt 0
 805 0358 97070000 		lla	a5,_ZTV9Semaphore+16
 805      93870700 
 806 0360 2330F500 		sd	a5,0(a0)
  59:src/syscall_cpp.cpp ****     sem_open(&myHandle, init);
 807              		.loc 2 59 5 is_stmt 1
  59:src/syscall_cpp.cpp ****     sem_open(&myHandle, init);
 808              		.loc 2 59 14 is_stmt 0
 809 0364 23340500 		sd	zero,8(a0)
  60:src/syscall_cpp.cpp **** }
GAS LISTING /tmp/ccQnWgoU.s 			page 20


 810              		.loc 2 60 5 is_stmt 1
  60:src/syscall_cpp.cpp **** }
 811              		.loc 2 60 13 is_stmt 0
 812 0368 13058500 		addi	a0,a0,8
 813              	.LVL56:
 814 036c 97000000 		call	_Z8sem_openPP3semj@plt
 814      E7800000 
 815              	.LVL57:
 816              	.LBE22:
  61:src/syscall_cpp.cpp **** 
 817              		.loc 2 61 1
 818 0374 83308100 		ld	ra,8(sp)
 819              		.cfi_restore 1
 820 0378 03340100 		ld	s0,0(sp)
 821              		.cfi_restore 8
 822              		.cfi_def_cfa 2, 16
 823 037c 13010101 		addi	sp,sp,16
 824              		.cfi_def_cfa_offset 0
 825 0380 67800000 		jr	ra
 826              		.cfi_endproc
 827              	.LFE58:
 829              		.globl	_ZN9SemaphoreC1Ej
 830              		.set	_ZN9SemaphoreC1Ej,_ZN9SemaphoreC2Ej
 831              		.align	2
 832              		.globl	_ZN9Semaphore4waitEv
 834              	_ZN9Semaphore4waitEv:
 835              	.LFB60:
  63:src/syscall_cpp.cpp ****     return sem_wait(myHandle);
 836              		.loc 2 63 23 is_stmt 1
 837              		.cfi_startproc
 838              	.LVL58:
 839 0384 130101FF 		addi	sp,sp,-16
 840              		.cfi_def_cfa_offset 16
 841 0388 23341100 		sd	ra,8(sp)
 842 038c 23308100 		sd	s0,0(sp)
 843              		.cfi_offset 1, -8
 844              		.cfi_offset 8, -16
 845 0390 13040101 		addi	s0,sp,16
 846              		.cfi_def_cfa 8, 0
  64:src/syscall_cpp.cpp **** }
 847              		.loc 2 64 5
  64:src/syscall_cpp.cpp **** }
 848              		.loc 2 64 20 is_stmt 0
 849 0394 03358500 		ld	a0,8(a0)
 850              	.LVL59:
 851 0398 97000000 		call	_Z8sem_waitP3sem@plt
 851      E7800000 
 852              	.LVL60:
  65:src/syscall_cpp.cpp **** 
 853              		.loc 2 65 1
 854 03a0 83308100 		ld	ra,8(sp)
 855              		.cfi_restore 1
 856 03a4 03340100 		ld	s0,0(sp)
 857              		.cfi_restore 8
 858              		.cfi_def_cfa 2, 16
 859 03a8 13010101 		addi	sp,sp,16
 860              		.cfi_def_cfa_offset 0
GAS LISTING /tmp/ccQnWgoU.s 			page 21


 861 03ac 67800000 		jr	ra
 862              		.cfi_endproc
 863              	.LFE60:
 865              		.align	2
 866              		.globl	_ZN9Semaphore6signalEv
 868              	_ZN9Semaphore6signalEv:
 869              	.LFB61:
  67:src/syscall_cpp.cpp ****     return sem_signal(myHandle);
 870              		.loc 2 67 25 is_stmt 1
 871              		.cfi_startproc
 872              	.LVL61:
 873 03b0 130101FF 		addi	sp,sp,-16
 874              		.cfi_def_cfa_offset 16
 875 03b4 23341100 		sd	ra,8(sp)
 876 03b8 23308100 		sd	s0,0(sp)
 877              		.cfi_offset 1, -8
 878              		.cfi_offset 8, -16
 879 03bc 13040101 		addi	s0,sp,16
 880              		.cfi_def_cfa 8, 0
  68:src/syscall_cpp.cpp **** }
 881              		.loc 2 68 5
  68:src/syscall_cpp.cpp **** }
 882              		.loc 2 68 22 is_stmt 0
 883 03c0 03358500 		ld	a0,8(a0)
 884              	.LVL62:
 885 03c4 97000000 		call	_Z10sem_signalP3sem@plt
 885      E7800000 
 886              	.LVL63:
  69:src/syscall_cpp.cpp **** 
 887              		.loc 2 69 1
 888 03cc 83308100 		ld	ra,8(sp)
 889              		.cfi_restore 1
 890 03d0 03340100 		ld	s0,0(sp)
 891              		.cfi_restore 8
 892              		.cfi_def_cfa 2, 16
 893 03d4 13010101 		addi	sp,sp,16
 894              		.cfi_def_cfa_offset 0
 895 03d8 67800000 		jr	ra
 896              		.cfi_endproc
 897              	.LFE61:
 899              		.align	2
 900              		.globl	_ZN14PeriodicThread9terminateEv
 902              	_ZN14PeriodicThread9terminateEv:
 903              	.LFB67:
  81:src/syscall_cpp.cpp ****     }
  82:src/syscall_cpp.cpp **** 
  83:src/syscall_cpp.cpp ****     MemoryAllocator::getInstance().free(ps);
  84:src/syscall_cpp.cpp **** }
  85:src/syscall_cpp.cpp **** 
  86:src/syscall_cpp.cpp **** void PeriodicThread::terminate() {
 904              		.loc 2 86 34 is_stmt 1
 905              		.cfi_startproc
 906              	.LVL64:
 907 03dc 130101FF 		addi	sp,sp,-16
 908              		.cfi_def_cfa_offset 16
 909 03e0 23341100 		sd	ra,8(sp)
 910 03e4 23308100 		sd	s0,0(sp)
GAS LISTING /tmp/ccQnWgoU.s 			page 22


 911              		.cfi_offset 1, -8
 912              		.cfi_offset 8, -16
 913 03e8 13040101 		addi	s0,sp,16
 914              		.cfi_def_cfa 8, 0
  87:src/syscall_cpp.cpp ****     thread_exit();
 915              		.loc 2 87 5
 916              		.loc 2 87 16 is_stmt 0
 917 03ec 97000000 		call	_Z11thread_exitv@plt
 917      E7800000 
 918              	.LVL65:
  88:src/syscall_cpp.cpp **** }
 919              		.loc 2 88 1
 920 03f4 83308100 		ld	ra,8(sp)
 921              		.cfi_restore 1
 922 03f8 03340100 		ld	s0,0(sp)
 923              		.cfi_restore 8
 924              		.cfi_def_cfa 2, 16
 925 03fc 13010101 		addi	sp,sp,16
 926              		.cfi_def_cfa_offset 0
 927 0400 67800000 		jr	ra
 928              		.cfi_endproc
 929              	.LFE67:
 931              		.align	2
 932              		.globl	_ZN14PeriodicThreadC2Em
 934              	_ZN14PeriodicThreadC2Em:
 935              	.LFB69:
  89:src/syscall_cpp.cpp **** 
  90:src/syscall_cpp.cpp **** PeriodicThread::PeriodicThread(time_t period) {
 936              		.loc 2 90 1 is_stmt 1
 937              		.cfi_startproc
 938              		.cfi_personality 0x9b,DW.ref.__gxx_personality_v0
 939              		.cfi_lsda 0x1b,.LLSDA69
 940              	.LVL66:
 941 0404 130101FD 		addi	sp,sp,-48
 942              		.cfi_def_cfa_offset 48
 943 0408 23341102 		sd	ra,40(sp)
 944 040c 23308102 		sd	s0,32(sp)
 945 0410 233C9100 		sd	s1,24(sp)
 946 0414 23382101 		sd	s2,16(sp)
 947              		.cfi_offset 1, -8
 948              		.cfi_offset 8, -16
 949              		.cfi_offset 9, -24
 950              		.cfi_offset 18, -32
 951 0418 13040103 		addi	s0,sp,48
 952              		.cfi_def_cfa 8, 0
 953 041c 93040500 		mv	s1,a0
 954 0420 13890500 		mv	s2,a1
 955              	.LEHB0:
 956              	.LBB23:
 957              		.loc 2 90 45 is_stmt 0
 958 0424 97000000 		call	_ZN6ThreadC2Ev
 958      E7800000 
 959              	.LVL67:
 960              	.LEHE0:
 961 042c 97070000 		lla	a5,_ZTV14PeriodicThread+16
 961      93870700 
 962 0434 23B0F400 		sd	a5,0(s1)
GAS LISTING /tmp/ccQnWgoU.s 			page 23


 963              	.LBB24:
  91:src/syscall_cpp.cpp ****     this->period = period;
 964              		.loc 2 91 5 is_stmt 1
 965              		.loc 2 91 18 is_stmt 0
 966 0438 23B82401 		sd	s2,16(s1)
  92:src/syscall_cpp.cpp **** 
  93:src/syscall_cpp.cpp ****     periodic_s* ps = (periodic_s*) MemoryAllocator::getInstance().mallocBytes(sizeof(periodic_s));
 967              		.loc 2 93 5 is_stmt 1
 968              	.LEHB1:
 969              		.loc 2 93 65 is_stmt 0
 970 043c 97000000 		call	_ZN15MemoryAllocator11getInstanceEv@plt
 970      E7800000 
 971              	.LVL68:
 972              		.loc 2 93 78
 973 0444 93050001 		li	a1,16
 974 0448 97000000 		call	_ZN15MemoryAllocator11mallocBytesEm@plt
 974      E7800000 
 975              	.LVL69:
 976              		.loc 2 93 78 discriminator 1
 977 0450 13060500 		mv	a2,a0
 978              	.LVL70:
  94:src/syscall_cpp.cpp ****     ps->periodic_thread = this;
 979              		.loc 2 94 5 is_stmt 1 discriminator 1
 980              		.loc 2 94 25 is_stmt 0 discriminator 1
 981 0454 23309500 		sd	s1,0(a0)
  95:src/syscall_cpp.cpp ****     ps->period = period;
 982              		.loc 2 95 5 is_stmt 1 discriminator 1
 983              		.loc 2 95 16 is_stmt 0 discriminator 1
 984 0458 23342501 		sd	s2,8(a0)
  96:src/syscall_cpp.cpp **** 
  97:src/syscall_cpp.cpp ****     Thread(PeriodicThread::wrapper, ps);
 985              		.loc 2 97 5 is_stmt 1 discriminator 1
 986 045c 97050000 		lla	a1,_ZN14PeriodicThread7wrapperEPv
 986      93850500 
 987 0464 130504FD 		addi	a0,s0,-48
 988              	.LVL71:
 989 0468 97000000 		call	_ZN6ThreadC1EPFvPvES0_
 989      E7800000 
 990              	.LVL72:
 991              	.LEHE1:
 992 0470 130504FD 		addi	a0,s0,-48
 993 0474 97000000 		call	_ZN6ThreadD1Ev
 993      E7800000 
 994              	.LVL73:
 995              	.LBE24:
 996              	.LBE23:
  98:src/syscall_cpp.cpp **** }
 997              		.loc 2 98 1 is_stmt 0 discriminator 1
 998 047c 83308102 		ld	ra,40(sp)
 999              		.cfi_remember_state
 1000              		.cfi_restore 1
 1001 0480 03340102 		ld	s0,32(sp)
 1002              		.cfi_restore 8
 1003              		.cfi_def_cfa 2, 48
 1004 0484 83348101 		ld	s1,24(sp)
 1005              		.cfi_restore 9
 1006              	.LVL74:
GAS LISTING /tmp/ccQnWgoU.s 			page 24


 1007 0488 03390101 		ld	s2,16(sp)
 1008              		.cfi_restore 18
 1009              	.LVL75:
 1010 048c 13010103 		addi	sp,sp,48
 1011              		.cfi_def_cfa_offset 0
 1012 0490 67800000 		jr	ra
 1013              	.LVL76:
 1014              	.L58:
 1015              		.cfi_restore_state
 1016 0494 13090500 		mv	s2,a0
 1017              	.LVL77:
 1018              	.LBB25:
  90:src/syscall_cpp.cpp ****     this->period = period;
 1019              		.loc 2 90 45
 1020 0498 13850400 		mv	a0,s1
 1021 049c 97000000 		call	_ZN6ThreadD2Ev
 1021      E7800000 
 1022              	.LVL78:
 1023 04a4 13050900 		mv	a0,s2
 1024              	.LEHB2:
 1025 04a8 97000000 		call	_Unwind_Resume@plt
 1025      E7800000 
 1026              	.LVL79:
 1027              	.LEHE2:
 1028              	.LBE25:
 1029              		.cfi_endproc
 1030              	.LFE69:
 1031              		.section	.gcc_except_table
 1032              	.LLSDA69:
 1033 0008 FF       		.byte	0xff
 1034 0009 FF       		.byte	0xff
 1035 000a 03       		.byte	0x3
 1036 000b 27       		.byte	0x27
 1037 000c 00000000 		.4byte	.LEHB0-.LFB69
 1038 0010 00000000 		.4byte	.LEHE0-.LEHB0
 1039 0014 00000000 		.4byte	0
 1040 0018 00       		.byte	0
 1041 0019 00000000 		.4byte	.LEHB1-.LFB69
 1042 001d 00000000 		.4byte	.LEHE1-.LEHB1
 1043 0021 00000000 		.4byte	.L58-.LFB69
 1044 0025 00       		.byte	0
 1045 0026 00000000 		.4byte	.LEHB2-.LFB69
 1046 002a 00000000 		.4byte	.LEHE2-.LEHB2
 1047 002e 00000000 		.4byte	0
 1048 0032 00       		.byte	0
 1049              		.text
 1051              		.globl	_ZN14PeriodicThreadC1Em
 1052              		.set	_ZN14PeriodicThreadC1Em,_ZN14PeriodicThreadC2Em
 1053              		.align	2
 1054              		.globl	_ZN7Console4getcEv
 1056              	_ZN7Console4getcEv:
 1057              	.LFB71:
  99:src/syscall_cpp.cpp **** 
 100:src/syscall_cpp.cpp **** char Console::getc() {
 1058              		.loc 2 100 22 is_stmt 1
 1059              		.cfi_startproc
 1060 04b0 130101FF 		addi	sp,sp,-16
GAS LISTING /tmp/ccQnWgoU.s 			page 25


 1061              		.cfi_def_cfa_offset 16
 1062 04b4 23341100 		sd	ra,8(sp)
 1063 04b8 23308100 		sd	s0,0(sp)
 1064              		.cfi_offset 1, -8
 1065              		.cfi_offset 8, -16
 1066 04bc 13040101 		addi	s0,sp,16
 1067              		.cfi_def_cfa 8, 0
 101:src/syscall_cpp.cpp ****     return __getc();
 1068              		.loc 2 101 5
 1069              		.loc 2 101 18 is_stmt 0
 1070 04c0 97000000 		call	__getc@plt
 1070      E7800000 
 1071              	.LVL80:
 102:src/syscall_cpp.cpp **** }
 1072              		.loc 2 102 1
 1073 04c8 83308100 		ld	ra,8(sp)
 1074              		.cfi_restore 1
 1075 04cc 03340100 		ld	s0,0(sp)
 1076              		.cfi_restore 8
 1077              		.cfi_def_cfa 2, 16
 1078 04d0 13010101 		addi	sp,sp,16
 1079              		.cfi_def_cfa_offset 0
 1080 04d4 67800000 		jr	ra
 1081              		.cfi_endproc
 1082              	.LFE71:
 1084              		.align	2
 1085              		.globl	_ZN7Console4putcEc
 1087              	_ZN7Console4putcEc:
 1088              	.LFB72:
 103:src/syscall_cpp.cpp **** 
 104:src/syscall_cpp.cpp **** void Console::putc(char c) {
 1089              		.loc 2 104 28 is_stmt 1
 1090              		.cfi_startproc
 1091              	.LVL81:
 1092 04d8 130101FF 		addi	sp,sp,-16
 1093              		.cfi_def_cfa_offset 16
 1094 04dc 23341100 		sd	ra,8(sp)
 1095 04e0 23308100 		sd	s0,0(sp)
 1096              		.cfi_offset 1, -8
 1097              		.cfi_offset 8, -16
 1098 04e4 13040101 		addi	s0,sp,16
 1099              		.cfi_def_cfa 8, 0
 105:src/syscall_cpp.cpp ****     __putc(c);
 1100              		.loc 2 105 5
 1101              		.loc 2 105 11 is_stmt 0
 1102 04e8 97000000 		call	__putc@plt
 1102      E7800000 
 1103              	.LVL82:
 106:src/syscall_cpp.cpp **** }
 1104              		.loc 2 106 1
 1105 04f0 83308100 		ld	ra,8(sp)
 1106              		.cfi_restore 1
 1107 04f4 03340100 		ld	s0,0(sp)
 1108              		.cfi_restore 8
 1109              		.cfi_def_cfa 2, 16
 1110 04f8 13010101 		addi	sp,sp,16
 1111              		.cfi_def_cfa_offset 0
GAS LISTING /tmp/ccQnWgoU.s 			page 26


 1112 04fc 67800000 		jr	ra
 1113              		.cfi_endproc
 1114              	.LFE72:
 1116              		.weak	_ZTV14PeriodicThread
 1117              		.section	.data.rel.ro.local._ZTV14PeriodicThread,"awG",@progbits,_ZTV14PeriodicThread,comdat
 1118              		.align	3
 1121              	_ZTV14PeriodicThread:
 1122 0000 00000000 		.dword	0
 1122      00000000 
 1123 0008 00000000 		.dword	0
 1123      00000000 
 1124 0010 00000000 		.dword	_ZN14PeriodicThreadD1Ev
 1124      00000000 
 1125 0018 00000000 		.dword	_ZN14PeriodicThreadD0Ev
 1125      00000000 
 1126 0020 00000000 		.dword	_ZN6Thread3runEv
 1126      00000000 
 1127 0028 00000000 		.dword	_ZN14PeriodicThread18periodicActivationEv
 1127      00000000 
 1128              		.weak	_ZTV6Thread
 1129              		.section	.data.rel.ro.local._ZTV6Thread,"awG",@progbits,_ZTV6Thread,comdat
 1130              		.align	3
 1133              	_ZTV6Thread:
 1134 0000 00000000 		.dword	0
 1134      00000000 
 1135 0008 00000000 		.dword	0
 1135      00000000 
 1136 0010 00000000 		.dword	_ZN6ThreadD1Ev
 1136      00000000 
 1137 0018 00000000 		.dword	_ZN6ThreadD0Ev
 1137      00000000 
 1138 0020 00000000 		.dword	_ZN6Thread3runEv
 1138      00000000 
 1139              		.weak	_ZTV9Semaphore
 1140              		.section	.data.rel.ro.local._ZTV9Semaphore,"awG",@progbits,_ZTV9Semaphore,comdat
 1141              		.align	3
 1144              	_ZTV9Semaphore:
 1145 0000 00000000 		.dword	0
 1145      00000000 
 1146 0008 00000000 		.dword	0
 1146      00000000 
 1147 0010 00000000 		.dword	_ZN9SemaphoreD1Ev
 1147      00000000 
 1148 0018 00000000 		.dword	_ZN9SemaphoreD0Ev
 1148      00000000 
 1149              		.text
 1150              	.Letext0:
 1151              		.file 4 "src/../h/../h/../lib/hw.h"
 1152              		.file 5 "src/../h/../h/MemoryAllocator.hpp"
 1153              		.file 6 "src/../h/../h/syscall_c.h"
 1154              		.file 7 "src/../h/../h/../h/../h/sem.hpp"
 1155              		.file 8 "src/../lib/console.h"
 6153              		.align	3
 6156              	DW.ref.__gxx_personality_v0:
 6157 0000 00000000 		.dword	__gxx_personality_v0
 6157      00000000 
 6158              		.ident	"GCC: (Ubuntu 9.4.0-1ubuntu1~20.04) 9.4.0"
GAS LISTING /tmp/ccQnWgoU.s 			page 27


 6159              		.section	.note.GNU-stack,"",@progbits
GAS LISTING /tmp/ccQnWgoU.s 			page 28


DEFINED SYMBOLS
                            *ABS*:0000000000000000 syscall_cpp.cpp
     /tmp/ccQnWgoU.s:10     .text._ZN6Thread3runEv:0000000000000000 _ZN6Thread3runEv
     /tmp/ccQnWgoU.s:14     .text._ZN6Thread3runEv:0000000000000000 .L0 
     /tmp/ccQnWgoU.s:16     .text._ZN6Thread3runEv:0000000000000000 .L0 
     /tmp/ccQnWgoU.s:17     .text._ZN6Thread3runEv:0000000000000004 .L0 
     /tmp/ccQnWgoU.s:19     .text._ZN6Thread3runEv:0000000000000008 .L0 
     /tmp/ccQnWgoU.s:21     .text._ZN6Thread3runEv:000000000000000c .L0 
     /tmp/ccQnWgoU.s:23     .text._ZN6Thread3runEv:000000000000000c .L0 
     /tmp/ccQnWgoU.s:24     .text._ZN6Thread3runEv:0000000000000010 .L0 
     /tmp/ccQnWgoU.s:25     .text._ZN6Thread3runEv:0000000000000010 .L0 
     /tmp/ccQnWgoU.s:27     .text._ZN6Thread3runEv:0000000000000014 .L0 
     /tmp/ccQnWgoU.s:29     .text._ZN6Thread3runEv:0000000000000018 .L0 
     /tmp/ccQnWgoU.s:36     .text._ZN14PeriodicThread18periodicActivationEv:0000000000000000 _ZN14PeriodicThread18periodicActivationEv
     /tmp/ccQnWgoU.s:39     .text._ZN14PeriodicThread18periodicActivationEv:0000000000000000 .L0 
     /tmp/ccQnWgoU.s:41     .text._ZN14PeriodicThread18periodicActivationEv:0000000000000000 .L0 
     /tmp/ccQnWgoU.s:42     .text._ZN14PeriodicThread18periodicActivationEv:0000000000000004 .L0 
     /tmp/ccQnWgoU.s:44     .text._ZN14PeriodicThread18periodicActivationEv:0000000000000008 .L0 
     /tmp/ccQnWgoU.s:46     .text._ZN14PeriodicThread18periodicActivationEv:000000000000000c .L0 
     /tmp/ccQnWgoU.s:48     .text._ZN14PeriodicThread18periodicActivationEv:000000000000000c .L0 
     /tmp/ccQnWgoU.s:49     .text._ZN14PeriodicThread18periodicActivationEv:0000000000000010 .L0 
     /tmp/ccQnWgoU.s:50     .text._ZN14PeriodicThread18periodicActivationEv:0000000000000010 .L0 
     /tmp/ccQnWgoU.s:52     .text._ZN14PeriodicThread18periodicActivationEv:0000000000000014 .L0 
     /tmp/ccQnWgoU.s:54     .text._ZN14PeriodicThread18periodicActivationEv:0000000000000018 .L0 
     /tmp/ccQnWgoU.s:61     .text:0000000000000000 _ZN6Thread13threadWrapperEPv
     /tmp/ccQnWgoU.s:65     .text:0000000000000000 .L0 
     /tmp/ccQnWgoU.s:67     .text:0000000000000000 .L0 
     /tmp/ccQnWgoU.s:68     .text:0000000000000004 .L0 
     /tmp/ccQnWgoU.s:71     .text:000000000000000c .L0 
     /tmp/ccQnWgoU.s:72     .text:000000000000000c .L0 
     /tmp/ccQnWgoU.s:74     .text:0000000000000010 .L0 
     /tmp/ccQnWgoU.s:76     .text:0000000000000010 .L0 
     /tmp/ccQnWgoU.s:77     .text:0000000000000010 .L0 
     /tmp/ccQnWgoU.s:80     .text:0000000000000018 .L0 
     /tmp/ccQnWgoU.s:83     .text:000000000000001c .L0 
     /tmp/ccQnWgoU.s:84     .text:0000000000000020 .L0 
     /tmp/ccQnWgoU.s:86     .text:0000000000000024 .L0 
     /tmp/ccQnWgoU.s:87     .text:0000000000000024 .L0 
     /tmp/ccQnWgoU.s:89     .text:0000000000000028 .L0 
     /tmp/ccQnWgoU.s:91     .text:000000000000002c .L0 
     /tmp/ccQnWgoU.s:97     .text:000000000000002c _ZN14PeriodicThread7wrapperEPv
     /tmp/ccQnWgoU.s:100    .text:000000000000002c .L0 
     /tmp/ccQnWgoU.s:102    .text:000000000000002c .L0 
     /tmp/ccQnWgoU.s:103    .text:0000000000000030 .L0 
     /tmp/ccQnWgoU.s:107    .text:000000000000003c .L0 
     /tmp/ccQnWgoU.s:108    .text:000000000000003c .L0 
     /tmp/ccQnWgoU.s:109    .text:000000000000003c .L0 
     /tmp/ccQnWgoU.s:111    .text:0000000000000040 .L0 
     /tmp/ccQnWgoU.s:116    .text:0000000000000044 .L0 
     /tmp/ccQnWgoU.s:117    .text:0000000000000044 .L0 
     /tmp/ccQnWgoU.s:118    .text:0000000000000044 .L0 
     /tmp/ccQnWgoU.s:119    .text:0000000000000044 .L0 
     /tmp/ccQnWgoU.s:123    .text:0000000000000050 .L0 
     /tmp/ccQnWgoU.s:124    .text:0000000000000050 .L0 
     /tmp/ccQnWgoU.s:126    .text:0000000000000054 .L0 
     /tmp/ccQnWgoU.s:129    .text:000000000000005c .L0 
     /tmp/ccQnWgoU.s:132    .text:0000000000000060 .L0 
GAS LISTING /tmp/ccQnWgoU.s 			page 29


     /tmp/ccQnWgoU.s:133    .text:0000000000000064 .L0 
     /tmp/ccQnWgoU.s:139    .text:0000000000000064 _ZN9SemaphoreD2Ev
     /tmp/ccQnWgoU.s:142    .text:0000000000000064 .L0 
     /tmp/ccQnWgoU.s:6156   .data.rel.local.DW.ref.__gxx_personality_v0:0000000000000000 DW.ref.__gxx_personality_v0
     /tmp/ccQnWgoU.s:146    .text:0000000000000064 .L0 
     /tmp/ccQnWgoU.s:147    .text:0000000000000068 .L0 
     /tmp/ccQnWgoU.s:150    .text:0000000000000070 .L0 
     /tmp/ccQnWgoU.s:151    .text:0000000000000070 .L0 
     /tmp/ccQnWgoU.s:153    .text:0000000000000074 .L0 
     /tmp/ccQnWgoU.s:1144   .data.rel.ro.local._ZTV9Semaphore:0000000000000000 _ZTV9Semaphore
     /tmp/ccQnWgoU.s:156    .text:0000000000000074 .L0 
     /tmp/ccQnWgoU.s:159    .text:0000000000000080 .L0 
     /tmp/ccQnWgoU.s:160    .text:0000000000000080 .L0 
     /tmp/ccQnWgoU.s:166    .text:000000000000008c .L0 
     /tmp/ccQnWgoU.s:167    .text:0000000000000090 .L0 
     /tmp/ccQnWgoU.s:169    .text:0000000000000094 .L0 
     /tmp/ccQnWgoU.s:170    .text:0000000000000094 .L0 
     /tmp/ccQnWgoU.s:172    .text:0000000000000098 .L0 
     /tmp/ccQnWgoU.s:174    .text:000000000000009c .L0 
     /tmp/ccQnWgoU.s:139    .text:0000000000000064 _ZN9SemaphoreD1Ev
     /tmp/ccQnWgoU.s:190    .text:000000000000009c _Znwm
     /tmp/ccQnWgoU.s:193    .text:000000000000009c .L0 
     /tmp/ccQnWgoU.s:195    .text:000000000000009c .L0 
     /tmp/ccQnWgoU.s:196    .text:00000000000000a0 .L0 
     /tmp/ccQnWgoU.s:199    .text:00000000000000a8 .L0 
     /tmp/ccQnWgoU.s:200    .text:00000000000000a8 .L0 
     /tmp/ccQnWgoU.s:202    .text:00000000000000ac .L0 
     /tmp/ccQnWgoU.s:204    .text:00000000000000ac .L0 
     /tmp/ccQnWgoU.s:205    .text:00000000000000ac .L0 
     /tmp/ccQnWgoU.s:208    .text:00000000000000b4 .L0 
     /tmp/ccQnWgoU.s:209    .text:00000000000000b8 .L0 
     /tmp/ccQnWgoU.s:211    .text:00000000000000bc .L0 
     /tmp/ccQnWgoU.s:212    .text:00000000000000bc .L0 
     /tmp/ccQnWgoU.s:214    .text:00000000000000c0 .L0 
     /tmp/ccQnWgoU.s:216    .text:00000000000000c4 .L0 
     /tmp/ccQnWgoU.s:222    .text:00000000000000c4 _Znam
     /tmp/ccQnWgoU.s:225    .text:00000000000000c4 .L0 
     /tmp/ccQnWgoU.s:227    .text:00000000000000c4 .L0 
     /tmp/ccQnWgoU.s:228    .text:00000000000000c8 .L0 
     /tmp/ccQnWgoU.s:231    .text:00000000000000d0 .L0 
     /tmp/ccQnWgoU.s:232    .text:00000000000000d0 .L0 
     /tmp/ccQnWgoU.s:234    .text:00000000000000d4 .L0 
     /tmp/ccQnWgoU.s:236    .text:00000000000000d4 .L0 
     /tmp/ccQnWgoU.s:237    .text:00000000000000d4 .L0 
     /tmp/ccQnWgoU.s:240    .text:00000000000000dc .L0 
     /tmp/ccQnWgoU.s:241    .text:00000000000000e0 .L0 
     /tmp/ccQnWgoU.s:243    .text:00000000000000e4 .L0 
     /tmp/ccQnWgoU.s:244    .text:00000000000000e4 .L0 
     /tmp/ccQnWgoU.s:246    .text:00000000000000e8 .L0 
     /tmp/ccQnWgoU.s:248    .text:00000000000000ec .L0 
     /tmp/ccQnWgoU.s:254    .text:00000000000000ec _ZdlPv
     /tmp/ccQnWgoU.s:257    .text:00000000000000ec .L0 
     /tmp/ccQnWgoU.s:259    .text:00000000000000ec .L0 
     /tmp/ccQnWgoU.s:260    .text:00000000000000f0 .L0 
     /tmp/ccQnWgoU.s:263    .text:00000000000000f8 .L0 
     /tmp/ccQnWgoU.s:264    .text:00000000000000f8 .L0 
     /tmp/ccQnWgoU.s:266    .text:00000000000000fc .L0 
GAS LISTING /tmp/ccQnWgoU.s 			page 30


     /tmp/ccQnWgoU.s:268    .text:00000000000000fc .L0 
     /tmp/ccQnWgoU.s:269    .text:00000000000000fc .L0 
     /tmp/ccQnWgoU.s:272    .text:0000000000000104 .L0 
     /tmp/ccQnWgoU.s:273    .text:0000000000000108 .L0 
     /tmp/ccQnWgoU.s:275    .text:000000000000010c .L0 
     /tmp/ccQnWgoU.s:276    .text:000000000000010c .L0 
     /tmp/ccQnWgoU.s:278    .text:0000000000000110 .L0 
     /tmp/ccQnWgoU.s:280    .text:0000000000000114 .L0 
     /tmp/ccQnWgoU.s:286    .text:0000000000000114 _ZN9SemaphoreD0Ev
     /tmp/ccQnWgoU.s:289    .text:0000000000000114 .L0 
     /tmp/ccQnWgoU.s:291    .text:0000000000000114 .L0 
     /tmp/ccQnWgoU.s:292    .text:0000000000000118 .L0 
     /tmp/ccQnWgoU.s:296    .text:0000000000000124 .L0 
     /tmp/ccQnWgoU.s:297    .text:0000000000000124 .L0 
     /tmp/ccQnWgoU.s:298    .text:0000000000000124 .L0 
     /tmp/ccQnWgoU.s:300    .text:0000000000000128 .L0 
     /tmp/ccQnWgoU.s:303    .text:000000000000012c .L0 
     /tmp/ccQnWgoU.s:309    .text:0000000000000144 .L0 
     /tmp/ccQnWgoU.s:311    .text:0000000000000148 .L0 
     /tmp/ccQnWgoU.s:312    .text:0000000000000148 .L0 
     /tmp/ccQnWgoU.s:314    .text:000000000000014c .L0 
     /tmp/ccQnWgoU.s:317    .text:0000000000000150 .L0 
     /tmp/ccQnWgoU.s:319    .text:0000000000000154 .L0 
     /tmp/ccQnWgoU.s:325    .text:0000000000000154 _ZdaPv
     /tmp/ccQnWgoU.s:328    .text:0000000000000154 .L0 
     /tmp/ccQnWgoU.s:330    .text:0000000000000154 .L0 
     /tmp/ccQnWgoU.s:331    .text:0000000000000158 .L0 
     /tmp/ccQnWgoU.s:334    .text:0000000000000160 .L0 
     /tmp/ccQnWgoU.s:335    .text:0000000000000160 .L0 
     /tmp/ccQnWgoU.s:337    .text:0000000000000164 .L0 
     /tmp/ccQnWgoU.s:339    .text:0000000000000164 .L0 
     /tmp/ccQnWgoU.s:340    .text:0000000000000164 .L0 
     /tmp/ccQnWgoU.s:343    .text:000000000000016c .L0 
     /tmp/ccQnWgoU.s:344    .text:0000000000000170 .L0 
     /tmp/ccQnWgoU.s:346    .text:0000000000000174 .L0 
     /tmp/ccQnWgoU.s:347    .text:0000000000000174 .L0 
     /tmp/ccQnWgoU.s:349    .text:0000000000000178 .L0 
     /tmp/ccQnWgoU.s:351    .text:000000000000017c .L0 
     /tmp/ccQnWgoU.s:357    .text:000000000000017c _ZN6ThreadD2Ev
     /tmp/ccQnWgoU.s:360    .text:000000000000017c .L0 
     /tmp/ccQnWgoU.s:364    .text:000000000000017c .L0 
     /tmp/ccQnWgoU.s:365    .text:0000000000000180 .L0 
     /tmp/ccQnWgoU.s:369    .text:000000000000018c .L0 
     /tmp/ccQnWgoU.s:370    .text:000000000000018c .L0 
     /tmp/ccQnWgoU.s:371    .text:000000000000018c .L0 
     /tmp/ccQnWgoU.s:373    .text:0000000000000190 .L0 
     /tmp/ccQnWgoU.s:1133   .data.rel.ro.local._ZTV6Thread:0000000000000000 _ZTV6Thread
     /tmp/ccQnWgoU.s:376    .text:0000000000000190 .L0 
     /tmp/ccQnWgoU.s:379    .text:000000000000019c .L0 
     /tmp/ccQnWgoU.s:385    .text:00000000000001a0 .L0 
     /tmp/ccQnWgoU.s:386    .text:00000000000001a0 .L0 
     /tmp/ccQnWgoU.s:392    .text:00000000000001a8 .L0 
     /tmp/ccQnWgoU.s:393    .text:00000000000001a8 .L0 
     /tmp/ccQnWgoU.s:395    .text:00000000000001ac .L0 
     /tmp/ccQnWgoU.s:400    .text:00000000000001b0 .L0 
     /tmp/ccQnWgoU.s:401    .text:00000000000001b0 .L0 
     /tmp/ccQnWgoU.s:404    .text:00000000000001b4 .L0 
GAS LISTING /tmp/ccQnWgoU.s 			page 31


     /tmp/ccQnWgoU.s:406    .text:00000000000001b8 .L0 
     /tmp/ccQnWgoU.s:412    .text:00000000000001c0 .L0 
     /tmp/ccQnWgoU.s:418    .text:00000000000001cc .L0 
     /tmp/ccQnWgoU.s:419    .text:00000000000001d0 .L0 
     /tmp/ccQnWgoU.s:421    .text:00000000000001d4 .L0 
     /tmp/ccQnWgoU.s:422    .text:00000000000001d4 .L0 
     /tmp/ccQnWgoU.s:424    .text:00000000000001d8 .L0 
     /tmp/ccQnWgoU.s:426    .text:00000000000001dc .L0 
     /tmp/ccQnWgoU.s:428    .text:00000000000001e0 .L0 
     /tmp/ccQnWgoU.s:357    .text:000000000000017c _ZN6ThreadD1Ev
     /tmp/ccQnWgoU.s:443    .text:00000000000001e0 _ZN6ThreadD0Ev
     /tmp/ccQnWgoU.s:446    .text:00000000000001e0 .L0 
     /tmp/ccQnWgoU.s:448    .text:00000000000001e0 .L0 
     /tmp/ccQnWgoU.s:449    .text:00000000000001e4 .L0 
     /tmp/ccQnWgoU.s:453    .text:00000000000001f0 .L0 
     /tmp/ccQnWgoU.s:454    .text:00000000000001f0 .L0 
     /tmp/ccQnWgoU.s:455    .text:00000000000001f0 .L0 
     /tmp/ccQnWgoU.s:457    .text:00000000000001f4 .L0 
     /tmp/ccQnWgoU.s:460    .text:00000000000001f8 .L0 
     /tmp/ccQnWgoU.s:466    .text:0000000000000210 .L0 
     /tmp/ccQnWgoU.s:468    .text:0000000000000214 .L0 
     /tmp/ccQnWgoU.s:469    .text:0000000000000214 .L0 
     /tmp/ccQnWgoU.s:471    .text:0000000000000218 .L0 
     /tmp/ccQnWgoU.s:474    .text:000000000000021c .L0 
     /tmp/ccQnWgoU.s:476    .text:0000000000000220 .L0 
     /tmp/ccQnWgoU.s:483    .text._ZN14PeriodicThreadD2Ev:0000000000000000 _ZN14PeriodicThreadD2Ev
     /tmp/ccQnWgoU.s:486    .text._ZN14PeriodicThreadD2Ev:0000000000000000 .L0 
     /tmp/ccQnWgoU.s:488    .text._ZN14PeriodicThreadD2Ev:0000000000000000 .L0 
     /tmp/ccQnWgoU.s:489    .text._ZN14PeriodicThreadD2Ev:0000000000000004 .L0 
     /tmp/ccQnWgoU.s:492    .text._ZN14PeriodicThreadD2Ev:000000000000000c .L0 
     /tmp/ccQnWgoU.s:493    .text._ZN14PeriodicThreadD2Ev:000000000000000c .L0 
     /tmp/ccQnWgoU.s:495    .text._ZN14PeriodicThreadD2Ev:0000000000000010 .L0 
     /tmp/ccQnWgoU.s:1121   .data.rel.ro.local._ZTV14PeriodicThread:0000000000000000 _ZTV14PeriodicThread
     /tmp/ccQnWgoU.s:498    .text._ZN14PeriodicThreadD2Ev:0000000000000010 .L0 
     /tmp/ccQnWgoU.s:504    .text._ZN14PeriodicThreadD2Ev:0000000000000028 .L0 
     /tmp/ccQnWgoU.s:506    .text._ZN14PeriodicThreadD2Ev:000000000000002c .L0 
     /tmp/ccQnWgoU.s:507    .text._ZN14PeriodicThreadD2Ev:000000000000002c .L0 
     /tmp/ccQnWgoU.s:509    .text._ZN14PeriodicThreadD2Ev:0000000000000030 .L0 
     /tmp/ccQnWgoU.s:511    .text._ZN14PeriodicThreadD2Ev:0000000000000034 .L0 
     /tmp/ccQnWgoU.s:483    .text._ZN14PeriodicThreadD2Ev:0000000000000000 _ZN14PeriodicThreadD1Ev
     /tmp/ccQnWgoU.s:520    .text._ZN14PeriodicThreadD0Ev:0000000000000000 _ZN14PeriodicThreadD0Ev
     /tmp/ccQnWgoU.s:523    .text._ZN14PeriodicThreadD0Ev:0000000000000000 .L0 
     /tmp/ccQnWgoU.s:525    .text._ZN14PeriodicThreadD0Ev:0000000000000000 .L0 
     /tmp/ccQnWgoU.s:526    .text._ZN14PeriodicThreadD0Ev:0000000000000004 .L0 
     /tmp/ccQnWgoU.s:530    .text._ZN14PeriodicThreadD0Ev:0000000000000010 .L0 
     /tmp/ccQnWgoU.s:531    .text._ZN14PeriodicThreadD0Ev:0000000000000010 .L0 
     /tmp/ccQnWgoU.s:532    .text._ZN14PeriodicThreadD0Ev:0000000000000010 .L0 
     /tmp/ccQnWgoU.s:534    .text._ZN14PeriodicThreadD0Ev:0000000000000014 .L0 
     /tmp/ccQnWgoU.s:540    .text._ZN14PeriodicThreadD0Ev:0000000000000018 .L0 
     /tmp/ccQnWgoU.s:550    .text._ZN14PeriodicThreadD0Ev:000000000000003c .L0 
     /tmp/ccQnWgoU.s:552    .text._ZN14PeriodicThreadD0Ev:0000000000000040 .L0 
     /tmp/ccQnWgoU.s:553    .text._ZN14PeriodicThreadD0Ev:0000000000000040 .L0 
     /tmp/ccQnWgoU.s:555    .text._ZN14PeriodicThreadD0Ev:0000000000000044 .L0 
     /tmp/ccQnWgoU.s:558    .text._ZN14PeriodicThreadD0Ev:0000000000000048 .L0 
     /tmp/ccQnWgoU.s:560    .text._ZN14PeriodicThreadD0Ev:000000000000004c .L0 
     /tmp/ccQnWgoU.s:567    .text:0000000000000220 _ZN6ThreadC2EPFvPvES0_
     /tmp/ccQnWgoU.s:570    .text:0000000000000220 .L0 
GAS LISTING /tmp/ccQnWgoU.s 			page 32


     /tmp/ccQnWgoU.s:572    .text:0000000000000220 .L0 
     /tmp/ccQnWgoU.s:573    .text:0000000000000224 .L0 
     /tmp/ccQnWgoU.s:576    .text:000000000000022c .L0 
     /tmp/ccQnWgoU.s:577    .text:000000000000022c .L0 
     /tmp/ccQnWgoU.s:579    .text:0000000000000230 .L0 
     /tmp/ccQnWgoU.s:582    .text:0000000000000230 .L0 
     /tmp/ccQnWgoU.s:585    .text:000000000000023c .L0 
     /tmp/ccQnWgoU.s:586    .text:000000000000023c .L0 
     /tmp/ccQnWgoU.s:588    .text:0000000000000240 .L0 
     /tmp/ccQnWgoU.s:589    .text:0000000000000240 .L0 
     /tmp/ccQnWgoU.s:595    .text:000000000000024c .L0 
     /tmp/ccQnWgoU.s:596    .text:0000000000000250 .L0 
     /tmp/ccQnWgoU.s:598    .text:0000000000000254 .L0 
     /tmp/ccQnWgoU.s:599    .text:0000000000000254 .L0 
     /tmp/ccQnWgoU.s:601    .text:0000000000000258 .L0 
     /tmp/ccQnWgoU.s:603    .text:000000000000025c .L0 
     /tmp/ccQnWgoU.s:567    .text:0000000000000220 _ZN6ThreadC1EPFvPvES0_
     /tmp/ccQnWgoU.s:611    .text:000000000000025c _ZN6Thread5startEv
     /tmp/ccQnWgoU.s:614    .text:000000000000025c .L0 
     /tmp/ccQnWgoU.s:616    .text:000000000000025c .L0 
     /tmp/ccQnWgoU.s:617    .text:0000000000000260 .L0 
     /tmp/ccQnWgoU.s:619    .text:0000000000000264 .L0 
     /tmp/ccQnWgoU.s:621    .text:0000000000000268 .L0 
     /tmp/ccQnWgoU.s:623    .text:0000000000000268 .L0 
     /tmp/ccQnWgoU.s:624    .text:0000000000000268 .L0 
     /tmp/ccQnWgoU.s:627    .text:0000000000000270 .L0 
     /tmp/ccQnWgoU.s:628    .text:0000000000000270 .L0 
     /tmp/ccQnWgoU.s:630    .text:0000000000000274 .L0 
     /tmp/ccQnWgoU.s:632    .text:0000000000000278 .L0 
     /tmp/ccQnWgoU.s:638    .text:0000000000000278 _ZN6Thread4joinEv
     /tmp/ccQnWgoU.s:641    .text:0000000000000278 .L0 
     /tmp/ccQnWgoU.s:643    .text:0000000000000278 .L0 
     /tmp/ccQnWgoU.s:644    .text:0000000000000278 .L0 
     /tmp/ccQnWgoU.s:645    .text:0000000000000278 .L0 
     /tmp/ccQnWgoU.s:648    .text:000000000000027c .L0 
     /tmp/ccQnWgoU.s:650    .text:0000000000000280 .L0 
     /tmp/ccQnWgoU.s:651    .text:0000000000000284 .L0 
     /tmp/ccQnWgoU.s:654    .text:000000000000028c .L0 
     /tmp/ccQnWgoU.s:655    .text:000000000000028c .L0 
     /tmp/ccQnWgoU.s:657    .text:0000000000000290 .L0 
     /tmp/ccQnWgoU.s:659    .text:0000000000000290 .L0 
     /tmp/ccQnWgoU.s:660    .text:0000000000000290 .L0 
     /tmp/ccQnWgoU.s:663    .text:0000000000000298 .L0 
     /tmp/ccQnWgoU.s:664    .text:000000000000029c .L0 
     /tmp/ccQnWgoU.s:666    .text:00000000000002a0 .L0 
     /tmp/ccQnWgoU.s:667    .text:00000000000002a0 .L0 
     /tmp/ccQnWgoU.s:669    .text:00000000000002a4 .L0 
     /tmp/ccQnWgoU.s:673    .text:00000000000002ac .L0 
     /tmp/ccQnWgoU.s:679    .text:00000000000002ac _ZN6Thread8dispatchEv
     /tmp/ccQnWgoU.s:682    .text:00000000000002ac .L0 
     /tmp/ccQnWgoU.s:683    .text:00000000000002ac .L0 
     /tmp/ccQnWgoU.s:684    .text:00000000000002b0 .L0 
     /tmp/ccQnWgoU.s:687    .text:00000000000002b8 .L0 
     /tmp/ccQnWgoU.s:688    .text:00000000000002b8 .L0 
     /tmp/ccQnWgoU.s:690    .text:00000000000002bc .L0 
     /tmp/ccQnWgoU.s:692    .text:00000000000002bc .L0 
     /tmp/ccQnWgoU.s:693    .text:00000000000002bc .L0 
GAS LISTING /tmp/ccQnWgoU.s 			page 33


     /tmp/ccQnWgoU.s:696    .text:00000000000002c4 .L0 
     /tmp/ccQnWgoU.s:697    .text:00000000000002c8 .L0 
     /tmp/ccQnWgoU.s:699    .text:00000000000002cc .L0 
     /tmp/ccQnWgoU.s:700    .text:00000000000002cc .L0 
     /tmp/ccQnWgoU.s:702    .text:00000000000002d0 .L0 
     /tmp/ccQnWgoU.s:704    .text:00000000000002d4 .L0 
     /tmp/ccQnWgoU.s:710    .text:00000000000002d4 _ZN6Thread5sleepEm
     /tmp/ccQnWgoU.s:713    .text:00000000000002d4 .L0 
     /tmp/ccQnWgoU.s:715    .text:00000000000002d4 .L0 
     /tmp/ccQnWgoU.s:716    .text:00000000000002d8 .L0 
     /tmp/ccQnWgoU.s:719    .text:00000000000002e0 .L0 
     /tmp/ccQnWgoU.s:720    .text:00000000000002e0 .L0 
     /tmp/ccQnWgoU.s:722    .text:00000000000002e4 .L0 
     /tmp/ccQnWgoU.s:724    .text:00000000000002e4 .L0 
     /tmp/ccQnWgoU.s:725    .text:00000000000002e4 .L0 
     /tmp/ccQnWgoU.s:728    .text:00000000000002ec .L0 
     /tmp/ccQnWgoU.s:729    .text:00000000000002ec .L0 
     /tmp/ccQnWgoU.s:731    .text:00000000000002f4 .L0 
     /tmp/ccQnWgoU.s:733    .text:00000000000002f8 .L0 
     /tmp/ccQnWgoU.s:734    .text:00000000000002f8 .L0 
     /tmp/ccQnWgoU.s:736    .text:00000000000002fc .L0 
     /tmp/ccQnWgoU.s:738    .text:0000000000000300 .L0 
     /tmp/ccQnWgoU.s:744    .text:0000000000000300 _ZN6ThreadC2Ev
     /tmp/ccQnWgoU.s:747    .text:0000000000000300 .L0 
     /tmp/ccQnWgoU.s:749    .text:0000000000000300 .L0 
     /tmp/ccQnWgoU.s:750    .text:0000000000000304 .L0 
     /tmp/ccQnWgoU.s:753    .text:000000000000030c .L0 
     /tmp/ccQnWgoU.s:754    .text:000000000000030c .L0 
     /tmp/ccQnWgoU.s:756    .text:0000000000000310 .L0 
     /tmp/ccQnWgoU.s:759    .text:0000000000000310 .L0 
     /tmp/ccQnWgoU.s:762    .text:000000000000031c .L0 
     /tmp/ccQnWgoU.s:763    .text:000000000000031c .L0 
     /tmp/ccQnWgoU.s:765    .text:0000000000000320 .L0 
     /tmp/ccQnWgoU.s:766    .text:0000000000000320 .L0 
     /tmp/ccQnWgoU.s:774    .text:0000000000000338 .L0 
     /tmp/ccQnWgoU.s:775    .text:000000000000033c .L0 
     /tmp/ccQnWgoU.s:777    .text:0000000000000340 .L0 
     /tmp/ccQnWgoU.s:778    .text:0000000000000340 .L0 
     /tmp/ccQnWgoU.s:780    .text:0000000000000344 .L0 
     /tmp/ccQnWgoU.s:782    .text:0000000000000348 .L0 
     /tmp/ccQnWgoU.s:744    .text:0000000000000300 _ZN6ThreadC1Ev
     /tmp/ccQnWgoU.s:790    .text:0000000000000348 _ZN9SemaphoreC2Ej
     /tmp/ccQnWgoU.s:793    .text:0000000000000348 .L0 
     /tmp/ccQnWgoU.s:795    .text:0000000000000348 .L0 
     /tmp/ccQnWgoU.s:796    .text:000000000000034c .L0 
     /tmp/ccQnWgoU.s:799    .text:0000000000000354 .L0 
     /tmp/ccQnWgoU.s:800    .text:0000000000000354 .L0 
     /tmp/ccQnWgoU.s:802    .text:0000000000000358 .L0 
     /tmp/ccQnWgoU.s:805    .text:0000000000000358 .L0 
     /tmp/ccQnWgoU.s:808    .text:0000000000000364 .L0 
     /tmp/ccQnWgoU.s:809    .text:0000000000000364 .L0 
     /tmp/ccQnWgoU.s:811    .text:0000000000000368 .L0 
     /tmp/ccQnWgoU.s:812    .text:0000000000000368 .L0 
     /tmp/ccQnWgoU.s:818    .text:0000000000000374 .L0 
     /tmp/ccQnWgoU.s:819    .text:0000000000000378 .L0 
     /tmp/ccQnWgoU.s:821    .text:000000000000037c .L0 
     /tmp/ccQnWgoU.s:822    .text:000000000000037c .L0 
GAS LISTING /tmp/ccQnWgoU.s 			page 34


     /tmp/ccQnWgoU.s:824    .text:0000000000000380 .L0 
     /tmp/ccQnWgoU.s:826    .text:0000000000000384 .L0 
     /tmp/ccQnWgoU.s:790    .text:0000000000000348 _ZN9SemaphoreC1Ej
     /tmp/ccQnWgoU.s:834    .text:0000000000000384 _ZN9Semaphore4waitEv
     /tmp/ccQnWgoU.s:837    .text:0000000000000384 .L0 
     /tmp/ccQnWgoU.s:839    .text:0000000000000384 .L0 
     /tmp/ccQnWgoU.s:840    .text:0000000000000388 .L0 
     /tmp/ccQnWgoU.s:843    .text:0000000000000390 .L0 
     /tmp/ccQnWgoU.s:844    .text:0000000000000390 .L0 
     /tmp/ccQnWgoU.s:846    .text:0000000000000394 .L0 
     /tmp/ccQnWgoU.s:848    .text:0000000000000394 .L0 
     /tmp/ccQnWgoU.s:849    .text:0000000000000394 .L0 
     /tmp/ccQnWgoU.s:854    .text:00000000000003a0 .L0 
     /tmp/ccQnWgoU.s:855    .text:00000000000003a4 .L0 
     /tmp/ccQnWgoU.s:857    .text:00000000000003a8 .L0 
     /tmp/ccQnWgoU.s:858    .text:00000000000003a8 .L0 
     /tmp/ccQnWgoU.s:860    .text:00000000000003ac .L0 
     /tmp/ccQnWgoU.s:862    .text:00000000000003b0 .L0 
     /tmp/ccQnWgoU.s:868    .text:00000000000003b0 _ZN9Semaphore6signalEv
     /tmp/ccQnWgoU.s:871    .text:00000000000003b0 .L0 
     /tmp/ccQnWgoU.s:873    .text:00000000000003b0 .L0 
     /tmp/ccQnWgoU.s:874    .text:00000000000003b4 .L0 
     /tmp/ccQnWgoU.s:877    .text:00000000000003bc .L0 
     /tmp/ccQnWgoU.s:878    .text:00000000000003bc .L0 
     /tmp/ccQnWgoU.s:880    .text:00000000000003c0 .L0 
     /tmp/ccQnWgoU.s:882    .text:00000000000003c0 .L0 
     /tmp/ccQnWgoU.s:883    .text:00000000000003c0 .L0 
     /tmp/ccQnWgoU.s:888    .text:00000000000003cc .L0 
     /tmp/ccQnWgoU.s:889    .text:00000000000003d0 .L0 
     /tmp/ccQnWgoU.s:891    .text:00000000000003d4 .L0 
     /tmp/ccQnWgoU.s:892    .text:00000000000003d4 .L0 
     /tmp/ccQnWgoU.s:894    .text:00000000000003d8 .L0 
     /tmp/ccQnWgoU.s:896    .text:00000000000003dc .L0 
     /tmp/ccQnWgoU.s:902    .text:00000000000003dc _ZN14PeriodicThread9terminateEv
     /tmp/ccQnWgoU.s:905    .text:00000000000003dc .L0 
     /tmp/ccQnWgoU.s:907    .text:00000000000003dc .L0 
     /tmp/ccQnWgoU.s:908    .text:00000000000003e0 .L0 
     /tmp/ccQnWgoU.s:911    .text:00000000000003e8 .L0 
     /tmp/ccQnWgoU.s:912    .text:00000000000003e8 .L0 
     /tmp/ccQnWgoU.s:914    .text:00000000000003ec .L0 
     /tmp/ccQnWgoU.s:916    .text:00000000000003ec .L0 
     /tmp/ccQnWgoU.s:917    .text:00000000000003ec .L0 
     /tmp/ccQnWgoU.s:920    .text:00000000000003f4 .L0 
     /tmp/ccQnWgoU.s:921    .text:00000000000003f8 .L0 
     /tmp/ccQnWgoU.s:923    .text:00000000000003fc .L0 
     /tmp/ccQnWgoU.s:924    .text:00000000000003fc .L0 
     /tmp/ccQnWgoU.s:926    .text:0000000000000400 .L0 
     /tmp/ccQnWgoU.s:928    .text:0000000000000404 .L0 
     /tmp/ccQnWgoU.s:934    .text:0000000000000404 _ZN14PeriodicThreadC2Em
     /tmp/ccQnWgoU.s:937    .text:0000000000000404 .L0 
     /tmp/ccQnWgoU.s:941    .text:0000000000000404 .L0 
     /tmp/ccQnWgoU.s:942    .text:0000000000000408 .L0 
     /tmp/ccQnWgoU.s:947    .text:0000000000000418 .L0 
     /tmp/ccQnWgoU.s:948    .text:0000000000000418 .L0 
     /tmp/ccQnWgoU.s:949    .text:0000000000000418 .L0 
     /tmp/ccQnWgoU.s:950    .text:0000000000000418 .L0 
     /tmp/ccQnWgoU.s:952    .text:000000000000041c .L0 
GAS LISTING /tmp/ccQnWgoU.s 			page 35


     /tmp/ccQnWgoU.s:958    .text:0000000000000424 .L0 
     /tmp/ccQnWgoU.s:965    .text:0000000000000438 .L0 
     /tmp/ccQnWgoU.s:966    .text:0000000000000438 .L0 
     /tmp/ccQnWgoU.s:969    .text:000000000000043c .L0 
     /tmp/ccQnWgoU.s:970    .text:000000000000043c .L0 
     /tmp/ccQnWgoU.s:973    .text:0000000000000444 .L0 
     /tmp/ccQnWgoU.s:977    .text:0000000000000450 .L0 
     /tmp/ccQnWgoU.s:980    .text:0000000000000454 .L0 
     /tmp/ccQnWgoU.s:981    .text:0000000000000454 .L0 
     /tmp/ccQnWgoU.s:983    .text:0000000000000458 .L0 
     /tmp/ccQnWgoU.s:984    .text:0000000000000458 .L0 
     /tmp/ccQnWgoU.s:986    .text:000000000000045c .L0 
     /tmp/ccQnWgoU.s:998    .text:000000000000047c .L0 
     /tmp/ccQnWgoU.s:999    .text:0000000000000480 .L0 
     /tmp/ccQnWgoU.s:1000   .text:0000000000000480 .L0 
     /tmp/ccQnWgoU.s:1002   .text:0000000000000484 .L0 
     /tmp/ccQnWgoU.s:1003   .text:0000000000000484 .L0 
     /tmp/ccQnWgoU.s:1005   .text:0000000000000488 .L0 
     /tmp/ccQnWgoU.s:1008   .text:000000000000048c .L0 
     /tmp/ccQnWgoU.s:1011   .text:0000000000000490 .L0 
     /tmp/ccQnWgoU.s:1015   .text:0000000000000494 .L0 
     /tmp/ccQnWgoU.s:1020   .text:0000000000000498 .L0 
     /tmp/ccQnWgoU.s:1029   .text:00000000000004b0 .L0 
     /tmp/ccQnWgoU.s:934    .text:0000000000000404 _ZN14PeriodicThreadC1Em
     /tmp/ccQnWgoU.s:1056   .text:00000000000004b0 _ZN7Console4getcEv
     /tmp/ccQnWgoU.s:1059   .text:00000000000004b0 .L0 
     /tmp/ccQnWgoU.s:1060   .text:00000000000004b0 .L0 
     /tmp/ccQnWgoU.s:1061   .text:00000000000004b4 .L0 
     /tmp/ccQnWgoU.s:1064   .text:00000000000004bc .L0 
     /tmp/ccQnWgoU.s:1065   .text:00000000000004bc .L0 
     /tmp/ccQnWgoU.s:1067   .text:00000000000004c0 .L0 
     /tmp/ccQnWgoU.s:1069   .text:00000000000004c0 .L0 
     /tmp/ccQnWgoU.s:1070   .text:00000000000004c0 .L0 
     /tmp/ccQnWgoU.s:1073   .text:00000000000004c8 .L0 
     /tmp/ccQnWgoU.s:1074   .text:00000000000004cc .L0 
     /tmp/ccQnWgoU.s:1076   .text:00000000000004d0 .L0 
     /tmp/ccQnWgoU.s:1077   .text:00000000000004d0 .L0 
     /tmp/ccQnWgoU.s:1079   .text:00000000000004d4 .L0 
     /tmp/ccQnWgoU.s:1081   .text:00000000000004d8 .L0 
     /tmp/ccQnWgoU.s:1087   .text:00000000000004d8 _ZN7Console4putcEc
     /tmp/ccQnWgoU.s:1090   .text:00000000000004d8 .L0 
     /tmp/ccQnWgoU.s:1092   .text:00000000000004d8 .L0 
     /tmp/ccQnWgoU.s:1093   .text:00000000000004dc .L0 
     /tmp/ccQnWgoU.s:1096   .text:00000000000004e4 .L0 
     /tmp/ccQnWgoU.s:1097   .text:00000000000004e4 .L0 
     /tmp/ccQnWgoU.s:1099   .text:00000000000004e8 .L0 
     /tmp/ccQnWgoU.s:1101   .text:00000000000004e8 .L0 
     /tmp/ccQnWgoU.s:1102   .text:00000000000004e8 .L0 
     /tmp/ccQnWgoU.s:1105   .text:00000000000004f0 .L0 
     /tmp/ccQnWgoU.s:1106   .text:00000000000004f4 .L0 
     /tmp/ccQnWgoU.s:1108   .text:00000000000004f8 .L0 
     /tmp/ccQnWgoU.s:1109   .text:00000000000004f8 .L0 
     /tmp/ccQnWgoU.s:1111   .text:00000000000004fc .L0 
     /tmp/ccQnWgoU.s:1113   .text:0000000000000500 .L0 
     /tmp/ccQnWgoU.s:32     .text._ZN6Thread3runEv:0000000000000018 .L0 
     /tmp/ccQnWgoU.s:57     .text._ZN14PeriodicThread18periodicActivationEv:0000000000000018 .L0 
     /tmp/ccQnWgoU.s:1156   .text:0000000000000500 .L0 
GAS LISTING /tmp/ccQnWgoU.s 			page 36


     /tmp/ccQnWgoU.s:516    .text._ZN14PeriodicThreadD2Ev:0000000000000034 .L0 
     /tmp/ccQnWgoU.s:563    .text._ZN14PeriodicThreadD0Ev:000000000000004c .L0 
     /tmp/ccQnWgoU.s:156    .text:0000000000000074 .L0 
     /tmp/ccQnWgoU.s:376    .text:0000000000000190 .L0 
     /tmp/ccQnWgoU.s:582    .text:0000000000000230 .L0 
     /tmp/ccQnWgoU.s:759    .text:0000000000000310 .L0 
     /tmp/ccQnWgoU.s:767    .text:0000000000000324 .L0 
     /tmp/ccQnWgoU.s:805    .text:0000000000000358 .L0 
     /tmp/ccQnWgoU.s:961    .text:000000000000042c .L0 
     /tmp/ccQnWgoU.s:986    .text:000000000000045c .L0 
     /tmp/ccQnWgoU.s:115    .text:0000000000000044 .L8
     /tmp/ccQnWgoU.s:415    .text:00000000000001cc .L22
     /tmp/ccQnWgoU.s:408    .text:00000000000001c0 .L24
     /tmp/ccQnWgoU.s:671    .text:00000000000002a8 .L39
     /tmp/ccQnWgoU.s:955    .text:0000000000000424 .LEHB0
     /tmp/ccQnWgoU.s:935    .text:0000000000000404 .LFB69
     /tmp/ccQnWgoU.s:960    .text:000000000000042c .LEHE0
     /tmp/ccQnWgoU.s:968    .text:000000000000043c .LEHB1
     /tmp/ccQnWgoU.s:991    .text:0000000000000470 .LEHE1
     /tmp/ccQnWgoU.s:1014   .text:0000000000000494 .L58
     /tmp/ccQnWgoU.s:1024   .text:00000000000004a8 .LEHB2
     /tmp/ccQnWgoU.s:1027   .text:00000000000004b0 .LEHE2
     /tmp/ccQnWgoU.s:498    .text._ZN14PeriodicThreadD2Ev:0000000000000010 .L0 
     /tmp/ccQnWgoU.s:540    .text._ZN14PeriodicThreadD0Ev:0000000000000018 .L0 
     /tmp/ccQnWgoU.s:3658   .debug_abbrev:0000000000000000 .Ldebug_abbrev0
     /tmp/ccQnWgoU.s:6056   .debug_str:0000000000000b70 .LASF221
     /tmp/ccQnWgoU.s:5866   .debug_str:00000000000005e2 .LASF222
     /tmp/ccQnWgoU.s:5932   .debug_str:00000000000007f5 .LASF223
     /tmp/ccQnWgoU.s:5666   .debug_ranges:0000000000000000 .Ldebug_ranges0
     /tmp/ccQnWgoU.s:5680   .debug_line:0000000000000000 .Ldebug_line0
     /tmp/ccQnWgoU.s:5852   .debug_str:000000000000058a .LASF0
     /tmp/ccQnWgoU.s:5882   .debug_str:0000000000000663 .LASF1
     /tmp/ccQnWgoU.s:5986   .debug_str:0000000000000970 .LASF2
     /tmp/ccQnWgoU.s:5996   .debug_str:00000000000009b4 .LASF4
     /tmp/ccQnWgoU.s:5868   .debug_str:00000000000005f6 .LASF3
     /tmp/ccQnWgoU.s:5700   .debug_str:00000000000000a6 .LASF5
     /tmp/ccQnWgoU.s:5960   .debug_str:00000000000008be .LASF6
     /tmp/ccQnWgoU.s:5952   .debug_str:0000000000000889 .LASF7
     /tmp/ccQnWgoU.s:5876   .debug_str:0000000000000641 .LASF8
     /tmp/ccQnWgoU.s:5820   .debug_str:0000000000000433 .LASF9
     /tmp/ccQnWgoU.s:5836   .debug_str:00000000000004fc .LASF10
     /tmp/ccQnWgoU.s:5740   .debug_str:00000000000001cd .LASF11
     /tmp/ccQnWgoU.s:5810   .debug_str:00000000000003f2 .LASF12
     /tmp/ccQnWgoU.s:5760   .debug_str:000000000000026d .LASF13
     /tmp/ccQnWgoU.s:5738   .debug_str:00000000000001bd .LASF14
     /tmp/ccQnWgoU.s:6032   .debug_str:0000000000000aeb .LASF15
     /tmp/ccQnWgoU.s:5796   .debug_str:0000000000000388 .LASF16
     /tmp/ccQnWgoU.s:6020   .debug_str:0000000000000a65 .LASF17
     /tmp/ccQnWgoU.s:5950   .debug_str:0000000000000879 .LASF21
     /tmp/ccQnWgoU.s:5800   .debug_str:00000000000003ab .LASF51
     /tmp/ccQnWgoU.s:5880   .debug_str:000000000000065e .LASF18
     /tmp/ccQnWgoU.s:5742   .debug_str:00000000000001dc .LASF19
     /tmp/ccQnWgoU.s:6024   .debug_str:0000000000000a8c .LASF20
     /tmp/ccQnWgoU.s:5718   .debug_str:0000000000000130 .LASF23
     /tmp/ccQnWgoU.s:5744   .debug_str:00000000000001e1 .LASF22
     /tmp/ccQnWgoU.s:6030   .debug_str:0000000000000ab6 .LASF24
     /tmp/ccQnWgoU.s:5864   .debug_str:00000000000005d8 .LASF25
GAS LISTING /tmp/ccQnWgoU.s 			page 37


     /tmp/ccQnWgoU.s:5704   .debug_str:00000000000000c4 .LASF26
     /tmp/ccQnWgoU.s:5870   .debug_str:0000000000000608 .LASF28
     /tmp/ccQnWgoU.s:5990   .debug_str:000000000000098d .LASF148
     /tmp/ccQnWgoU.s:6084   .debug_str:0000000000000cea .LASF150
     /tmp/ccQnWgoU.s:5684   .debug_str:000000000000002a .LASF27
     /tmp/ccQnWgoU.s:5888   .debug_str:0000000000000693 .LASF29
     /tmp/ccQnWgoU.s:6068   .debug_str:0000000000000c7c .LASF30
     /tmp/ccQnWgoU.s:5942   .debug_str:000000000000083d .LASF31
     /tmp/ccQnWgoU.s:6074   .debug_str:0000000000000c9d .LASF32
     /tmp/ccQnWgoU.s:5848   .debug_str:000000000000055d .LASF33
     /tmp/ccQnWgoU.s:6112   .debug_str:0000000000000da8 .LASF137
     /tmp/ccQnWgoU.s:5918   .debug_str:0000000000000775 .LASF139
     /tmp/ccQnWgoU.s:5696   .debug_str:0000000000000094 .LASF34
     /tmp/ccQnWgoU.s:6134   .debug_str:0000000000000e31 .LASF35
     /tmp/ccQnWgoU.s:5904   .debug_str:000000000000071c .LASF36
     /tmp/ccQnWgoU.s:6144   .debug_str:0000000000000e97 .LASF37
     /tmp/ccQnWgoU.s:5816   .debug_str:0000000000000417 .LASF38
     /tmp/ccQnWgoU.s:6018   .debug_str:0000000000000a57 .LASF39
     /tmp/ccQnWgoU.s:5964   .debug_str:00000000000008d3 .LASF40
     /tmp/ccQnWgoU.s:5776   .debug_str:00000000000002fc .LASF41
     /tmp/ccQnWgoU.s:5992   .debug_str:0000000000000997 .LASF42
     /tmp/ccQnWgoU.s:6064   .debug_str:0000000000000c64 .LASF43
     /tmp/ccQnWgoU.s:5754   .debug_str:0000000000000239 .LASF44
     /tmp/ccQnWgoU.s:5928   .debug_str:00000000000007d5 .LASF45
     /tmp/ccQnWgoU.s:6042   .debug_str:0000000000000b14 .LASF46
     /tmp/ccQnWgoU.s:6120   .debug_str:0000000000000dd6 .LASF47
     /tmp/ccQnWgoU.s:5872   .debug_str:0000000000000624 .LASF48
     /tmp/ccQnWgoU.s:5924   .debug_str:00000000000007b8 .LASF49
     /tmp/ccQnWgoU.s:6094   .debug_str:0000000000000d31 .LASF50
     /tmp/ccQnWgoU.s:6038   .debug_str:0000000000000b07 .LASF52
     /tmp/ccQnWgoU.s:5946   .debug_str:0000000000000868 .LASF53
     /tmp/ccQnWgoU.s:5686   .debug_str:0000000000000031 .LASF54
     /tmp/ccQnWgoU.s:6130   .debug_str:0000000000000e1c .LASF55
     /tmp/ccQnWgoU.s:6012   .debug_str:0000000000000a3a .LASF56
     /tmp/ccQnWgoU.s:6072   .debug_str:0000000000000c95 .LASF57
     /tmp/ccQnWgoU.s:5978   .debug_str:000000000000093b .LASF58
     /tmp/ccQnWgoU.s:6036   .debug_str:0000000000000afe .LASF59
     /tmp/ccQnWgoU.s:5940   .debug_str:0000000000000835 .LASF60
     /tmp/ccQnWgoU.s:5768   .debug_str:00000000000002b0 .LASF61
     /tmp/ccQnWgoU.s:6136   .debug_str:0000000000000e50 .LASF62
     /tmp/ccQnWgoU.s:5878   .debug_str:0000000000000654 .LASF63
     /tmp/ccQnWgoU.s:5998   .debug_str:00000000000009bb .LASF224
     /tmp/ccQnWgoU.s:6138   .debug_str:0000000000000e55 .LASF225
     /tmp/ccQnWgoU.s:6126   .debug_str:0000000000000e08 .LASF126
     /tmp/ccQnWgoU.s:5692   .debug_str:0000000000000060 .LASF142
     /tmp/ccQnWgoU.s:5790   .debug_str:0000000000000351 .LASF64
     /tmp/ccQnWgoU.s:5690   .debug_str:0000000000000046 .LASF66
     /tmp/ccQnWgoU.s:5784   .debug_str:0000000000000338 .LASF65
     /tmp/ccQnWgoU.s:5752   .debug_str:0000000000000226 .LASF67
     /tmp/ccQnWgoU.s:6054   .debug_str:0000000000000b68 .LASF68
     /tmp/ccQnWgoU.s:5714   .debug_str:000000000000011c .LASF75
     /tmp/ccQnWgoU.s:5842   .debug_str:0000000000000527 .LASF77
     /tmp/ccQnWgoU.s:5884   .debug_str:0000000000000676 .LASF165
     /tmp/ccQnWgoU.s:6062   .debug_str:0000000000000c54 .LASF166
     /tmp/ccQnWgoU.s:6048   .debug_str:0000000000000b3b .LASF69
     /tmp/ccQnWgoU.s:5812   .debug_str:0000000000000401 .LASF70
     /tmp/ccQnWgoU.s:6124   .debug_str:0000000000000df7 .LASF71
GAS LISTING /tmp/ccQnWgoU.s 			page 38


     /tmp/ccQnWgoU.s:5832   .debug_str:00000000000004c7 .LASF72
     /tmp/ccQnWgoU.s:5948   .debug_str:000000000000086d .LASF73
     /tmp/ccQnWgoU.s:5926   .debug_str:00000000000007bd .LASF74
     /tmp/ccQnWgoU.s:6092   .debug_str:0000000000000d24 .LASF76
     /tmp/ccQnWgoU.s:5766   .debug_str:0000000000000298 .LASF78
     /tmp/ccQnWgoU.s:5956   .debug_str:00000000000008a1 .LASF79
     /tmp/ccQnWgoU.s:5774   .debug_str:00000000000002e4 .LASF80
     /tmp/ccQnWgoU.s:6106   .debug_str:0000000000000d7e .LASF81
     /tmp/ccQnWgoU.s:5758   .debug_str:0000000000000255 .LASF82
     /tmp/ccQnWgoU.s:6116   .debug_str:0000000000000dc5 .LASF83
     /tmp/ccQnWgoU.s:5720   .debug_str:0000000000000149 .LASF84
     /tmp/ccQnWgoU.s:5856   .debug_str:00000000000005a9 .LASF85
     /tmp/ccQnWgoU.s:5886   .debug_str:000000000000067c .LASF86
     /tmp/ccQnWgoU.s:5728   .debug_str:000000000000017c .LASF87
     /tmp/ccQnWgoU.s:6010   .debug_str:0000000000000a27 .LASF88
     /tmp/ccQnWgoU.s:6090   .debug_str:0000000000000d1d .LASF89
     /tmp/ccQnWgoU.s:5896   .debug_str:00000000000006d7 .LASF90
     /tmp/ccQnWgoU.s:6066   .debug_str:0000000000000c6d .LASF91
     /tmp/ccQnWgoU.s:5898   .debug_str:00000000000006e9 .LASF92
     /tmp/ccQnWgoU.s:5890   .debug_str:00000000000006b1 .LASF93
     /tmp/ccQnWgoU.s:6028   .debug_str:0000000000000a9c .LASF94
     /tmp/ccQnWgoU.s:5962   .debug_str:00000000000008c5 .LASF95
     /tmp/ccQnWgoU.s:6142   .debug_str:0000000000000e7e .LASF96
     /tmp/ccQnWgoU.s:5966   .debug_str:00000000000008df .LASF97
     /tmp/ccQnWgoU.s:5694   .debug_str:0000000000000088 .LASF98
     /tmp/ccQnWgoU.s:6118   .debug_str:0000000000000dd0 .LASF99
     /tmp/ccQnWgoU.s:5778   .debug_str:000000000000030c .LASF100
     /tmp/ccQnWgoU.s:6100   .debug_str:0000000000000d4a .LASF101
     /tmp/ccQnWgoU.s:6002   .debug_str:00000000000009dc .LASF102
     /tmp/ccQnWgoU.s:5788   .debug_str:0000000000000346 .LASF103
     /tmp/ccQnWgoU.s:6008   .debug_str:0000000000000a11 .LASF104
     /tmp/ccQnWgoU.s:6078   .debug_str:0000000000000cbc .LASF105
     /tmp/ccQnWgoU.s:5802   .debug_str:00000000000003b3 .LASF106
     /tmp/ccQnWgoU.s:6070   .debug_str:0000000000000c88 .LASF107
     /tmp/ccQnWgoU.s:6148   .debug_str:0000000000000eb8 .LASF108
     /tmp/ccQnWgoU.s:6006   .debug_str:0000000000000a05 .LASF226
     /tmp/ccQnWgoU.s:5786   .debug_str:0000000000000341 .LASF109
     /tmp/ccQnWgoU.s:6016   .debug_str:0000000000000a48 .LASF110
     /tmp/ccQnWgoU.s:6034   .debug_str:0000000000000af7 .LASF111
     /tmp/ccQnWgoU.s:5958   .debug_str:00000000000008ad .LASF112
     /tmp/ccQnWgoU.s:6000   .debug_str:00000000000009d2 .LASF113
     /tmp/ccQnWgoU.s:6104   .debug_str:0000000000000d69 .LASF114
     /tmp/ccQnWgoU.s:5980   .debug_str:0000000000000946 .LASF115
     /tmp/ccQnWgoU.s:6140   .debug_str:0000000000000e68 .LASF116
     /tmp/ccQnWgoU.s:5844   .debug_str:000000000000054e .LASF117
     /tmp/ccQnWgoU.s:5922   .debug_str:00000000000007a5 .LASF118
     /tmp/ccQnWgoU.s:5900   .debug_str:0000000000000704 .LASF119
     /tmp/ccQnWgoU.s:5976   .debug_str:000000000000091b .LASF120
     /tmp/ccQnWgoU.s:5710   .debug_str:0000000000000110 .LASF121
     /tmp/ccQnWgoU.s:5730   .debug_str:0000000000000184 .LASF122
     /tmp/ccQnWgoU.s:5750   .debug_str:0000000000000217 .LASF127
     /tmp/ccQnWgoU.s:5736   .debug_str:00000000000001b2 .LASF123
     /tmp/ccQnWgoU.s:5762   .debug_str:000000000000027d .LASF124
     /tmp/ccQnWgoU.s:5726   .debug_str:0000000000000175 .LASF125
     /tmp/ccQnWgoU.s:6076   .debug_str:0000000000000ca2 .LASF128
     /tmp/ccQnWgoU.s:6080   .debug_str:0000000000000cc5 .LASF129
     /tmp/ccQnWgoU.s:6088   .debug_str:0000000000000d15 .LASF130
GAS LISTING /tmp/ccQnWgoU.s 			page 39


     /tmp/ccQnWgoU.s:5914   .debug_str:000000000000074c .LASF131
     /tmp/ccQnWgoU.s:6044   .debug_str:0000000000000b1f .LASF132
     /tmp/ccQnWgoU.s:5828   .debug_str:000000000000048f .LASF133
     /tmp/ccQnWgoU.s:5874   .debug_str:0000000000000629 .LASF134
     /tmp/ccQnWgoU.s:5782   .debug_str:0000000000000325 .LASF173
     /tmp/ccQnWgoU.s:5682   .debug_str:0000000000000000 .LASF227
     /tmp/ccQnWgoU.s:5936   .debug_str:000000000000081e .LASF135
     /tmp/ccQnWgoU.s:5830   .debug_str:00000000000004af .LASF228
     /tmp/ccQnWgoU.s:5908   .debug_str:0000000000000733 .LASF136
     /tmp/ccQnWgoU.s:5858   .debug_str:00000000000005b5 .LASF138
     /tmp/ccQnWgoU.s:5772   .debug_str:00000000000002d1 .LASF140
     /tmp/ccQnWgoU.s:5912   .debug_str:0000000000000747 .LASF141
     /tmp/ccQnWgoU.s:5792   .debug_str:0000000000000360 .LASF143
     /tmp/ccQnWgoU.s:6040   .debug_str:0000000000000b0f .LASF144
     /tmp/ccQnWgoU.s:6082   .debug_str:0000000000000ce0 .LASF145
     /tmp/ccQnWgoU.s:6050   .debug_str:0000000000000b40 .LASF146
     /tmp/ccQnWgoU.s:6132   .debug_str:0000000000000e21 .LASF157
     /tmp/ccQnWgoU.s:6046   .debug_str:0000000000000b29 .LASF147
     /tmp/ccQnWgoU.s:5970   .debug_str:00000000000008f6 .LASF149
     /tmp/ccQnWgoU.s:6004   .debug_str:00000000000009f3 .LASF151
     /tmp/ccQnWgoU.s:5748   .debug_str:0000000000000202 .LASF152
     /tmp/ccQnWgoU.s:5702   .debug_str:00000000000000ad .LASF153
     /tmp/ccQnWgoU.s:5862   .debug_str:00000000000005cf .LASF154
     /tmp/ccQnWgoU.s:5850   .debug_str:000000000000057a .LASF229
     /tmp/ccQnWgoU.s:6096   .debug_str:0000000000000d3a .LASF155
     /tmp/ccQnWgoU.s:5756   .debug_str:0000000000000243 .LASF156
     /tmp/ccQnWgoU.s:6058   .debug_str:0000000000000c34 .LASF158
     /tmp/ccQnWgoU.s:6146   .debug_str:0000000000000ea1 .LASF159
     /tmp/ccQnWgoU.s:6014   .debug_str:0000000000000a40 .LASF160
     /tmp/ccQnWgoU.s:5806   .debug_str:00000000000003dd .LASF161
     /tmp/ccQnWgoU.s:6128   .debug_str:0000000000000e16 .LASF162
     /tmp/ccQnWgoU.s:6052   .debug_str:0000000000000b55 .LASF163
     /tmp/ccQnWgoU.s:5906   .debug_str:0000000000000721 .LASF164
     /tmp/ccQnWgoU.s:6122   .debug_str:0000000000000de1 .LASF167
     /tmp/ccQnWgoU.s:5716   .debug_str:000000000000012a .LASF168
     /tmp/ccQnWgoU.s:6060   .debug_str:0000000000000c41 .LASF169
     /tmp/ccQnWgoU.s:5732   .debug_str:0000000000000194 .LASF170
     /tmp/ccQnWgoU.s:5826   .debug_str:0000000000000472 .LASF171
     /tmp/ccQnWgoU.s:5840   .debug_str:0000000000000518 .LASF172
     /tmp/ccQnWgoU.s:6114   .debug_str:0000000000000db4 .LASF230
     /tmp/ccQnWgoU.s:5814   .debug_str:0000000000000412 .LASF174
     /tmp/ccQnWgoU.s:5698   .debug_str:000000000000009c .LASF175
     /tmp/ccQnWgoU.s:5770   .debug_str:00000000000002b9 .LASF176
     /tmp/ccQnWgoU.s:521    .text._ZN14PeriodicThreadD0Ev:0000000000000000 .LFB76
     /tmp/ccQnWgoU.s:561    .text._ZN14PeriodicThreadD0Ev:000000000000004c .LFE76
     /tmp/ccQnWgoU.s:5175   .debug_loc:0000000000000000 .LLST14
     /tmp/ccQnWgoU.s:537    .text._ZN14PeriodicThreadD0Ev:0000000000000018 .LBB18
     /tmp/ccQnWgoU.s:545    .text._ZN14PeriodicThreadD0Ev:000000000000002c .LBE18
     /tmp/ccQnWgoU.s:5193   .debug_loc:000000000000004c .LLST15
     /tmp/ccQnWgoU.s:543    .text._ZN14PeriodicThreadD0Ev:000000000000002c .LVL38
     /tmp/ccQnWgoU.s:548    .text._ZN14PeriodicThreadD0Ev:0000000000000038 .LVL39
     /tmp/ccQnWgoU.s:5984   .debug_str:0000000000000958 .LASF177
     /tmp/ccQnWgoU.s:484    .text._ZN14PeriodicThreadD2Ev:0000000000000000 .LFB74
     /tmp/ccQnWgoU.s:512    .text._ZN14PeriodicThreadD2Ev:0000000000000034 .LFE74
     /tmp/ccQnWgoU.s:5204   .debug_loc:0000000000000082 .LLST13
     /tmp/ccQnWgoU.s:501    .text._ZN14PeriodicThreadD2Ev:0000000000000024 .LVL35
     /tmp/ccQnWgoU.s:1088   .text:00000000000004d8 .LFB72
GAS LISTING /tmp/ccQnWgoU.s 			page 40


     /tmp/ccQnWgoU.s:1114   .text:0000000000000500 .LFE72
     /tmp/ccQnWgoU.s:5218   .debug_loc:00000000000000bb .LLST31
     /tmp/ccQnWgoU.s:1103   .text:00000000000004f0 .LVL82
     /tmp/ccQnWgoU.s:1057   .text:00000000000004b0 .LFB71
     /tmp/ccQnWgoU.s:1082   .text:00000000000004d8 .LFE71
     /tmp/ccQnWgoU.s:1071   .text:00000000000004c8 .LVL80
     /tmp/ccQnWgoU.s:6102   .debug_str:0000000000000d51 .LASF178
     /tmp/ccQnWgoU.s:1030   .text:00000000000004b0 .LFE69
     /tmp/ccQnWgoU.s:5232   .debug_loc:00000000000000f4 .LLST28
     /tmp/ccQnWgoU.s:5254   .debug_loc:0000000000000153 .LLST29
     /tmp/ccQnWgoU.s:971    .text:0000000000000444 .LVL68
     /tmp/ccQnWgoU.s:975    .text:0000000000000450 .LVL69
     /tmp/ccQnWgoU.s:990    .text:0000000000000470 .LVL72
     /tmp/ccQnWgoU.s:994    .text:000000000000047c .LVL73
     /tmp/ccQnWgoU.s:963    .text:0000000000000438 .LBB24
     /tmp/ccQnWgoU.s:995    .text:000000000000047c .LBE24
     /tmp/ccQnWgoU.s:5283   .debug_loc:00000000000001c8 .LLST30
     /tmp/ccQnWgoU.s:959    .text:000000000000042c .LVL67
     /tmp/ccQnWgoU.s:1022   .text:00000000000004a4 .LVL78
     /tmp/ccQnWgoU.s:1026   .text:00000000000004b0 .LVL79
     /tmp/ccQnWgoU.s:903    .text:00000000000003dc .LFB67
     /tmp/ccQnWgoU.s:929    .text:0000000000000404 .LFE67
     /tmp/ccQnWgoU.s:5294   .debug_loc:00000000000001fe .LLST27
     /tmp/ccQnWgoU.s:918    .text:00000000000003f4 .LVL65
     /tmp/ccQnWgoU.s:98     .text:000000000000002c .LFB66
     /tmp/ccQnWgoU.s:134    .text:0000000000000064 .LFE66
     /tmp/ccQnWgoU.s:5308   .debug_loc:0000000000000237 .LLST1
     /tmp/ccQnWgoU.s:121    .text:0000000000000050 .LVL6
     /tmp/ccQnWgoU.s:5854   .debug_str:0000000000000597 .LASF179
     /tmp/ccQnWgoU.s:287    .text:0000000000000114 .LFB65
     /tmp/ccQnWgoU.s:320    .text:0000000000000154 .LFE65
     /tmp/ccQnWgoU.s:5319   .debug_loc:000000000000026d .LLST6
     /tmp/ccQnWgoU.s:304    .text:0000000000000134 .LVL18
     /tmp/ccQnWgoU.s:307    .text:0000000000000140 .LVL19
     /tmp/ccQnWgoU.s:5706   .debug_str:00000000000000f5 .LASF180
     /tmp/ccQnWgoU.s:140    .text:0000000000000064 .LFB63
     /tmp/ccQnWgoU.s:175    .text:000000000000009c .LFE63
     /tmp/ccQnWgoU.s:5337   .debug_loc:00000000000002b9 .LLST2
     /tmp/ccQnWgoU.s:163    .text:000000000000008c .LVL10
     /tmp/ccQnWgoU.s:869    .text:00000000000003b0 .LFB61
     /tmp/ccQnWgoU.s:897    .text:00000000000003dc .LFE61
     /tmp/ccQnWgoU.s:5351   .debug_loc:00000000000002f2 .LLST26
     /tmp/ccQnWgoU.s:886    .text:00000000000003cc .LVL63
     /tmp/ccQnWgoU.s:835    .text:0000000000000384 .LFB60
     /tmp/ccQnWgoU.s:863    .text:00000000000003b0 .LFE60
     /tmp/ccQnWgoU.s:5365   .debug_loc:000000000000032b .LLST25
     /tmp/ccQnWgoU.s:852    .text:00000000000003a0 .LVL60
     /tmp/ccQnWgoU.s:5724   .debug_str:0000000000000170 .LASF181
     /tmp/ccQnWgoU.s:5746   .debug_str:00000000000001f0 .LASF182
     /tmp/ccQnWgoU.s:791    .text:0000000000000348 .LFB58
     /tmp/ccQnWgoU.s:827    .text:0000000000000384 .LFE58
     /tmp/ccQnWgoU.s:5379   .debug_loc:0000000000000364 .LLST23
     /tmp/ccQnWgoU.s:5399   .debug_loc:00000000000003b2 .LLST24
     /tmp/ccQnWgoU.s:815    .text:0000000000000374 .LVL57
     /tmp/ccQnWgoU.s:62     .text:0000000000000000 .LFB56
     /tmp/ccQnWgoU.s:92     .text:000000000000002c .LFE56
     /tmp/ccQnWgoU.s:5982   .debug_str:0000000000000951 .LASF183
GAS LISTING /tmp/ccQnWgoU.s 			page 41


     /tmp/ccQnWgoU.s:5413   .debug_loc:00000000000003eb .LLST0
     /tmp/ccQnWgoU.s:81     .text:000000000000001c .LVL3
     /tmp/ccQnWgoU.s:5988   .debug_str:000000000000097e .LASF184
     /tmp/ccQnWgoU.s:745    .text:0000000000000300 .LFB54
     /tmp/ccQnWgoU.s:783    .text:0000000000000348 .LFE54
     /tmp/ccQnWgoU.s:5427   .debug_loc:0000000000000424 .LLST22
     /tmp/ccQnWgoU.s:771    .text:0000000000000338 .LVL54
     /tmp/ccQnWgoU.s:711    .text:00000000000002d4 .LFB52
     /tmp/ccQnWgoU.s:739    .text:0000000000000300 .LFE52
     /tmp/ccQnWgoU.s:5954   .debug_str:000000000000089c .LASF185
     /tmp/ccQnWgoU.s:5445   .debug_loc:0000000000000470 .LLST21
     /tmp/ccQnWgoU.s:726    .text:00000000000002ec .LVL51
     /tmp/ccQnWgoU.s:680    .text:00000000000002ac .LFB51
     /tmp/ccQnWgoU.s:705    .text:00000000000002d4 .LFE51
     /tmp/ccQnWgoU.s:694    .text:00000000000002c4 .LVL49
     /tmp/ccQnWgoU.s:639    .text:0000000000000278 .LFB50
     /tmp/ccQnWgoU.s:674    .text:00000000000002ac .LFE50
     /tmp/ccQnWgoU.s:5459   .debug_loc:00000000000004a9 .LLST20
     /tmp/ccQnWgoU.s:661    .text:0000000000000298 .LVL48
     /tmp/ccQnWgoU.s:612    .text:000000000000025c .LFB49
     /tmp/ccQnWgoU.s:633    .text:0000000000000278 .LFE49
     /tmp/ccQnWgoU.s:5473   .debug_loc:00000000000004e2 .LLST19
     /tmp/ccQnWgoU.s:5894   .debug_str:00000000000006c8 .LASF186
     /tmp/ccQnWgoU.s:444    .text:00000000000001e0 .LFB48
     /tmp/ccQnWgoU.s:477    .text:0000000000000220 .LFE48
     /tmp/ccQnWgoU.s:5487   .debug_loc:000000000000051b .LLST12
     /tmp/ccQnWgoU.s:461    .text:0000000000000200 .LVL31
     /tmp/ccQnWgoU.s:464    .text:000000000000020c .LVL32
     /tmp/ccQnWgoU.s:6110   .debug_str:0000000000000d99 .LASF187
     /tmp/ccQnWgoU.s:358    .text:000000000000017c .LFB46
     /tmp/ccQnWgoU.s:429    .text:00000000000001e0 .LFE46
     /tmp/ccQnWgoU.s:5505   .debug_loc:0000000000000567 .LLST8
     /tmp/ccQnWgoU.s:381    .text:00000000000001a0 .LBB13
     /tmp/ccQnWgoU.s:390    .text:00000000000001a8 .LBE13
     /tmp/ccQnWgoU.s:5519   .debug_loc:00000000000005a0 .LLST9
     /tmp/ccQnWgoU.s:5527   .debug_loc:00000000000005c4 .LLST10
     /tmp/ccQnWgoU.s:397    .text:00000000000001b0 .LBB15
     /tmp/ccQnWgoU.s:410    .text:00000000000001c0 .LBE15
     /tmp/ccQnWgoU.s:5534   .debug_loc:00000000000005e7 .LLST11
     /tmp/ccQnWgoU.s:407    .text:00000000000001c0 .LVL28
     /tmp/ccQnWgoU.s:414    .text:00000000000001cc .LVL29
     /tmp/ccQnWgoU.s:5930   .debug_str:00000000000007de .LASF188
     /tmp/ccQnWgoU.s:568    .text:0000000000000220 .LFB43
     /tmp/ccQnWgoU.s:604    .text:000000000000025c .LFE43
     /tmp/ccQnWgoU.s:5541   .debug_loc:000000000000060a .LLST16
     /tmp/ccQnWgoU.s:5561   .debug_loc:0000000000000658 .LLST17
     /tmp/ccQnWgoU.s:5575   .debug_loc:0000000000000691 .LLST18
     /tmp/ccQnWgoU.s:592    .text:000000000000024c .LVL43
     /tmp/ccQnWgoU.s:5804   .debug_str:00000000000003ca .LASF189
     /tmp/ccQnWgoU.s:5938   .debug_str:000000000000082e .LASF190
     /tmp/ccQnWgoU.s:326    .text:0000000000000154 .LFB41
     /tmp/ccQnWgoU.s:352    .text:000000000000017c .LFE41
     /tmp/ccQnWgoU.s:5589   .debug_loc:00000000000006ca .LLST7
     /tmp/ccQnWgoU.s:341    .text:000000000000016c .LVL22
     /tmp/ccQnWgoU.s:5688   .debug_str:0000000000000036 .LASF191
     /tmp/ccQnWgoU.s:5944   .debug_str:0000000000000861 .LASF192
     /tmp/ccQnWgoU.s:255    .text:00000000000000ec .LFB40
GAS LISTING /tmp/ccQnWgoU.s 			page 42


     /tmp/ccQnWgoU.s:281    .text:0000000000000114 .LFE40
     /tmp/ccQnWgoU.s:5603   .debug_loc:0000000000000703 .LLST5
     /tmp/ccQnWgoU.s:270    .text:0000000000000104 .LVL16
     /tmp/ccQnWgoU.s:5734   .debug_str:00000000000001a2 .LASF193
     /tmp/ccQnWgoU.s:5712   .debug_str:0000000000000116 .LASF194
     /tmp/ccQnWgoU.s:223    .text:00000000000000c4 .LFB39
     /tmp/ccQnWgoU.s:249    .text:00000000000000ec .LFE39
     /tmp/ccQnWgoU.s:5617   .debug_loc:000000000000073c .LLST4
     /tmp/ccQnWgoU.s:238    .text:00000000000000dc .LVL14
     /tmp/ccQnWgoU.s:5798   .debug_str:000000000000039e .LASF195
     /tmp/ccQnWgoU.s:5808   .debug_str:00000000000003ec .LASF196
     /tmp/ccQnWgoU.s:191    .text:000000000000009c .LFB38
     /tmp/ccQnWgoU.s:217    .text:00000000000000c4 .LFE38
     /tmp/ccQnWgoU.s:5631   .debug_loc:0000000000000775 .LLST3
     /tmp/ccQnWgoU.s:206    .text:00000000000000b4 .LVL12
     /tmp/ccQnWgoU.s:37     .text._ZN14PeriodicThread18periodicActivationEv:0000000000000000 .LFB37
     /tmp/ccQnWgoU.s:55     .text._ZN14PeriodicThread18periodicActivationEv:0000000000000018 .LFE37
     /tmp/ccQnWgoU.s:11     .text._ZN6Thread3runEv:0000000000000000 .LFB36
     /tmp/ccQnWgoU.s:30     .text._ZN6Thread3runEv:0000000000000018 .LFE36
     /tmp/ccQnWgoU.s:5920   .debug_str:0000000000000799 .LASF231
     /tmp/ccQnWgoU.s:5902   .debug_str:0000000000000715 .LASF197
     /tmp/ccQnWgoU.s:5846   .debug_str:0000000000000556 .LASF198
     /tmp/ccQnWgoU.s:6086   .debug_str:0000000000000d06 .LASF232
     /tmp/ccQnWgoU.s:5834   .debug_str:00000000000004e4 .LASF233
     /tmp/ccQnWgoU.s:6022   .debug_str:0000000000000a7b .LASF199
     /tmp/ccQnWgoU.s:5910   .debug_str:000000000000073b .LASF200
     /tmp/ccQnWgoU.s:5722   .debug_str:0000000000000160 .LASF201
     /tmp/ccQnWgoU.s:5764   .debug_str:000000000000028d .LASF202
     /tmp/ccQnWgoU.s:5968   .debug_str:00000000000008e4 .LASF203
     /tmp/ccQnWgoU.s:5972   .debug_str:0000000000000901 .LASF204
     /tmp/ccQnWgoU.s:5780   .debug_str:0000000000000311 .LASF205
     /tmp/ccQnWgoU.s:6026   .debug_str:0000000000000a91 .LASF206
     /tmp/ccQnWgoU.s:5994   .debug_str:00000000000009a3 .LASF207
     /tmp/ccQnWgoU.s:5892   .debug_str:00000000000006bf .LASF208
     /tmp/ccQnWgoU.s:5818   .debug_str:0000000000000420 .LASF209
     /tmp/ccQnWgoU.s:5708   .debug_str:0000000000000107 .LASF210
     /tmp/ccQnWgoU.s:5824   .debug_str:0000000000000451 .LASF211
     /tmp/ccQnWgoU.s:6108   .debug_str:0000000000000d8b .LASF212
     /tmp/ccQnWgoU.s:5860   .debug_str:00000000000005ba .LASF213
     /tmp/ccQnWgoU.s:5974   .debug_str:000000000000090b .LASF214
     /tmp/ccQnWgoU.s:5794   .debug_str:0000000000000373 .LASF215
     /tmp/ccQnWgoU.s:5934   .debug_str:0000000000000812 .LASF216
     /tmp/ccQnWgoU.s:5838   .debug_str:000000000000050a .LASF217
     /tmp/ccQnWgoU.s:6098   .debug_str:0000000000000d41 .LASF218
     /tmp/ccQnWgoU.s:5822   .debug_str:0000000000000443 .LASF219
     /tmp/ccQnWgoU.s:5916   .debug_str:000000000000076b .LASF220
     /tmp/ccQnWgoU.s:524    .text._ZN14PeriodicThreadD0Ev:0000000000000000 .LVL36
     /tmp/ccQnWgoU.s:556    .text._ZN14PeriodicThreadD0Ev:0000000000000044 .LVL40
     /tmp/ccQnWgoU.s:536    .text._ZN14PeriodicThreadD0Ev:0000000000000018 .LVL37
     /tmp/ccQnWgoU.s:487    .text._ZN14PeriodicThreadD2Ev:0000000000000000 .LVL34
     /tmp/ccQnWgoU.s:1091   .text:00000000000004d8 .LVL81
     /tmp/ccQnWgoU.s:940    .text:0000000000000404 .LVL66
     /tmp/ccQnWgoU.s:1006   .text:0000000000000488 .LVL74
     /tmp/ccQnWgoU.s:1013   .text:0000000000000494 .LVL76
     /tmp/ccQnWgoU.s:1009   .text:000000000000048c .LVL75
     /tmp/ccQnWgoU.s:1017   .text:0000000000000498 .LVL77
     /tmp/ccQnWgoU.s:978    .text:0000000000000454 .LVL70
GAS LISTING /tmp/ccQnWgoU.s 			page 43


     /tmp/ccQnWgoU.s:988    .text:0000000000000468 .LVL71
     /tmp/ccQnWgoU.s:906    .text:00000000000003dc .LVL64
     /tmp/ccQnWgoU.s:101    .text:000000000000002c .LVL4
     /tmp/ccQnWgoU.s:114    .text:0000000000000044 .LVL5
     /tmp/ccQnWgoU.s:290    .text:0000000000000114 .LVL17
     /tmp/ccQnWgoU.s:315    .text:000000000000014c .LVL20
     /tmp/ccQnWgoU.s:145    .text:0000000000000064 .LVL8
     /tmp/ccQnWgoU.s:161    .text:0000000000000084 .LVL9
     /tmp/ccQnWgoU.s:872    .text:00000000000003b0 .LVL61
     /tmp/ccQnWgoU.s:884    .text:00000000000003c4 .LVL62
     /tmp/ccQnWgoU.s:838    .text:0000000000000384 .LVL58
     /tmp/ccQnWgoU.s:850    .text:0000000000000398 .LVL59
     /tmp/ccQnWgoU.s:794    .text:0000000000000348 .LVL55
     /tmp/ccQnWgoU.s:813    .text:000000000000036c .LVL56
     /tmp/ccQnWgoU.s:66     .text:0000000000000000 .LVL2
     /tmp/ccQnWgoU.s:748    .text:0000000000000300 .LVL52
     /tmp/ccQnWgoU.s:769    .text:0000000000000330 .LVL53
     /tmp/ccQnWgoU.s:714    .text:00000000000002d4 .LVL50
     /tmp/ccQnWgoU.s:642    .text:0000000000000278 .LVL46
     /tmp/ccQnWgoU.s:646    .text:000000000000027c .LVL47
     /tmp/ccQnWgoU.s:615    .text:000000000000025c .LVL44
     /tmp/ccQnWgoU.s:625    .text:000000000000026c .LVL45
     /tmp/ccQnWgoU.s:447    .text:00000000000001e0 .LVL30
     /tmp/ccQnWgoU.s:472    .text:0000000000000218 .LVL33
     /tmp/ccQnWgoU.s:363    .text:000000000000017c .LVL23
     /tmp/ccQnWgoU.s:402    .text:00000000000001b4 .LVL27
     /tmp/ccQnWgoU.s:380    .text:00000000000001a0 .LVL24
     /tmp/ccQnWgoU.s:388    .text:00000000000001a8 .LVL25
     /tmp/ccQnWgoU.s:396    .text:00000000000001b0 .LVL26
     /tmp/ccQnWgoU.s:571    .text:0000000000000220 .LVL41
     /tmp/ccQnWgoU.s:590    .text:0000000000000244 .LVL42
     /tmp/ccQnWgoU.s:329    .text:0000000000000154 .LVL21
     /tmp/ccQnWgoU.s:258    .text:00000000000000ec .LVL15
     /tmp/ccQnWgoU.s:226    .text:00000000000000c4 .LVL13
     /tmp/ccQnWgoU.s:194    .text:000000000000009c .LVL11
     /tmp/ccQnWgoU.s:1157   .debug_info:0000000000000000 .Ldebug_info0
     /tmp/ccQnWgoU.s:5      .text:0000000000000000 .Ltext0
     /tmp/ccQnWgoU.s:1150   .text:0000000000000500 .Letext0
     /tmp/ccQnWgoU.s:178    .gcc_except_table:0000000000000000 .LLSDA63
     /tmp/ccQnWgoU.s:431    .gcc_except_table:0000000000000004 .LLSDA46
     /tmp/ccQnWgoU.s:1032   .gcc_except_table:0000000000000008 .LLSDA69
                           .group:0000000000000000 _ZN14PeriodicThreadD5Ev

UNDEFINED SYMBOLS
_Z10time_sleepm
_Z9sem_closeP3sem
__gxx_personality_v0
_Z9mem_allocm
_Z8mem_freePv
_Z13thread_createPP3TCBPFvPvES2_
_Z11thread_joinP3TCB
_Z15thread_dispatchv
_Z8sem_openPP3semj
_Z8sem_waitP3sem
_Z10sem_signalP3sem
_Z11thread_exitv
_ZN15MemoryAllocator11getInstanceEv
GAS LISTING /tmp/ccQnWgoU.s 			page 44


_ZN15MemoryAllocator11mallocBytesEm
_Unwind_Resume
__getc
__putc
