GAS LISTING /tmp/ccgHDLVY.s 			page 1


   1              		.file	"tcb.cpp"
   2              		.option pic
   3              		.option norelax
   4              		.text
   5              	.Ltext0:
   6              		.align	2
   7              		.globl	_ZN3TCB14thread_wrapperEv
   9              	_ZN3TCB14thread_wrapperEv:
  10              	.LFB39:
  11              		.file 1 "src/tcb.cpp"
   1:src/tcb.cpp   **** #include "../h/tcb.hpp"
   2:src/tcb.cpp   **** #include "../lib/console.h"
   3:src/tcb.cpp   **** 
   4:src/tcb.cpp   **** int TCB::ID = 0;
   5:src/tcb.cpp   **** TCB* TCB::running = nullptr;
   6:src/tcb.cpp   **** time_t TCB::time_slice_counter = 0;
   7:src/tcb.cpp   **** 
   8:src/tcb.cpp   **** TCB *TCB::create_thread(TCB **handle, TCB::Body body, void *args, uint64 *stack) {
   9:src/tcb.cpp   ****     TCB* tcb = new TCB(body, args, DEFAULT_TIME_SLICE, stack);
  10:src/tcb.cpp   ****     tcb->set_user_mode(RiscV::get_user_mode());
  11:src/tcb.cpp   ****     *handle = tcb;
  12:src/tcb.cpp   ****     ID++;
  13:src/tcb.cpp   **** 
  14:src/tcb.cpp   ****     return tcb;
  15:src/tcb.cpp   **** }
  16:src/tcb.cpp   **** 
  17:src/tcb.cpp   **** void TCB::thread_wrapper() {
  12              		.loc 1 17 28
  13              		.cfi_startproc
  14 0000 130101FE 		addi	sp,sp,-32
  15              		.cfi_def_cfa_offset 32
  16 0004 233C1100 		sd	ra,24(sp)
  17 0008 23388100 		sd	s0,16(sp)
  18 000c 23349100 		sd	s1,8(sp)
  19              		.cfi_offset 1, -8
  20              		.cfi_offset 8, -16
  21              		.cfi_offset 9, -24
  22 0010 13040102 		addi	s0,sp,32
  23              		.cfi_def_cfa 8, 0
  18:src/tcb.cpp   ****     RiscV::popSppSpie();
  24              		.loc 1 18 5
  25              		.loc 1 18 22 is_stmt 0
  26 0014 97000000 		call	_ZN5RiscV10popSppSpieEv@plt
  26      E7800000 
  27              	.LVL0:
  19:src/tcb.cpp   ****     running->body(running->args);
  28              		.loc 1 19 5 is_stmt 1
  29              		.loc 1 19 14 is_stmt 0
  30 001c 97040000 		lla	s1,.LANCHOR0
  30      93840400 
  31 0024 83B70400 		ld	a5,0(s1)
  32 0028 03B70700 		ld	a4,0(a5)
  33              		.loc 1 19 18
  34 002c 03B58700 		ld	a0,8(a5)
  35 0030 E7000700 		jalr	a4
  36              	.LVL1:
  20:src/tcb.cpp   ****     running->set_finished(true);
GAS LISTING /tmp/ccgHDLVY.s 			page 2


  37              		.loc 1 20 5 is_stmt 1
  38              		.loc 1 20 26 is_stmt 0
  39 0034 83B70400 		ld	a5,0(s1)
  40              	.LVL2:
  41              	.LBB16:
  42              	.LBB17:
  43              		.file 2 "src/../h/tcb.hpp"
   1:src/../h/tcb.hpp **** #ifndef PROJECT_BASE_V1_1_TCB_HPP
   2:src/../h/tcb.hpp **** #define PROJECT_BASE_V1_1_TCB_HPP
   3:src/../h/tcb.hpp **** 
   4:src/../h/tcb.hpp **** #include "../lib/hw.h"
   5:src/../h/tcb.hpp **** #include "../h/scheduler.hpp"
   6:src/../h/tcb.hpp **** #include "../h/riscv.hpp"
   7:src/../h/tcb.hpp **** 
   8:src/../h/tcb.hpp **** class TCB{
   9:src/../h/tcb.hpp **** private:
  10:src/../h/tcb.hpp ****     struct Context{
  11:src/../h/tcb.hpp ****         uint64 sp, ra;
  12:src/../h/tcb.hpp ****     };
  13:src/../h/tcb.hpp **** 
  14:src/../h/tcb.hpp ****     using Body = void(*)(void*);
  15:src/../h/tcb.hpp ****     Body body;
  16:src/../h/tcb.hpp ****     void* args;
  17:src/../h/tcb.hpp **** 
  18:src/../h/tcb.hpp ****     uint64* stack;
  19:src/../h/tcb.hpp ****     Context context;
  20:src/../h/tcb.hpp **** 
  21:src/../h/tcb.hpp ****     time_t time_slice;
  22:src/../h/tcb.hpp ****     int id;
  23:src/../h/tcb.hpp ****     bool finished, blocked, sleeping, main, user_mode;
  24:src/../h/tcb.hpp **** 
  25:src/../h/tcb.hpp ****     TCB(Body body, void* args, uint64 time_slice, uint64* stack) :
  26:src/../h/tcb.hpp ****         body(body),
  27:src/../h/tcb.hpp ****         args(args),
  28:src/../h/tcb.hpp ****         stack(body != nullptr ? stack : nullptr),
  29:src/../h/tcb.hpp ****         context({(uint64) &thread_wrapper, stack != nullptr ? reinterpret_cast<uint64>(&stack[DEFAU
  30:src/../h/tcb.hpp ****         time_slice(time_slice),
  31:src/../h/tcb.hpp ****         id(ID),
  32:src/../h/tcb.hpp ****         finished(false),
  33:src/../h/tcb.hpp ****         blocked(false),
  34:src/../h/tcb.hpp ****         sleeping(false),
  35:src/../h/tcb.hpp ****         main(body == nullptr){
  36:src/../h/tcb.hpp **** 
  37:src/../h/tcb.hpp ****         if(body != nullptr){
  38:src/../h/tcb.hpp ****             Scheduler::put(this);
  39:src/../h/tcb.hpp ****         }
  40:src/../h/tcb.hpp **** 
  41:src/../h/tcb.hpp ****     }
  42:src/../h/tcb.hpp **** 
  43:src/../h/tcb.hpp ****     static time_t time_slice_counter;
  44:src/../h/tcb.hpp **** 
  45:src/../h/tcb.hpp ****     static void contextSwitch(Context* old_context, Context* new_context);
  46:src/../h/tcb.hpp ****     static void thread_wrapper();
  47:src/../h/tcb.hpp ****     static void dispatch();
  48:src/../h/tcb.hpp **** public:
  49:src/../h/tcb.hpp ****     friend class RiscV;
  50:src/../h/tcb.hpp ****     friend class sem;
GAS LISTING /tmp/ccgHDLVY.s 			page 3


  51:src/../h/tcb.hpp **** 
  52:src/../h/tcb.hpp ****     static int ID;
  53:src/../h/tcb.hpp ****     static TCB* running;
  54:src/../h/tcb.hpp ****     static TCB* create_thread(TCB** handle, Body body, void* args, uint64* stack);
  55:src/../h/tcb.hpp ****     static void yield();
  56:src/../h/tcb.hpp ****     static void join(TCB*);
  57:src/../h/tcb.hpp ****     static void outputThreadBody(void*);
  58:src/../h/tcb.hpp **** 
  59:src/../h/tcb.hpp **** //    void start(){
  60:src/../h/tcb.hpp **** //        Scheduler::put(this);
  61:src/../h/tcb.hpp **** //    }
  62:src/../h/tcb.hpp **** 
  63:src/../h/tcb.hpp ****     bool is_finished() const { return finished; }
  64:src/../h/tcb.hpp ****     void set_finished(bool f) { this->finished = f; }
  44              		.loc 2 64 33 is_stmt 1
  45              		.loc 2 64 48 is_stmt 0
  46 0038 13071000 		li	a4,1
  47 003c 238AE702 		sb	a4,52(a5)
  48              	.LVL3:
  49              	.LBE17:
  50              	.LBE16:
  21:src/tcb.cpp   ****     thread_dispatch();
  51              		.loc 1 21 5 is_stmt 1
  52              		.loc 1 21 20 is_stmt 0
  53 0040 97000000 		call	_Z15thread_dispatchv@plt
  53      E7800000 
  54              	.LVL4:
  22:src/tcb.cpp   **** }
  55              		.loc 1 22 1
  56 0048 83308101 		ld	ra,24(sp)
  57              		.cfi_restore 1
  58 004c 03340101 		ld	s0,16(sp)
  59              		.cfi_restore 8
  60              		.cfi_def_cfa 2, 32
  61 0050 83348100 		ld	s1,8(sp)
  62              		.cfi_restore 9
  63 0054 13010102 		addi	sp,sp,32
  64              		.cfi_def_cfa_offset 0
  65 0058 67800000 		jr	ra
  66              		.cfi_endproc
  67              	.LFE39:
  69              		.align	2
  70              		.globl	_ZN3TCB13create_threadEPPS_PFvPvES2_Pm
  72              	_ZN3TCB13create_threadEPPS_PFvPvES2_Pm:
  73              	.LFB38:
   8:src/tcb.cpp   ****     TCB* tcb = new TCB(body, args, DEFAULT_TIME_SLICE, stack);
  74              		.loc 1 8 82 is_stmt 1
  75              		.cfi_startproc
  76              		.cfi_personality 0x9b,DW.ref.__gxx_personality_v0
  77              		.cfi_lsda 0x1b,.LLSDA38
  78              	.LVL5:
  79 005c 130101FC 		addi	sp,sp,-64
  80              		.cfi_def_cfa_offset 64
  81 0060 233C1102 		sd	ra,56(sp)
  82 0064 23388102 		sd	s0,48(sp)
  83 0068 23349102 		sd	s1,40(sp)
  84 006c 23302103 		sd	s2,32(sp)
GAS LISTING /tmp/ccgHDLVY.s 			page 4


  85 0070 233C3101 		sd	s3,24(sp)
  86 0074 23384101 		sd	s4,16(sp)
  87 0078 23345101 		sd	s5,8(sp)
  88              		.cfi_offset 1, -8
  89              		.cfi_offset 8, -16
  90              		.cfi_offset 9, -24
  91              		.cfi_offset 18, -32
  92              		.cfi_offset 19, -40
  93              		.cfi_offset 20, -48
  94              		.cfi_offset 21, -56
  95 007c 13040104 		addi	s0,sp,64
  96              		.cfi_def_cfa 8, 0
  97 0080 130A0500 		mv	s4,a0
  98 0084 93890500 		mv	s3,a1
  99 0088 930A0600 		mv	s5,a2
 100 008c 13890600 		mv	s2,a3
   9:src/tcb.cpp   ****     tcb->set_user_mode(RiscV::get_user_mode());
 101              		.loc 1 9 5
   9:src/tcb.cpp   ****     tcb->set_user_mode(RiscV::get_user_mode());
 102              		.loc 1 9 61 is_stmt 0
 103 0090 13050004 		li	a0,64
 104              	.LVL6:
 105              	.LEHB0:
 106 0094 97000000 		call	_Znwm@plt
 106      E7800000 
 107              	.LVL7:
 108              	.LEHE0:
 109 009c 93040500 		mv	s1,a0
 110              	.LVL8:
 111              	.LBB25:
 112              	.LBB26:
  35:src/../h/tcb.hpp **** 
 113              		.loc 2 35 29
 114 00a0 23303501 		sd	s3,0(a0)
 115 00a4 23345501 		sd	s5,8(a0)
  28:src/../h/tcb.hpp ****         context({(uint64) &thread_wrapper, stack != nullptr ? reinterpret_cast<uint64>(&stack[DEFAU
 116              		.loc 2 28 31
 117 00a8 63820906 		beqz	s3,.L8
 118 00ac 93070900 		mv	a5,s2
 119              	.L4:
  35:src/../h/tcb.hpp **** 
 120              		.loc 2 35 29
 121 00b0 23B8F400 		sd	a5,16(s1)
 122 00b4 97070000 		lla	a5,_ZN3TCB14thread_wrapperEv
 122      93870700 
 123 00bc 23BCF400 		sd	a5,24(s1)
  29:src/../h/tcb.hpp ****         time_slice(time_slice),
 124              		.loc 2 29 61
 125 00c0 630A0904 		beqz	s2,.L9
  29:src/../h/tcb.hpp ****         time_slice(time_slice),
 126              		.loc 2 29 88
 127 00c4 B7860000 		li	a3,32768
 128 00c8 3309D900 		add	s2,s2,a3
 129              	.LVL9:
 130              	.L5:
  35:src/../h/tcb.hpp **** 
 131              		.loc 2 35 29
GAS LISTING /tmp/ccgHDLVY.s 			page 5


 132 00cc 23B02403 		sd	s2,32(s1)
 133 00d0 93072000 		li	a5,2
 134 00d4 23B4F402 		sd	a5,40(s1)
 135 00d8 97070000 		lw	a5,.LANCHOR0+8
 135      83A70700 
 136 00e0 23A8F402 		sw	a5,48(s1)
 137 00e4 238A0402 		sb	zero,52(s1)
 138 00e8 A38A0402 		sb	zero,53(s1)
 139 00ec 238B0402 		sb	zero,54(s1)
  35:src/../h/tcb.hpp **** 
 140              		.loc 2 35 19
 141 00f0 93B71900 		seqz	a5,s3
  35:src/../h/tcb.hpp **** 
 142              		.loc 2 35 29
 143 00f4 A38BF402 		sb	a5,55(s1)
  37:src/../h/tcb.hpp ****             Scheduler::put(this);
 144              		.loc 2 37 9 is_stmt 1
 145 00f8 63800904 		beqz	s3,.L6
  38:src/../h/tcb.hpp ****         }
 146              		.loc 2 38 13
  38:src/../h/tcb.hpp ****         }
 147              		.loc 2 38 27 is_stmt 0
 148 00fc 13850400 		mv	a0,s1
 149              	.LEHB1:
 150 0100 97000000 		call	_ZN9Scheduler3putEP3TCB@plt
 150      E7800000 
 151              	.LVL10:
 152              	.LEHE1:
 153 0108 6F000003 		j	.L6
 154              	.LVL11:
 155              	.L8:
  28:src/../h/tcb.hpp ****         context({(uint64) &thread_wrapper, stack != nullptr ? reinterpret_cast<uint64>(&stack[DEFAU
 156              		.loc 2 28 31
 157 010c 93070000 		li	a5,0
 158 0110 6FF01FFA 		j	.L4
 159              	.L9:
  29:src/../h/tcb.hpp ****         time_slice(time_slice),
 160              		.loc 2 29 61
 161 0114 13090000 		li	s2,0
 162              	.LVL12:
 163 0118 6FF05FFB 		j	.L5
 164              	.L10:
 165 011c 13090500 		mv	s2,a0
 166              	.LBE26:
 167              	.LBE25:
   9:src/tcb.cpp   ****     tcb->set_user_mode(RiscV::get_user_mode());
 168              		.loc 1 9 61
 169 0120 13850400 		mv	a0,s1
 170 0124 97000000 		call	_ZdlPv@plt
 170      E7800000 
 171              	.LVL13:
 172 012c 13050900 		mv	a0,s2
 173              	.LEHB2:
 174 0130 97000000 		call	_Unwind_Resume@plt
 174      E7800000 
 175              	.LVL14:
 176              	.LEHE2:
GAS LISTING /tmp/ccgHDLVY.s 			page 6


 177              	.L6:
  10:src/tcb.cpp   ****     *handle = tcb;
 178              		.loc 1 10 5 is_stmt 1
 179              	.LBB27:
 180              	.LBB28:
 181              		.file 3 "src/../h/../h/riscv.hpp"
   1:src/../h/../h/riscv.hpp **** #ifndef PROJECT_BASE_V1_1_RISCV_HPP
   2:src/../h/../h/riscv.hpp **** #define PROJECT_BASE_V1_1_RISCV_HPP
   3:src/../h/../h/riscv.hpp **** 
   4:src/../h/../h/riscv.hpp **** #include "../lib/hw.h"
   5:src/../h/../h/riscv.hpp **** #include "../lib/mem.h"
   6:src/../h/../h/riscv.hpp **** #include "../h/syscall_c.h"
   7:src/../h/../h/riscv.hpp **** #include "../h/sem.hpp"
   8:src/../h/../h/riscv.hpp **** #include "../h/SleepingThreadsList.hpp"
   9:src/../h/../h/riscv.hpp **** 
  10:src/../h/../h/riscv.hpp **** class SleepingThreadsList;
  11:src/../h/../h/riscv.hpp **** class RiscV{
  12:src/../h/../h/riscv.hpp **** private:
  13:src/../h/../h/riscv.hpp ****     static bool user_mode;
  14:src/../h/../h/riscv.hpp ****     static SleepingThreadsList list_of_sleeping_threads;
  15:src/../h/../h/riscv.hpp **** 
  16:src/../h/../h/riscv.hpp ****     static void handleEcallInterrupt();
  17:src/../h/../h/riscv.hpp ****     static void handleTimerInterrupt();
  18:src/../h/../h/riscv.hpp ****     static void handleExternalInterrupt();
  19:src/../h/../h/riscv.hpp **** public:
  20:src/../h/../h/riscv.hpp ****     enum SSTATUS_MASK{
  21:src/../h/../h/riscv.hpp ****         SSTATUS_SIE = (1 << 1),
  22:src/../h/../h/riscv.hpp ****         SSTATUS_SPIE = (1 << 5),
  23:src/../h/../h/riscv.hpp ****         SSTATUS_SPP = (1 << 8)
  24:src/../h/../h/riscv.hpp ****     };
  25:src/../h/../h/riscv.hpp **** 
  26:src/../h/../h/riscv.hpp ****     enum SIP_MASK{
  27:src/../h/../h/riscv.hpp ****         SIP_SSIP = (1 << 1),
  28:src/../h/../h/riscv.hpp ****         SIP_STIP = (1 << 5),
  29:src/../h/../h/riscv.hpp ****         SIP_SEIP = (1 << 9)
  30:src/../h/../h/riscv.hpp ****     };
  31:src/../h/../h/riscv.hpp **** 
  32:src/../h/../h/riscv.hpp ****     static void popSppSpie();
  33:src/../h/../h/riscv.hpp **** 
  34:src/../h/../h/riscv.hpp ****     static void w_stvec(uint64);
  35:src/../h/../h/riscv.hpp **** 
  36:src/../h/../h/riscv.hpp ****     static uint64 r_sepc();
  37:src/../h/../h/riscv.hpp ****     static void w_sepc(uint64);
  38:src/../h/../h/riscv.hpp **** 
  39:src/../h/../h/riscv.hpp ****     static uint64 r_sstatus();
  40:src/../h/../h/riscv.hpp ****     static void w_sstatus(uint64);
  41:src/../h/../h/riscv.hpp ****     static void ms_sstatus(uint64 mask);
  42:src/../h/../h/riscv.hpp ****     static void mc_sstatus(uint64 mask);
  43:src/../h/../h/riscv.hpp **** 
  44:src/../h/../h/riscv.hpp ****     static uint64 r_a0();
  45:src/../h/../h/riscv.hpp **** 
  46:src/../h/../h/riscv.hpp ****     static uint64 r_scause();
  47:src/../h/../h/riscv.hpp **** 
  48:src/../h/../h/riscv.hpp ****     static void mc_sip(uint64 mask);
  49:src/../h/../h/riscv.hpp **** 
  50:src/../h/../h/riscv.hpp ****     static bool get_user_mode() { return user_mode; }
 182              		.loc 3 50 35
GAS LISTING /tmp/ccgHDLVY.s 			page 7


 183              		.loc 3 50 42 is_stmt 0
 184 0138 97070000 		la	a5,_ZN5RiscV9user_modeE
 184      83B70700 
 185 0140 83C70700 		lbu	a5,0(a5)
 186              	.LVL15:
 187              	.LBE28:
 188              	.LBE27:
 189              	.LBB29:
 190              	.LBB30:
  65:src/../h/tcb.hpp **** 
  66:src/../h/tcb.hpp ****     bool is_sleeping() const { return sleeping; }
  67:src/../h/tcb.hpp ****     void set_sleeping(bool s) { this->sleeping = s; }
  68:src/../h/tcb.hpp **** 
  69:src/../h/tcb.hpp ****     bool is_blocked() const { return blocked; }
  70:src/../h/tcb.hpp ****     void set_blocked(bool b) { this->blocked = b; }
  71:src/../h/tcb.hpp **** 
  72:src/../h/tcb.hpp ****     bool is_main() const { return main; }
  73:src/../h/tcb.hpp ****     int get_id() const { return id; }
  74:src/../h/tcb.hpp ****     uint64 get_time_slice() const { return time_slice; }
  75:src/../h/tcb.hpp **** 
  76:src/../h/tcb.hpp ****     bool get_user_mode () const { return user_mode; }
  77:src/../h/tcb.hpp ****     void set_user_mode (bool value) { user_mode = value; }
 191              		.loc 2 77 39 is_stmt 1
 192              		.loc 2 77 49 is_stmt 0
 193 0144 238CF402 		sb	a5,56(s1)
 194              	.LVL16:
 195              	.LBE30:
 196              	.LBE29:
  11:src/tcb.cpp   ****     ID++;
 197              		.loc 1 11 5 is_stmt 1
  11:src/tcb.cpp   ****     ID++;
 198              		.loc 1 11 13 is_stmt 0
 199 0148 23309A00 		sd	s1,0(s4)
  12:src/tcb.cpp   **** 
 200              		.loc 1 12 5 is_stmt 1
  12:src/tcb.cpp   **** 
 201              		.loc 1 12 7 is_stmt 0
 202 014c 17070000 		lla	a4,.LANCHOR0
 202      13070700 
 203 0154 83278700 		lw	a5,8(a4)
 204 0158 9B871700 		addiw	a5,a5,1
 205 015c 2324F700 		sw	a5,8(a4)
  14:src/tcb.cpp   **** }
 206              		.loc 1 14 5 is_stmt 1
  15:src/tcb.cpp   **** 
 207              		.loc 1 15 1 is_stmt 0
 208 0160 13850400 		mv	a0,s1
 209 0164 83308103 		ld	ra,56(sp)
 210              		.cfi_restore 1
 211 0168 03340103 		ld	s0,48(sp)
 212              		.cfi_restore 8
 213              		.cfi_def_cfa 2, 64
 214 016c 83348102 		ld	s1,40(sp)
 215              		.cfi_restore 9
 216              	.LVL17:
 217 0170 03390102 		ld	s2,32(sp)
 218              		.cfi_restore 18
GAS LISTING /tmp/ccgHDLVY.s 			page 8


 219 0174 83398101 		ld	s3,24(sp)
 220              		.cfi_restore 19
 221              	.LVL18:
 222 0178 033A0101 		ld	s4,16(sp)
 223              		.cfi_restore 20
 224              	.LVL19:
 225 017c 833A8100 		ld	s5,8(sp)
 226              		.cfi_restore 21
 227              	.LVL20:
 228 0180 13010104 		addi	sp,sp,64
 229              		.cfi_def_cfa_offset 0
 230 0184 67800000 		jr	ra
 231              		.cfi_endproc
 232              	.LFE38:
 233              		.globl	__gxx_personality_v0
 234              		.section	.gcc_except_table,"a",@progbits
 235              	.LLSDA38:
 236 0000 FF       		.byte	0xff
 237 0001 FF       		.byte	0xff
 238 0002 03       		.byte	0x3
 239 0003 27       		.byte	0x27
 240 0004 00000000 		.4byte	.LEHB0-.LFB38
 241 0008 00000000 		.4byte	.LEHE0-.LEHB0
 242 000c 00000000 		.4byte	0
 243 0010 00       		.byte	0
 244 0011 00000000 		.4byte	.LEHB1-.LFB38
 245 0015 00000000 		.4byte	.LEHE1-.LEHB1
 246 0019 00000000 		.4byte	.L10-.LFB38
 247 001d 00       		.byte	0
 248 001e 00000000 		.4byte	.LEHB2-.LFB38
 249 0022 00000000 		.4byte	.LEHE2-.LEHB2
 250 0026 00000000 		.4byte	0
 251 002a 00       		.byte	0
 252              		.text
 254              		.align	2
 255              		.globl	_ZN3TCB5yieldEv
 257              	_ZN3TCB5yieldEv:
 258              	.LFB40:
  23:src/tcb.cpp   **** 
  24:src/tcb.cpp   **** void TCB::yield(){
 259              		.loc 1 24 18 is_stmt 1
 260              		.cfi_startproc
 261 0188 130101FF 		addi	sp,sp,-16
 262              		.cfi_def_cfa_offset 16
 263 018c 23348100 		sd	s0,8(sp)
 264              		.cfi_offset 8, -8
 265 0190 13040101 		addi	s0,sp,16
 266              		.cfi_def_cfa 8, 0
  25:src/tcb.cpp   ****     __asm__ volatile ("mv a0, %0" : : "r"(THREAD_DISPATCH));
 267              		.loc 1 25 5
 268              		.loc 1 25 60 is_stmt 0
 269 0194 93073001 		li	a5,19
 270              	#APP
 271              	# 25 "src/tcb.cpp" 1
  26              	    __asm__ volatile ("ecall");
 272              		mv a0, a5
 273              	# 0 "" 2
GAS LISTING /tmp/ccgHDLVY.s 			page 9


 274              		.loc 1 26 5 is_stmt 1
 275              		.loc 1 26 31 is_stmt 0
 276              	# 26 "src/tcb.cpp" 1
  27              	}
 277              		ecall
 278              	# 0 "" 2
 279              		.loc 1 27 1
 280              	#NO_APP
 281 01a0 03348100 		ld	s0,8(sp)
 282              		.cfi_restore 8
 283              		.cfi_def_cfa 2, 16
 284 01a4 13010101 		addi	sp,sp,16
 285              		.cfi_def_cfa_offset 0
 286 01a8 67800000 		jr	ra
 287              		.cfi_endproc
 288              	.LFE40:
 290              		.align	2
 291              		.globl	_ZN3TCB8dispatchEv
 293              	_ZN3TCB8dispatchEv:
 294              	.LFB41:
  28:src/tcb.cpp   **** 
  29:src/tcb.cpp   **** void TCB::dispatch() {
 295              		.loc 1 29 22 is_stmt 1
 296              		.cfi_startproc
 297 01ac 130101FE 		addi	sp,sp,-32
 298              		.cfi_def_cfa_offset 32
 299 01b0 233C1100 		sd	ra,24(sp)
 300 01b4 23388100 		sd	s0,16(sp)
 301 01b8 23349100 		sd	s1,8(sp)
 302              		.cfi_offset 1, -8
 303              		.cfi_offset 8, -16
 304              		.cfi_offset 9, -24
 305 01bc 13040102 		addi	s0,sp,32
 306              		.cfi_def_cfa 8, 0
  30:src/tcb.cpp   ****     TCB* old = running;
 307              		.loc 1 30 5
 308              		.loc 1 30 10 is_stmt 0
 309 01c0 97040000 		ld	s1,.LANCHOR0
 309      83B40400 
 310              	.LVL21:
  31:src/tcb.cpp   ****     if(!old->is_finished() && !old->is_sleeping() && !old->is_blocked()) Scheduler::put(old);
 311              		.loc 1 31 5 is_stmt 1
 312              	.LBB31:
 313              	.LBB32:
  63:src/../h/tcb.hpp ****     void set_finished(bool f) { this->finished = f; }
 314              		.loc 2 63 32
  63:src/../h/tcb.hpp ****     void set_finished(bool f) { this->finished = f; }
 315              		.loc 2 63 39 is_stmt 0
 316 01c8 83C74403 		lbu	a5,52(s1)
 317              	.LVL22:
 318              	.LBE32:
 319              	.LBE31:
 320              		.loc 1 31 51
 321 01cc 639A0700 		bnez	a5,.L16
 322              	.LVL23:
 323              	.LBB33:
 324              	.LBB34:
GAS LISTING /tmp/ccgHDLVY.s 			page 10


  66:src/../h/tcb.hpp ****     void set_sleeping(bool s) { this->sleeping = s; }
 325              		.loc 2 66 32 is_stmt 1
  66:src/../h/tcb.hpp ****     void set_sleeping(bool s) { this->sleeping = s; }
 326              		.loc 2 66 39 is_stmt 0
 327 01d0 83C76403 		lbu	a5,54(s1)
 328              	.LVL24:
 329              	.LBE34:
 330              	.LBE33:
 331              		.loc 1 31 28
 332 01d4 63960700 		bnez	a5,.L16
 333              	.LVL25:
 334              	.LBB35:
 335              	.LBB36:
  69:src/../h/tcb.hpp ****     void set_blocked(bool b) { this->blocked = b; }
 336              		.loc 2 69 31 is_stmt 1
  69:src/../h/tcb.hpp ****     void set_blocked(bool b) { this->blocked = b; }
 337              		.loc 2 69 38 is_stmt 0
 338 01d8 83C75403 		lbu	a5,53(s1)
 339              	.LVL26:
 340              	.LBE36:
 341              	.LBE35:
 342              		.loc 1 31 51
 343 01dc 63800704 		beqz	a5,.L19
 344              	.L16:
  32:src/tcb.cpp   ****     running = Scheduler::get();
 345              		.loc 1 32 5 is_stmt 1
 346              		.loc 1 32 29 is_stmt 0
 347 01e0 97000000 		call	_ZN9Scheduler3getEv@plt
 347      E7800000 
 348              	.LVL27:
 349              		.loc 1 32 13
 350 01e8 97070000 		sd	a0,.LANCHOR0,a5
 350      23B0A700 
  33:src/tcb.cpp   **** 
  34:src/tcb.cpp   ****     if(old != running && running != nullptr){
 351              		.loc 1 34 5 is_stmt 1
 352 01f0 638CA400 		beq	s1,a0,.L15
 353              		.loc 1 34 23 is_stmt 0 discriminator 1
 354 01f4 630A0500 		beqz	a0,.L15
  35:src/tcb.cpp   ****         contextSwitch(&(old->context), &(running->context));
 355              		.loc 1 35 9 is_stmt 1
 356              		.loc 1 35 22 is_stmt 0
 357 01f8 93058501 		addi	a1,a0,24
 358 01fc 13858401 		addi	a0,s1,24
 359 0200 97000000 		call	_ZN3TCB13contextSwitchEPNS_7ContextES1_@plt
 359      E7800000 
 360              	.LVL28:
 361              	.L15:
  36:src/tcb.cpp   ****     }
  37:src/tcb.cpp   **** }
 362              		.loc 1 37 1
 363 0208 83308101 		ld	ra,24(sp)
 364              		.cfi_remember_state
 365              		.cfi_restore 1
 366 020c 03340101 		ld	s0,16(sp)
 367              		.cfi_restore 8
 368              		.cfi_def_cfa 2, 32
GAS LISTING /tmp/ccgHDLVY.s 			page 11


 369 0210 83348100 		ld	s1,8(sp)
 370              		.cfi_restore 9
 371              	.LVL29:
 372 0214 13010102 		addi	sp,sp,32
 373              		.cfi_def_cfa_offset 0
 374 0218 67800000 		jr	ra
 375              	.LVL30:
 376              	.L19:
 377              		.cfi_restore_state
  31:src/tcb.cpp   ****     running = Scheduler::get();
 378              		.loc 1 31 74 is_stmt 1
  31:src/tcb.cpp   ****     running = Scheduler::get();
 379              		.loc 1 31 88 is_stmt 0
 380 021c 13850400 		mv	a0,s1
 381 0220 97000000 		call	_ZN9Scheduler3putEP3TCB@plt
 381      E7800000 
 382              	.LVL31:
 383 0228 6FF09FFB 		j	.L16
 384              		.cfi_endproc
 385              	.LFE41:
 387              		.align	2
 388              		.globl	_ZN3TCB4joinEPS_
 390              	_ZN3TCB4joinEPS_:
 391              	.LFB42:
  38:src/tcb.cpp   **** 
  39:src/tcb.cpp   **** void TCB::join(TCB* handle) {
 392              		.loc 1 39 29 is_stmt 1
 393              		.cfi_startproc
 394              	.LVL32:
 395 022c 130101FE 		addi	sp,sp,-32
 396              		.cfi_def_cfa_offset 32
 397 0230 233C1100 		sd	ra,24(sp)
 398 0234 23388100 		sd	s0,16(sp)
 399 0238 23349100 		sd	s1,8(sp)
 400              		.cfi_offset 1, -8
 401              		.cfi_offset 8, -16
 402              		.cfi_offset 9, -24
 403 023c 13040102 		addi	s0,sp,32
 404              		.cfi_def_cfa 8, 0
 405 0240 93040500 		mv	s1,a0
 406              	.LVL33:
 407              	.L22:
  40:src/tcb.cpp   ****     while(!handle->is_finished()){
 408              		.loc 1 40 5
 409              		.loc 1 40 11
 410              	.LBB37:
 411              	.LBB38:
  63:src/../h/tcb.hpp ****     void set_finished(bool f) { this->finished = f; }
 412              		.loc 2 63 32
  63:src/../h/tcb.hpp ****     void set_finished(bool f) { this->finished = f; }
 413              		.loc 2 63 39 is_stmt 0
 414 0244 83C74403 		lbu	a5,52(s1)
 415              	.LVL34:
 416              	.LBE38:
 417              	.LBE37:
 418              		.loc 1 40 11
 419 0248 63980700 		bnez	a5,.L20
GAS LISTING /tmp/ccgHDLVY.s 			page 12


  41:src/tcb.cpp   ****         TCB::dispatch();
 420              		.loc 1 41 9 is_stmt 1
 421              		.loc 1 41 22 is_stmt 0
 422 024c 97000000 		call	_ZN3TCB8dispatchEv
 422      E7800000 
 423              	.LVL35:
  40:src/tcb.cpp   ****     while(!handle->is_finished()){
 424              		.loc 1 40 5
 425 0254 6FF01FFF 		j	.L22
 426              	.L20:
  42:src/tcb.cpp   ****     }
  43:src/tcb.cpp   **** }
 427              		.loc 1 43 1
 428 0258 83308101 		ld	ra,24(sp)
 429              		.cfi_restore 1
 430 025c 03340101 		ld	s0,16(sp)
 431              		.cfi_restore 8
 432              		.cfi_def_cfa 2, 32
 433 0260 83348100 		ld	s1,8(sp)
 434              		.cfi_restore 9
 435              	.LVL36:
 436 0264 13010102 		addi	sp,sp,32
 437              		.cfi_def_cfa_offset 0
 438 0268 67800000 		jr	ra
 439              		.cfi_endproc
 440              	.LFE42:
 442              		.align	2
 443              		.globl	_ZN3TCB16outputThreadBodyEPv
 445              	_ZN3TCB16outputThreadBodyEPv:
 446              	.LFB43:
  44:src/tcb.cpp   **** 
  45:src/tcb.cpp   **** void TCB::outputThreadBody(void *) {
 447              		.loc 1 45 36 is_stmt 1
 448              		.cfi_startproc
 449 026c 130101FF 		addi	sp,sp,-16
 450              		.cfi_def_cfa_offset 16
 451 0270 23348100 		sd	s0,8(sp)
 452              		.cfi_offset 8, -8
 453 0274 13040101 		addi	s0,sp,16
 454              		.cfi_def_cfa 8, 0
  46:src/tcb.cpp   **** 
  47:src/tcb.cpp   **** }
 455              		.loc 1 47 1 is_stmt 0
 456 0278 03348100 		ld	s0,8(sp)
 457              		.cfi_restore 8
 458              		.cfi_def_cfa 2, 16
 459 027c 13010101 		addi	sp,sp,16
 460              		.cfi_def_cfa_offset 0
 461 0280 67800000 		jr	ra
 462              		.cfi_endproc
 463              	.LFE43:
 465              		.globl	_ZN3TCB18time_slice_counterE
 466              		.globl	_ZN3TCB7runningE
 467              		.globl	_ZN3TCB2IDE
 468              		.bss
 469              		.align	3
 470              		.set	.LANCHOR0,. + 0
GAS LISTING /tmp/ccgHDLVY.s 			page 13


 473              	_ZN3TCB7runningE:
 474 0000 00000000 		.zero	8
 474      00000000 
 477              	_ZN3TCB2IDE:
 478 0008 00000000 		.zero	4
 479 000c 00000000 		.zero	4
 482              	_ZN3TCB18time_slice_counterE:
 483 0010 00000000 		.zero	8
 483      00000000 
 484              		.text
 485              	.Letext0:
 486              		.file 4 "src/../h/../lib/hw.h"
 487              		.file 5 "src/../h/../h/scheduler.hpp"
 488              		.file 6 "src/../h/../h/../h/syscall_c.h"
 489              		.file 7 "src/../h/../h/../h/SleepingThreadsList.hpp"
 3684              		.align	3
 3687              	DW.ref.__gxx_personality_v0:
 3688 0000 00000000 		.dword	__gxx_personality_v0
 3688      00000000 
 3689              		.ident	"GCC: (Ubuntu 9.4.0-1ubuntu1~20.04) 9.4.0"
 3690              		.section	.note.GNU-stack,"",@progbits
GAS LISTING /tmp/ccgHDLVY.s 			page 14

